ccopy_reg
_reconstructor
p0
(cneat.genome
DefaultGenome
p1
c__builtin__
object
p2
Ntp3
Rp4
(dp5
S'connections'
p6
(dp7
(I103
I3
tp8
g0
(cneat.genes
DefaultConnectionGene
p9
g2
Ntp10
Rp11
(dp12
S'enabled'
p13
I01
sS'weight'
p14
F0.7070287169332535
sS'key'
p15
g8
sbs(I-2
I0
tp16
g0
(g9
g2
Ntp17
Rp18
(dp19
g13
I01
sg14
F-0.6568003505267398
sg15
g16
sbs(I-4
I2
tp20
g0
(g9
g2
Ntp21
Rp22
(dp23
g13
I01
sg14
F0.06213757534101777
sg15
g20
sbs(I-2
I3
tp24
g0
(g9
g2
Ntp25
Rp26
(dp27
g13
I00
sg14
F2.102884930966458
sg15
g24
sbs(I-4
I0
tp28
g0
(g9
g2
Ntp29
Rp30
(dp31
g13
I01
sg14
F0.4163379837861573
sg15
g28
sbs(I-3
I1
tp32
g0
(g9
g2
Ntp33
Rp34
(dp35
g13
I00
sg14
F1.3713325249379833
sg15
g32
sbs(I-3
I2
tp36
g0
(g9
g2
Ntp37
Rp38
(dp39
g13
I01
sg14
F1.6834160384196157
sg15
g36
sbs(I185
I1
tp40
g0
(g9
g2
Ntp41
Rp42
(dp43
g13
I01
sg14
F1.8428385921839925
sg15
g40
sbs(I-3
I3
tp44
g0
(g9
g2
Ntp45
Rp46
(dp47
g13
I01
sg14
F-0.4591494350181807
sg15
g44
sbs(I-3
I185
tp48
g0
(g9
g2
Ntp49
Rp50
(dp51
g13
I01
sg14
F1.7815840442230266
sg15
g48
sbs(I-2
I103
tp52
g0
(g9
g2
Ntp53
Rp54
(dp55
g13
I01
sg14
F0.276875446124527
sg15
g52
sbssS'nodes'
p56
(dp57
I0
g0
(cneat.genes
DefaultNodeGene
p58
g2
Ntp59
Rp60
(dp61
S'activation'
p62
S'sigmoid'
p63
sS'bias'
p64
F1.3269566145676177
sS'response'
p65
F1.0
sg15
I0
sS'aggregation'
p66
S'sum'
p67
sbsI1
g0
(g58
g2
Ntp68
Rp69
(dp70
g62
g63
sg64
F-1.509704100125577
sg65
F1.0
sg15
I1
sg66
g67
sbsI2
g0
(g58
g2
Ntp71
Rp72
(dp73
g62
g63
sg64
F-0.15254483966795027
sg65
F1.0
sg15
I2
sg66
g67
sbsI3
g0
(g58
g2
Ntp74
Rp75
(dp76
g62
g63
sg64
F1.3870920021288808
sg65
F1.0
sg15
I3
sg66
g67
sbsI103
g0
(g58
g2
Ntp77
Rp78
(dp79
g62
g63
sg64
F-1.8333286286768784
sg65
F1.0
sg15
I103
sg66
g67
sbsI185
g0
(g58
g2
Ntp80
Rp81
(dp82
g62
g63
sg64
F-2.2998982929590674
sg65
F1.0
sg15
I185
sg66
g67
sbssg15
I802
sS'fitness'
p83
F-100.27152884164425
sb.