ccopy_reg
_reconstructor
p0
(cneat.genome
DefaultGenome
p1
c__builtin__
object
p2
Ntp3
Rp4
(dp5
S'connections'
p6
(dp7
(I-2
I1
tp8
g0
(cneat.genes
DefaultConnectionGene
p9
g2
Ntp10
Rp11
(dp12
S'enabled'
p13
I01
sS'weight'
p14
F0.3918414045900127
sS'key'
p15
g8
sbs(I-1
I2
tp16
g0
(g9
g2
Ntp17
Rp18
(dp19
g13
I01
sg14
F1.3049958079911665
sg15
g16
sbs(I-1
I0
tp20
g0
(g9
g2
Ntp21
Rp22
(dp23
g13
I01
sg14
F-1.7143155735060378
sg15
g20
sbs(I-2
I3
tp24
g0
(g9
g2
Ntp25
Rp26
(dp27
g13
I01
sg14
F0.316938219905205
sg15
g24
sbs(I-2
I2
tp28
g0
(g9
g2
Ntp29
Rp30
(dp31
g13
I01
sg14
F-0.8959076610689966
sg15
g28
sbs(I-4
I95
tp32
g0
(g9
g2
Ntp33
Rp34
(dp35
g13
I01
sg14
F0.7729332936095851
sg15
g32
sbs(I-4
I2
tp36
g0
(g9
g2
Ntp37
Rp38
(dp39
g13
I01
sg14
F1.7352617143505902
sg15
g36
sbs(I-3
I2
tp40
g0
(g9
g2
Ntp41
Rp42
(dp43
g13
I00
sg14
F-0.905826116194818
sg15
g40
sbs(I31
I2
tp44
g0
(g9
g2
Ntp45
Rp46
(dp47
g13
I01
sg14
F-1.091560253112316
sg15
g44
sbs(I95
I2
tp48
g0
(g9
g2
Ntp49
Rp50
(dp51
g13
I01
sg14
F0.9745792544238183
sg15
g48
sbs(I-4
I1
tp52
g0
(g9
g2
Ntp53
Rp54
(dp55
g13
I01
sg14
F-1.040113033124451
sg15
g52
sbs(I95
I1
tp56
g0
(g9
g2
Ntp57
Rp58
(dp59
g13
I01
sg14
F0.336593448167153
sg15
g56
sbssS'nodes'
p60
(dp61
I0
g0
(cneat.genes
DefaultNodeGene
p62
g2
Ntp63
Rp64
(dp65
S'activation'
p66
S'sigmoid'
p67
sS'bias'
p68
F-0.9414464708633814
sS'response'
p69
F1.0
sg15
I0
sS'aggregation'
p70
S'sum'
p71
sbsI1
g0
(g62
g2
Ntp72
Rp73
(dp74
g66
g67
sg68
F-2.5026545785431304
sg69
F1.0
sg15
I1
sg70
g71
sbsI2
g0
(g62
g2
Ntp75
Rp76
(dp77
g66
g67
sg68
F1.2205631413223004
sg69
F1.0
sg15
I2
sg70
g71
sbsI3
g0
(g62
g2
Ntp78
Rp79
(dp80
g66
g67
sg68
F2.107165679854993
sg69
F1.0
sg15
I3
sg70
g71
sbsI31
g0
(g62
g2
Ntp81
Rp82
(dp83
g66
g67
sg68
F-1.257839416492101
sg69
F1.0
sg15
I31
sg70
g71
sbsI95
g0
(g62
g2
Ntp84
Rp85
(dp86
g66
g67
sg68
F-1.2697953578883632
sg69
F1.0
sg15
I95
sg70
g71
sbssg15
I421
sS'fitness'
p87
F-0.5999999999999996
sb.