ccopy_reg
_reconstructor
p0
(cneat.genome
DefaultGenome
p1
c__builtin__
object
p2
Ntp3
Rp4
(dp5
S'connections'
p6
(dp7
(I-2
I2
tp8
g0
(cneat.genes
DefaultConnectionGene
p9
g2
Ntp10
Rp11
(dp12
S'enabled'
p13
I01
sS'weight'
p14
F-1.3263542730263573
sS'key'
p15
g8
sbs(I39
I0
tp16
g0
(g9
g2
Ntp17
Rp18
(dp19
g13
I01
sg14
F-2.415352692417168
sg15
g16
sbs(I-2
I0
tp20
g0
(g9
g2
Ntp21
Rp22
(dp23
g13
I01
sg14
F-1.8544313835479864
sg15
g20
sbs(I26
I0
tp24
g0
(g9
g2
Ntp25
Rp26
(dp27
g13
I01
sg14
F1.1530035378216779
sg15
g24
sbs(I-1
I2
tp28
g0
(g9
g2
Ntp29
Rp30
(dp31
g13
I01
sg14
F0.4834156566672376
sg15
g28
sbs(I-3
I0
tp32
g0
(g9
g2
Ntp33
Rp34
(dp35
g13
I00
sg14
F-0.5142420011197569
sg15
g32
sbs(I-4
I3
tp36
g0
(g9
g2
Ntp37
Rp38
(dp39
g13
I01
sg14
F-0.7613932118793431
sg15
g36
sbs(I-4
I0
tp40
g0
(g9
g2
Ntp41
Rp42
(dp43
g13
I00
sg14
F1.400678218259268
sg15
g40
sbs(I-3
I3
tp44
g0
(g9
g2
Ntp45
Rp46
(dp47
g13
I01
sg14
F1.5127911417443247
sg15
g44
sbs(I-4
I39
tp48
g0
(g9
g2
Ntp49
Rp50
(dp51
g13
I01
sg14
F4.715161431898063
sg15
g48
sbs(I-3
I26
tp52
g0
(g9
g2
Ntp53
Rp54
(dp55
g13
I00
sg14
F-1.3147461982474316
sg15
g52
sbs(I2
I26
tp56
g0
(g9
g2
Ntp57
Rp58
(dp59
g13
I01
sg14
F0.650468485495721
sg15
g56
sbssS'nodes'
p60
(dp61
I0
g0
(cneat.genes
DefaultNodeGene
p62
g2
Ntp63
Rp64
(dp65
S'activation'
p66
S'sigmoid'
p67
sS'bias'
p68
F0.6280191984109441
sS'response'
p69
F1.0
sg15
I0
sS'aggregation'
p70
S'sum'
p71
sbsI1
g0
(g62
g2
Ntp72
Rp73
(dp74
g66
g67
sg68
F1.2437069918604609
sg69
F1.0
sg15
I1
sg70
g71
sbsI2
g0
(g62
g2
Ntp75
Rp76
(dp77
g66
g67
sg68
F-0.35863616511400515
sg69
F1.0
sg15
I2
sg70
g71
sbsI3
g0
(g62
g2
Ntp78
Rp79
(dp80
g66
g67
sg68
F-0.7999635622981075
sg69
F1.0
sg15
I3
sg70
g71
sbsI39
g0
(g62
g2
Ntp81
Rp82
(dp83
g66
g67
sg68
F-0.3275167504999934
sg69
F1.0
sg15
I39
sg70
g71
sbsI26
g0
(g62
g2
Ntp84
Rp85
(dp86
g66
g67
sg68
F-0.584421642523209
sg69
F1.0
sg15
I26
sg70
g71
sbssg15
I430
sS'fitness'
p87
F9.9
sb.