ccopy_reg
_reconstructor
p0
(cneat.genome
DefaultGenome
p1
c__builtin__
object
p2
Ntp3
Rp4
(dp5
S'connections'
p6
(dp7
(I25974
I28282
tp8
g0
(cneat.genes
DefaultConnectionGene
p9
g2
Ntp10
Rp11
(dp12
S'enabled'
p13
I01
sS'weight'
p14
F3.2159448395717116
sS'key'
p15
g8
sbs(I35384
I43677
tp16
g0
(g9
g2
Ntp17
Rp18
(dp19
g13
I00
sg14
F-2.1063631673846754
sg15
g16
sbs(I64187
I35384
tp20
g0
(g9
g2
Ntp21
Rp22
(dp23
g13
I01
sg14
F1.161726977266488
sg15
g20
sbs(I43743
I33619
tp24
g0
(g9
g2
Ntp25
Rp26
(dp27
g13
I01
sg14
F0.4894698728589038
sg15
g24
sbs(I-1
I41026
tp28
g0
(g9
g2
Ntp29
Rp30
(dp31
g13
I01
sg14
F-0.6030634495806355
sg15
g28
sbs(I0
I21714
tp32
g0
(g9
g2
Ntp33
Rp34
(dp35
g13
I01
sg14
F0.03991549436989865
sg15
g32
sbs(I44237
I58270
tp36
g0
(g9
g2
Ntp37
Rp38
(dp39
g13
I01
sg14
F-0.6808797472593412
sg15
g36
sbs(I20395
I28282
tp40
g0
(g9
g2
Ntp41
Rp42
(dp43
g13
I00
sg14
F-2.868067193420258
sg15
g40
sbs(I46230
I52520
tp44
g0
(g9
g2
Ntp45
Rp46
(dp47
g13
I00
sg14
F0.6886244207395514
sg15
g44
sbs(I47852
I20395
tp48
g0
(g9
g2
Ntp49
Rp50
(dp51
g13
I01
sg14
F2.1434010423021603
sg15
g48
sbs(I50710
I34822
tp52
g0
(g9
g2
Ntp53
Rp54
(dp55
g13
I01
sg14
F1.4561781520772432
sg15
g52
sbs(I21238
I20395
tp56
g0
(g9
g2
Ntp57
Rp58
(dp59
g13
I00
sg14
F3.085649383882625
sg15
g56
sbs(I24965
I28929
tp60
g0
(g9
g2
Ntp61
Rp62
(dp63
g13
I01
sg14
F-0.9402479053845261
sg15
g60
sbs(I37988
I45247
tp64
g0
(g9
g2
Ntp65
Rp66
(dp67
g13
I01
sg14
F-0.8298194787376445
sg15
g64
sbs(I28282
I32550
tp68
g0
(g9
g2
Ntp69
Rp70
(dp71
g13
I01
sg14
F-3.065819391018037
sg15
g68
sbs(I43743
I14560
tp72
g0
(g9
g2
Ntp73
Rp74
(dp75
g13
I01
sg14
F0.4341599102773404
sg15
g72
sbs(I2
I56445
tp76
g0
(g9
g2
Ntp77
Rp78
(dp79
g13
I01
sg14
F0.7703942292093993
sg15
g76
sbs(I51032
I45096
tp80
g0
(g9
g2
Ntp81
Rp82
(dp83
g13
I01
sg14
F0.6410721442730589
sg15
g80
sbs(I58389
I28282
tp84
g0
(g9
g2
Ntp85
Rp86
(dp87
g13
I01
sg14
F0.13510084297927163
sg15
g84
sbs(I20395
I48267
tp88
g0
(g9
g2
Ntp89
Rp90
(dp91
g13
I01
sg14
F3.010439769640939
sg15
g88
sbs(I1
I34349
tp92
g0
(g9
g2
Ntp93
Rp94
(dp95
g13
I00
sg14
F0.4200183893926809
sg15
g92
sbs(I30408
I14560
tp96
g0
(g9
g2
Ntp97
Rp98
(dp99
g13
I01
sg14
F0.44519268272657503
sg15
g96
sbs(I43677
I54692
tp100
g0
(g9
g2
Ntp101
Rp102
(dp103
g13
I01
sg14
F-0.4822300302402658
sg15
g100
sbs(I45247
I50767
tp104
g0
(g9
g2
Ntp105
Rp106
(dp107
g13
I01
sg14
F-0.1754375377762543
sg15
g104
sbs(I0
I64070
tp108
g0
(g9
g2
Ntp109
Rp110
(dp111
g13
I01
sg14
F-0.6398381561055864
sg15
g108
sbs(I0
I43743
tp112
g0
(g9
g2
Ntp113
Rp114
(dp115
g13
I00
sg14
F-1.0112147793449742
sg15
g112
sbs(I58015
I44798
tp116
g0
(g9
g2
Ntp117
Rp118
(dp119
g13
I00
sg14
F-1.6123023817800015
sg15
g116
sbs(I48756
I31588
tp120
g0
(g9
g2
Ntp121
Rp122
(dp123
g13
I00
sg14
F-3.7824305663152726
sg15
g120
sbs(I41657
I57206
tp124
g0
(g9
g2
Ntp125
Rp126
(dp127
g13
I00
sg14
F-0.15038169120613143
sg15
g124
sbs(I45247
I28929
tp128
g0
(g9
g2
Ntp129
Rp130
(dp131
g13
I00
sg14
F0.33327603164805725
sg15
g128
sbs(I35751
I44323
tp132
g0
(g9
g2
Ntp133
Rp134
(dp135
g13
I01
sg14
F1.9391893174483545
sg15
g132
sbs(I53886
I30658
tp136
g0
(g9
g2
Ntp137
Rp138
(dp139
g13
I01
sg14
F-0.0813396672329369
sg15
g136
sbs(I44558
I45439
tp140
g0
(g9
g2
Ntp141
Rp142
(dp143
g13
I00
sg14
F0.2511055416522073
sg15
g140
sbs(I57322
I28929
tp144
g0
(g9
g2
Ntp145
Rp146
(dp147
g13
I01
sg14
F0.013687425705871448
sg15
g144
sbs(I49608
I55212
tp148
g0
(g9
g2
Ntp149
Rp150
(dp151
g13
I01
sg14
F-1.7097362937719442
sg15
g148
sbs(I25974
I47323
tp152
g0
(g9
g2
Ntp153
Rp154
(dp155
g13
I00
sg14
F2.3948491899553113
sg15
g152
sbs(I63567
I44478
tp156
g0
(g9
g2
Ntp157
Rp158
(dp159
g13
I01
sg14
F-0.6778528689350352
sg15
g156
sbs(I41657
I38956
tp160
g0
(g9
g2
Ntp161
Rp162
(dp163
g13
I00
sg14
F-1.9148485462329705
sg15
g160
sbs(I10666
I35384
tp164
g0
(g9
g2
Ntp165
Rp166
(dp167
g13
I01
sg14
F2.6160124350351195
sg15
g164
sbs(I17782
I58658
tp168
g0
(g9
g2
Ntp169
Rp170
(dp171
g13
I00
sg14
F1.7161468808013112
sg15
g168
sbs(I46230
I62501
tp172
g0
(g9
g2
Ntp173
Rp174
(dp175
g13
I01
sg14
F-0.4129365486356388
sg15
g172
sbs(I1
I49253
tp176
g0
(g9
g2
Ntp177
Rp178
(dp179
g13
I01
sg14
F0.35112509551008175
sg15
g176
sbs(I1
I35751
tp180
g0
(g9
g2
Ntp181
Rp182
(dp183
g13
I01
sg14
F2.812476340422881
sg15
g180
sbs(I50488
I39425
tp184
g0
(g9
g2
Ntp185
Rp186
(dp187
g13
I01
sg14
F3.1503035106954425
sg15
g184
sbs(I43743
I62805
tp188
g0
(g9
g2
Ntp189
Rp190
(dp191
g13
I01
sg14
F0.4977842954471715
sg15
g188
sbs(I37409
I30905
tp192
g0
(g9
g2
Ntp193
Rp194
(dp195
g13
I01
sg14
F-3.6202941730023923
sg15
g192
sbs(I38617
I45439
tp196
g0
(g9
g2
Ntp197
Rp198
(dp199
g13
I01
sg14
F-4.580750810214308
sg15
g196
sbs(I60694
I46230
tp200
g0
(g9
g2
Ntp201
Rp202
(dp203
g13
I01
sg14
F0.8567318853019106
sg15
g200
sbs(I23959
I35751
tp204
g0
(g9
g2
Ntp205
Rp206
(dp207
g13
I00
sg14
F5.247975862528569
sg15
g204
sbs(I49675
I62071
tp208
g0
(g9
g2
Ntp209
Rp210
(dp211
g13
I01
sg14
F-0.8631505210424711
sg15
g208
sbs(I43677
I53196
tp212
g0
(g9
g2
Ntp213
Rp214
(dp215
g13
I01
sg14
F-0.6524837389322478
sg15
g212
sbs(I31588
I58841
tp216
g0
(g9
g2
Ntp217
Rp218
(dp219
g13
I01
sg14
F-0.32866425809760946
sg15
g216
sbs(I61435
I52520
tp220
g0
(g9
g2
Ntp221
Rp222
(dp223
g13
I00
sg14
F-0.4477697490523523
sg15
g220
sbs(I54783
I52291
tp224
g0
(g9
g2
Ntp225
Rp226
(dp227
g13
I01
sg14
F-1.4030894075515083
sg15
g224
sbs(I54783
I56511
tp228
g0
(g9
g2
Ntp229
Rp230
(dp231
g13
I00
sg14
F-0.4443254314343178
sg15
g228
sbs(I35662
I17782
tp232
g0
(g9
g2
Ntp233
Rp234
(dp235
g13
I01
sg14
F-0.39817931828507197
sg15
g232
sbs(I55504
I48267
tp236
g0
(g9
g2
Ntp237
Rp238
(dp239
g13
I01
sg14
F1.3066088970079164
sg15
g236
sbs(I41026
I34822
tp240
g0
(g9
g2
Ntp241
Rp242
(dp243
g13
I01
sg14
F-2.942895065790188
sg15
g240
sbs(I11181
I34349
tp244
g0
(g9
g2
Ntp245
Rp246
(dp247
g13
I00
sg14
F0.5733436275301224
sg15
g244
sbs(I56200
I38956
tp248
g0
(g9
g2
Ntp249
Rp250
(dp251
g13
I01
sg14
F-1.0242114095287804
sg15
g248
sbs(I50710
I55212
tp252
g0
(g9
g2
Ntp253
Rp254
(dp255
g13
I01
sg14
F-2.891736286332704
sg15
g252
sbs(I43677
I42228
tp256
g0
(g9
g2
Ntp257
Rp258
(dp259
g13
I01
sg14
F0.6040578335539013
sg15
g256
sbs(I13268
I30408
tp260
g0
(g9
g2
Ntp261
Rp262
(dp263
g13
I01
sg14
F-0.8526500480943244
sg15
g260
sbs(I37881
I64070
tp264
g0
(g9
g2
Ntp265
Rp266
(dp267
g13
I01
sg14
F0.19652871049000206
sg15
g264
sbs(I21238
I56974
tp268
g0
(g9
g2
Ntp269
Rp270
(dp271
g13
I00
sg14
F0.19485724310448044
sg15
g268
sbs(I0
I20395
tp272
g0
(g9
g2
Ntp273
Rp274
(dp275
g13
I01
sg14
F0.30398446597012824
sg15
g272
sbs(I32004
I35384
tp276
g0
(g9
g2
Ntp277
Rp278
(dp279
g13
I00
sg14
F-3.0763046392576565
sg15
g276
sbs(I2
I51032
tp280
g0
(g9
g2
Ntp281
Rp282
(dp283
g13
I00
sg14
F-0.8079367220233693
sg15
g280
sbs(I17782
I45439
tp284
g0
(g9
g2
Ntp285
Rp286
(dp287
g13
I00
sg14
F0.1971560789049826
sg15
g284
sbs(I53596
I44478
tp288
g0
(g9
g2
Ntp289
Rp290
(dp291
g13
I00
sg14
F-0.17046864259647998
sg15
g288
sbs(I44237
I44183
tp292
g0
(g9
g2
Ntp293
Rp294
(dp295
g13
I00
sg14
F-0.6402086949963748
sg15
g292
sbs(I61190
I30408
tp296
g0
(g9
g2
Ntp297
Rp298
(dp299
g13
I01
sg14
F-2.7646149345470596
sg15
g296
sbs(I50973
I28929
tp300
g0
(g9
g2
Ntp301
Rp302
(dp303
g13
I01
sg14
F2.0327510030511324
sg15
g300
sbs(I-1
I52291
tp304
g0
(g9
g2
Ntp305
Rp306
(dp307
g13
I00
sg14
F-1.2994408291853525
sg15
g304
sbs(I59946
I44237
tp308
g0
(g9
g2
Ntp309
Rp310
(dp311
g13
I01
sg14
F0.6140988198378232
sg15
g308
sbs(I53596
I63567
tp312
g0
(g9
g2
Ntp313
Rp314
(dp315
g13
I01
sg14
F-0.741291294172534
sg15
g312
sbs(I42228
I14560
tp316
g0
(g9
g2
Ntp317
Rp318
(dp319
g13
I01
sg14
F0.3716857329830334
sg15
g316
sbs(I62931
I35384
tp320
g0
(g9
g2
Ntp321
Rp322
(dp323
g13
I01
sg14
F0.7963129506025408
sg15
g320
sbs(I32550
I31063
tp324
g0
(g9
g2
Ntp325
Rp326
(dp327
g13
I01
sg14
F-0.1246141238212333
sg15
g324
sbs(I2
I58841
tp328
g0
(g9
g2
Ntp329
Rp330
(dp331
g13
I01
sg14
F-2.4675854049057073
sg15
g328
sbs(I54783
I63988
tp332
g0
(g9
g2
Ntp333
Rp334
(dp335
g13
I01
sg14
F2.062575958264304
sg15
g332
sbs(I35751
I55504
tp336
g0
(g9
g2
Ntp337
Rp338
(dp339
g13
I00
sg14
F-1.8119104905243268
sg15
g336
sbs(I41657
I56200
tp340
g0
(g9
g2
Ntp341
Rp342
(dp343
g13
I00
sg14
F2.373819150654867
sg15
g340
sbs(I0
I50973
tp344
g0
(g9
g2
Ntp345
Rp346
(dp347
g13
I00
sg14
F-1.3141973652590413
sg15
g344
sbs(I40465
I53073
tp348
g0
(g9
g2
Ntp349
Rp350
(dp351
g13
I01
sg14
F-0.14247862238339273
sg15
g348
sbs(I33013
I50488
tp352
g0
(g9
g2
Ntp353
Rp354
(dp355
g13
I00
sg14
F-1.8946456006056036
sg15
g352
sbs(I49780
I23959
tp356
g0
(g9
g2
Ntp357
Rp358
(dp359
g13
I01
sg14
F0.4796673405645929
sg15
g356
sbs(I-2
I28282
tp360
g0
(g9
g2
Ntp361
Rp362
(dp363
g13
I01
sg14
F-0.44491321665023964
sg15
g360
sbs(I58015
I62056
tp364
g0
(g9
g2
Ntp365
Rp366
(dp367
g13
I00
sg14
F-1.7924017862993424
sg15
g364
sbs(I62272
I28282
tp368
g0
(g9
g2
Ntp369
Rp370
(dp371
g13
I00
sg14
F0.7415459908512831
sg15
g368
sbs(I2
I21714
tp372
g0
(g9
g2
Ntp373
Rp374
(dp375
g13
I00
sg14
F1.0425010666842955
sg15
g372
sbs(I-2
I64739
tp376
g0
(g9
g2
Ntp377
Rp378
(dp379
g13
I01
sg14
F1.5806701174299753
sg15
g376
sbs(I58886
I47977
tp380
g0
(g9
g2
Ntp381
Rp382
(dp383
g13
I01
sg14
F0.8280067871501018
sg15
g380
sbs(I21714
I53073
tp384
g0
(g9
g2
Ntp385
Rp386
(dp387
g13
I01
sg14
F2.0178755487898075
sg15
g384
sbs(I-1
I40465
tp388
g0
(g9
g2
Ntp389
Rp390
(dp391
g13
I00
sg14
F0.2361313066136657
sg15
g388
sbs(I54783
I50488
tp392
g0
(g9
g2
Ntp393
Rp394
(dp395
g13
I00
sg14
F-1.3419149647469442
sg15
g392
sbs(I57841
I44237
tp396
g0
(g9
g2
Ntp397
Rp398
(dp399
g13
I01
sg14
F0.5943114288724737
sg15
g396
sbs(I25974
I53596
tp400
g0
(g9
g2
Ntp401
Rp402
(dp403
g13
I00
sg14
F1.583901358765007
sg15
g400
sbs(I37409
I14560
tp404
g0
(g9
g2
Ntp405
Rp406
(dp407
g13
I00
sg14
F2.6103978909010803
sg15
g404
sbs(I10666
I30658
tp408
g0
(g9
g2
Ntp409
Rp410
(dp411
g13
I01
sg14
F-1.0348268213800917
sg15
g408
sbs(I64409
I56445
tp412
g0
(g9
g2
Ntp413
Rp414
(dp415
g13
I01
sg14
F-1.018237775266146
sg15
g412
sbs(I53519
I17782
tp416
g0
(g9
g2
Ntp417
Rp418
(dp419
g13
I01
sg14
F-1.076447032992905
sg15
g416
sbs(I11181
I2
tp420
g0
(g9
g2
Ntp421
Rp422
(dp423
g13
I00
sg14
F0.7545358531726412
sg15
g420
sbs(I41026
I45247
tp424
g0
(g9
g2
Ntp425
Rp426
(dp427
g13
I01
sg14
F-1.5272618272407248
sg15
g424
sbs(I-3
I10666
tp428
g0
(g9
g2
Ntp429
Rp430
(dp431
g13
I00
sg14
F0.13339726564581367
sg15
g428
sbs(I32004
I64187
tp432
g0
(g9
g2
Ntp433
Rp434
(dp435
g13
I01
sg14
F-0.13789207599548411
sg15
g432
sbs(I0
I47852
tp436
g0
(g9
g2
Ntp437
Rp438
(dp439
g13
I01
sg14
F-0.3689830836671062
sg15
g436
sbs(I24965
I33013
tp440
g0
(g9
g2
Ntp441
Rp442
(dp443
g13
I01
sg14
F-0.47658094105448223
sg15
g440
sbs(I54783
I60194
tp444
g0
(g9
g2
Ntp445
Rp446
(dp447
g13
I00
sg14
F0.4034334114460396
sg15
g444
sbs(I57240
I44353
tp448
g0
(g9
g2
Ntp449
Rp450
(dp451
g13
I00
sg14
F1.17228719752519
sg15
g448
sbs(I54692
I43743
tp452
g0
(g9
g2
Ntp453
Rp454
(dp455
g13
I01
sg14
F-2.1159774135313514
sg15
g452
sbs(I-1
I56231
tp456
g0
(g9
g2
Ntp457
Rp458
(dp459
g13
I00
sg14
F-2.157601605676016
sg15
g456
sbs(I0
I33619
tp460
g0
(g9
g2
Ntp461
Rp462
(dp463
g13
I01
sg14
F0.5703160136103816
sg15
g460
sbs(I45096
I21714
tp464
g0
(g9
g2
Ntp465
Rp466
(dp467
g13
I00
sg14
F5.118898026278607
sg15
g464
sbs(I19348
I48692
tp468
g0
(g9
g2
Ntp469
Rp470
(dp471
g13
I00
sg14
F-0.2518627804380589
sg15
g468
sbs(I28282
I50973
tp472
g0
(g9
g2
Ntp473
Rp474
(dp475
g13
I00
sg14
F-1.2811719611078596
sg15
g472
sbs(I43031
I53886
tp476
g0
(g9
g2
Ntp477
Rp478
(dp479
g13
I01
sg14
F-1.2396170534528037
sg15
g476
sbs(I24493
I55504
tp480
g0
(g9
g2
Ntp481
Rp482
(dp483
g13
I01
sg14
F-0.754730772255781
sg15
g480
sbs(I30408
I58270
tp484
g0
(g9
g2
Ntp485
Rp486
(dp487
g13
I00
sg14
F0.41498332550174344
sg15
g484
sbs(I28282
I53886
tp488
g0
(g9
g2
Ntp489
Rp490
(dp491
g13
I01
sg14
F0.4705410866143379
sg15
g488
sbs(I43677
I62349
tp492
g0
(g9
g2
Ntp493
Rp494
(dp495
g13
I01
sg14
F-0.8310362150937841
sg15
g492
sbs(I42161
I11181
tp496
g0
(g9
g2
Ntp497
Rp498
(dp499
g13
I00
sg14
F0.47558683018205156
sg15
g496
sbs(I64739
I28282
tp500
g0
(g9
g2
Ntp501
Rp502
(dp503
g13
I01
sg14
F-0.7042458779547992
sg15
g500
sbs(I25974
I49780
tp504
g0
(g9
g2
Ntp505
Rp506
(dp507
g13
I01
sg14
F1.2769222976135577
sg15
g504
sbs(I45439
I52520
tp508
g0
(g9
g2
Ntp509
Rp510
(dp511
g13
I00
sg14
F0.9404320977013166
sg15
g508
sbs(I0
I58534
tp512
g0
(g9
g2
Ntp513
Rp514
(dp515
g13
I01
sg14
F-2.5451815009913266
sg15
g512
sbs(I45439
I61435
tp516
g0
(g9
g2
Ntp517
Rp518
(dp519
g13
I01
sg14
F-1.2750587560258904
sg15
g516
sbs(I49675
I58015
tp520
g0
(g9
g2
Ntp521
Rp522
(dp523
g13
I01
sg14
F-2.5353624839187106
sg15
g520
sbs(I48132
I50767
tp524
g0
(g9
g2
Ntp525
Rp526
(dp527
g13
I00
sg14
F-0.22001547524865606
sg15
g524
sbs(I35751
I56100
tp528
g0
(g9
g2
Ntp529
Rp530
(dp531
g13
I00
sg14
F1.7408911474991466
sg15
g528
sbs(I48267
I28282
tp532
g0
(g9
g2
Ntp533
Rp534
(dp535
g13
I00
sg14
F-0.7986868696250105
sg15
g532
sbs(I56511
I51032
tp536
g0
(g9
g2
Ntp537
Rp538
(dp539
g13
I00
sg14
F0.19823398342187853
sg15
g536
sbs(I13268
I61190
tp540
g0
(g9
g2
Ntp541
Rp542
(dp543
g13
I01
sg14
F1.8596092446134045
sg15
g540
sbs(I53596
I47323
tp544
g0
(g9
g2
Ntp545
Rp546
(dp547
g13
I01
sg14
F-0.7186030014450115
sg15
g544
sbs(I56974
I32004
tp548
g0
(g9
g2
Ntp549
Rp550
(dp551
g13
I01
sg14
F-1.5823427558055423
sg15
g548
sbs(I35751
I48267
tp552
g0
(g9
g2
Ntp553
Rp554
(dp555
g13
I01
sg14
F4.090089560641291
sg15
g552
sbs(I48756
I38617
tp556
g0
(g9
g2
Ntp557
Rp558
(dp559
g13
I01
sg14
F-0.06233573042815216
sg15
g556
sbs(I53073
I35662
tp560
g0
(g9
g2
Ntp561
Rp562
(dp563
g13
I01
sg14
F-0.006880707314243284
sg15
g560
sbs(I25974
I48756
tp564
g0
(g9
g2
Ntp565
Rp566
(dp567
g13
I01
sg14
F-1.5888174030925242
sg15
g564
sbs(I2
I47098
tp568
g0
(g9
g2
Ntp569
Rp570
(dp571
g13
I01
sg14
F-0.09440386668103094
sg15
g568
sbs(I47852
I30658
tp572
g0
(g9
g2
Ntp573
Rp574
(dp575
g13
I01
sg14
F-2.0149108462587186
sg15
g572
sbs(I30408
I44323
tp576
g0
(g9
g2
Ntp577
Rp578
(dp579
g13
I00
sg14
F-0.9535602686381524
sg15
g576
sbs(I53196
I42228
tp580
g0
(g9
g2
Ntp581
Rp582
(dp583
g13
I01
sg14
F0.23299676506901246
sg15
g580
sbs(I44558
I61525
tp584
g0
(g9
g2
Ntp585
Rp586
(dp587
g13
I00
sg14
F0.04102767241465532
sg15
g584
sbs(I35751
I38956
tp588
g0
(g9
g2
Ntp589
Rp590
(dp591
g13
I00
sg14
F-2.7233000981152005
sg15
g588
sbs(I44353
I44237
tp592
g0
(g9
g2
Ntp593
Rp594
(dp595
g13
I01
sg14
F1.2966782371504995
sg15
g592
sbs(I17782
I19002
tp596
g0
(g9
g2
Ntp597
Rp598
(dp599
g13
I00
sg14
F-1.23976802958772
sg15
g596
sbs(I50767
I28929
tp600
g0
(g9
g2
Ntp601
Rp602
(dp603
g13
I00
sg14
F-0.8921269750338284
sg15
g600
sbs(I62056
I44798
tp604
g0
(g9
g2
Ntp605
Rp606
(dp607
g13
I00
sg14
F2.123636846063646
sg15
g604
sbs(I35662
I30658
tp608
g0
(g9
g2
Ntp609
Rp610
(dp611
g13
I01
sg14
F-0.9307417546501331
sg15
g608
sbs(I49608
I59570
tp612
g0
(g9
g2
Ntp613
Rp614
(dp615
g13
I01
sg14
F-0.43538442883950906
sg15
g612
sbs(I62805
I58886
tp616
g0
(g9
g2
Ntp617
Rp618
(dp619
g13
I01
sg14
F0.22371911478738427
sg15
g616
sbs(I37409
I1
tp620
g0
(g9
g2
Ntp621
Rp622
(dp623
g13
I01
sg14
F-1.7417922453138432
sg15
g620
sbs(I-4
I50488
tp624
g0
(g9
g2
Ntp625
Rp626
(dp627
g13
I01
sg14
F-0.32248314028276515
sg15
g624
sbs(I24965
I45247
tp628
g0
(g9
g2
Ntp629
Rp630
(dp631
g13
I00
sg14
F1.6067336551151683
sg15
g628
sbs(I41657
I44478
tp632
g0
(g9
g2
Ntp633
Rp634
(dp635
g13
I00
sg14
F-2.9664363476633455
sg15
g632
sbs(I32004
I62931
tp636
g0
(g9
g2
Ntp637
Rp638
(dp639
g13
I01
sg14
F2.4399656902768125
sg15
g636
sbs(I20395
I49253
tp640
g0
(g9
g2
Ntp641
Rp642
(dp643
g13
I00
sg14
F-0.5616466850210315
sg15
g640
sbs(I58270
I44323
tp644
g0
(g9
g2
Ntp645
Rp646
(dp647
g13
I01
sg14
F-1.3925838906993404
sg15
g644
sbs(I2
I45096
tp648
g0
(g9
g2
Ntp649
Rp650
(dp651
g13
I00
sg14
F-2.5933079179068974
sg15
g648
sbs(I43743
I47977
tp652
g0
(g9
g2
Ntp653
Rp654
(dp655
g13
I00
sg14
F0.5609833040760166
sg15
g652
sbs(I64070
I43743
tp656
g0
(g9
g2
Ntp657
Rp658
(dp659
g13
I00
sg14
F1.4275156144664525
sg15
g656
sbs(I46230
I54153
tp660
g0
(g9
g2
Ntp661
Rp662
(dp663
g13
I01
sg14
F-1.2548899256645873
sg15
g660
sbs(I-1
I20395
tp664
g0
(g9
g2
Ntp665
Rp666
(dp667
g13
I00
sg14
F-0.07476400005622572
sg15
g664
sbs(I56974
I0
tp668
g0
(g9
g2
Ntp669
Rp670
(dp671
g13
I00
sg14
F6.405603765299675
sg15
g668
sbs(I37988
I38956
tp672
g0
(g9
g2
Ntp673
Rp674
(dp675
g13
I01
sg14
F-0.931442032944005
sg15
g672
sbs(I53685
I59946
tp676
g0
(g9
g2
Ntp677
Rp678
(dp679
g13
I00
sg14
F1.4855380117417352
sg15
g676
sbs(I50710
I63334
tp680
g0
(g9
g2
Ntp681
Rp682
(dp683
g13
I01
sg14
F1.4818337044248688
sg15
g680
sbs(I49608
I34822
tp684
g0
(g9
g2
Ntp685
Rp686
(dp687
g13
I01
sg14
F0.28504428789926506
sg15
g684
sbs(I44183
I50767
tp688
g0
(g9
g2
Ntp689
Rp690
(dp691
g13
I01
sg14
F-0.8864812057630023
sg15
g688
sbs(I56231
I40465
tp692
g0
(g9
g2
Ntp693
Rp694
(dp695
g13
I01
sg14
F-1.0475308580723601
sg15
g692
sbs(I25974
I62272
tp696
g0
(g9
g2
Ntp697
Rp698
(dp699
g13
I00
sg14
F-0.6660945680924002
sg15
g696
sbs(I35384
I19348
tp700
g0
(g9
g2
Ntp701
Rp702
(dp703
g13
I01
sg14
F2.4802908410168722
sg15
g700
sbs(I25974
I38617
tp704
g0
(g9
g2
Ntp705
Rp706
(dp707
g13
I00
sg14
F-1.3811738025427625
sg15
g704
sbs(I41657
I33619
tp708
g0
(g9
g2
Ntp709
Rp710
(dp711
g13
I01
sg14
F-0.5437582174379753
sg15
g708
sbs(I52291
I41026
tp712
g0
(g9
g2
Ntp713
Rp714
(dp715
g13
I01
sg14
F-1.482355865249943
sg15
g712
sbs(I10666
I20395
tp716
g0
(g9
g2
Ntp717
Rp718
(dp719
g13
I00
sg14
F1.6099231032709977
sg15
g716
sbs(I37988
I44183
tp720
g0
(g9
g2
Ntp721
Rp722
(dp723
g13
I00
sg14
F-0.9199981548407283
sg15
g720
sbs(I60694
I59570
tp724
g0
(g9
g2
Ntp725
Rp726
(dp727
g13
I01
sg14
F-0.23487040971072132
sg15
g724
sbs(I56511
I50488
tp728
g0
(g9
g2
Ntp729
Rp730
(dp731
g13
I01
sg14
F2.6442624094653713
sg15
g728
sbs(I58015
I62615
tp732
g0
(g9
g2
Ntp733
Rp734
(dp735
g13
I01
sg14
F0.5020649223115485
sg15
g732
sbs(I60194
I50488
tp736
g0
(g9
g2
Ntp737
Rp738
(dp739
g13
I00
sg14
F1.294911850206934
sg15
g736
sbs(I2
I50464
tp740
g0
(g9
g2
Ntp741
Rp742
(dp743
g13
I00
sg14
F1.0334589541104184
sg15
g740
sbs(I2
I46106
tp744
g0
(g9
g2
Ntp745
Rp746
(dp747
g13
I00
sg14
F1.4309744077477422
sg15
g744
sbs(I44353
I41026
tp748
g0
(g9
g2
Ntp749
Rp750
(dp751
g13
I00
sg14
F-0.2583610894003033
sg15
g748
sbs(I50488
I36285
tp752
g0
(g9
g2
Ntp753
Rp754
(dp755
g13
I00
sg14
F3.6716709241407686
sg15
g752
sbs(I47852
I57120
tp756
g0
(g9
g2
Ntp757
Rp758
(dp759
g13
I00
sg14
F0.9035707809419251
sg15
g756
sbs(I62349
I54692
tp760
g0
(g9
g2
Ntp761
Rp762
(dp763
g13
I01
sg14
F-1.5333616576969455
sg15
g760
sbs(I30905
I44798
tp764
g0
(g9
g2
Ntp765
Rp766
(dp767
g13
I00
sg14
F-2.430389329123345
sg15
g764
sbs(I23959
I3
tp768
g0
(g9
g2
Ntp769
Rp770
(dp771
g13
I00
sg14
F-0.13151847647839282
sg15
g768
sbs(I3
I18884
tp772
g0
(g9
g2
Ntp773
Rp774
(dp775
g13
I00
sg14
F-1.631663511778002
sg15
g772
sbs(I62071
I28929
tp776
g0
(g9
g2
Ntp777
Rp778
(dp779
g13
I00
sg14
F-0.7578128332419543
sg15
g776
sbs(I10666
I31063
tp780
g0
(g9
g2
Ntp781
Rp782
(dp783
g13
I00
sg14
F-2.1985151711201976
sg15
g780
sbs(I21238
I0
tp784
g0
(g9
g2
Ntp785
Rp786
(dp787
g13
I01
sg14
F0.7630034174167314
sg15
g784
sbs(I-2
I48132
tp788
g0
(g9
g2
Ntp789
Rp790
(dp791
g13
I00
sg14
F1.1048273207972823
sg15
g788
sbs(I35751
I58015
tp792
g0
(g9
g2
Ntp793
Rp794
(dp795
g13
I01
sg14
F0.48730325542021075
sg15
g792
sbs(I62615
I62056
tp796
g0
(g9
g2
Ntp797
Rp798
(dp799
g13
I01
sg14
F-0.4502147198988039
sg15
g796
sbs(I43743
I58886
tp800
g0
(g9
g2
Ntp801
Rp802
(dp803
g13
I01
sg14
F-1.1664768575687963
sg15
g800
sbs(I46230
I58841
tp804
g0
(g9
g2
Ntp805
Rp806
(dp807
g13
I00
sg14
F1.7562755346046877
sg15
g804
sbs(I30408
I38956
tp808
g0
(g9
g2
Ntp809
Rp810
(dp811
g13
I00
sg14
F-0.9588838295048683
sg15
g808
sbs(I58658
I45439
tp812
g0
(g9
g2
Ntp813
Rp814
(dp815
g13
I00
sg14
F-1.168782635225273
sg15
g812
sbs(I53073
I14560
tp816
g0
(g9
g2
Ntp817
Rp818
(dp819
g13
I00
sg14
F-0.6868702633499879
sg15
g816
sbs(I43925
I30658
tp820
g0
(g9
g2
Ntp821
Rp822
(dp823
g13
I01
sg14
F1.7660717211951948
sg15
g820
sbs(I55212
I34822
tp824
g0
(g9
g2
Ntp825
Rp826
(dp827
g13
I01
sg14
F2.3189685045536708
sg15
g824
sbs(I56445
I21714
tp828
g0
(g9
g2
Ntp829
Rp830
(dp831
g13
I01
sg14
F-2.3862289696058574
sg15
g828
sbs(I61525
I45439
tp832
g0
(g9
g2
Ntp833
Rp834
(dp835
g13
I01
sg14
F4.0752827877131095
sg15
g832
sbs(I53685
I57841
tp836
g0
(g9
g2
Ntp837
Rp838
(dp839
g13
I00
sg14
F0.07497530425193422
sg15
g836
sbs(I3
I46230
tp840
g0
(g9
g2
Ntp841
Rp842
(dp843
g13
I01
sg14
F-1.0614474901129463
sg15
g840
sbs(I25974
I32550
tp844
g0
(g9
g2
Ntp845
Rp846
(dp847
g13
I00
sg14
F0.562247294593321
sg15
g844
sbs(I30408
I53073
tp848
g0
(g9
g2
Ntp849
Rp850
(dp851
g13
I01
sg14
F-1.3402279703235527
sg15
g848
sbs(I53886
I21714
tp852
g0
(g9
g2
Ntp853
Rp854
(dp855
g13
I01
sg14
F0.5374169535955642
sg15
g852
sbs(I47098
I24493
tp856
g0
(g9
g2
Ntp857
Rp858
(dp859
g13
I01
sg14
F1.2390265507444935
sg15
g856
sbs(I47254
I1
tp860
g0
(g9
g2
Ntp861
Rp862
(dp863
g13
I01
sg14
F-0.2773076088222346
sg15
g860
sbs(I0
I42296
tp864
g0
(g9
g2
Ntp865
Rp866
(dp867
g13
I01
sg14
F-1.4564236321182542
sg15
g864
sbs(I42161
I32550
tp868
g0
(g9
g2
Ntp869
Rp870
(dp871
g13
I01
sg14
F-2.3460528837375687
sg15
g868
sbs(I59570
I55212
tp872
g0
(g9
g2
Ntp873
Rp874
(dp875
g13
I01
sg14
F0.15331222106824005
sg15
g872
sbs(I3
I60694
tp876
g0
(g9
g2
Ntp877
Rp878
(dp879
g13
I01
sg14
F2.4475476902093174
sg15
g876
sbs(I63334
I34822
tp880
g0
(g9
g2
Ntp881
Rp882
(dp883
g13
I01
sg14
F0.34889219433974694
sg15
g880
sbs(I37409
I34349
tp884
g0
(g9
g2
Ntp885
Rp886
(dp887
g13
I00
sg14
F1.6272102871670135
sg15
g884
sbs(I37881
I17782
tp888
g0
(g9
g2
Ntp889
Rp890
(dp891
g13
I01
sg14
F-0.6101312298039907
sg15
g888
sbs(I63988
I50488
tp892
g0
(g9
g2
Ntp893
Rp894
(dp895
g13
I01
sg14
F-1.2601088082646323
sg15
g892
sbs(I58720
I34349
tp896
g0
(g9
g2
Ntp897
Rp898
(dp899
g13
I00
sg14
F-1.0168362623558274
sg15
g896
sbs(I43031
I30658
tp900
g0
(g9
g2
Ntp901
Rp902
(dp903
g13
I01
sg14
F-2.1476024677982704
sg15
g900
sbs(I57120
I20395
tp904
g0
(g9
g2
Ntp905
Rp906
(dp907
g13
I01
sg14
F0.46882810472806125
sg15
g904
sbs(I54692
I53196
tp908
g0
(g9
g2
Ntp909
Rp910
(dp911
g13
I00
sg14
F1.4893301188712178
sg15
g908
sbs(I37881
I1
tp912
g0
(g9
g2
Ntp913
Rp914
(dp915
g13
I00
sg14
F0.19677011239788392
sg15
g912
sbs(I2
I64409
tp916
g0
(g9
g2
Ntp917
Rp918
(dp919
g13
I01
sg14
F3.806104950757284
sg15
g916
sbs(I20395
I58389
tp920
g0
(g9
g2
Ntp921
Rp922
(dp923
g13
I00
sg14
F2.078178466575088
sg15
g920
sbs(I58015
I44323
tp924
g0
(g9
g2
Ntp925
Rp926
(dp927
g13
I01
sg14
F0.9802632408464594
sg15
g924
sbs(I53685
I44237
tp928
g0
(g9
g2
Ntp929
Rp930
(dp931
g13
I01
sg14
F-1.1672123770256504
sg15
g928
sbs(I32550
I24965
tp932
g0
(g9
g2
Ntp933
Rp934
(dp935
g13
I00
sg14
F-1.5577997905828687
sg15
g932
sbssS'nodes'
p936
(dp937
I0
g0
(cneat.genes
DefaultNodeGene
p938
g2
Ntp939
Rp940
(dp941
S'activation'
p942
S'sigmoid'
p943
sS'bias'
p944
F0.30910175663006245
sS'response'
p945
F1.0
sg15
I0
sS'aggregation'
p946
S'sum'
p947
sbsI1
g0
(g938
g2
Ntp948
Rp949
(dp950
g942
g943
sg944
F-3.5384053013598225
sg945
F1.0
sg15
I1
sg946
g947
sbsI2
g0
(g938
g2
Ntp951
Rp952
(dp953
g942
g943
sg944
F-0.4536282599909218
sg945
F1.0
sg15
I2
sg946
g947
sbsI3
g0
(g938
g2
Ntp954
Rp955
(dp956
g942
g943
sg944
F3.572775469039699
sg945
F1.0
sg15
I3
sg946
g947
sbsI48132
g0
(g938
g2
Ntp957
Rp958
(dp959
g942
g943
sg944
F1.492598168560171
sg945
F1.0
sg15
I48132
sg946
g947
sbsI34822
g0
(g938
g2
Ntp960
Rp961
(dp962
g942
g943
sg944
F2.501448699782977
sg945
F1.0
sg15
I34822
sg946
g947
sbsI39425
g0
(g938
g2
Ntp963
Rp964
(dp965
g942
g943
sg944
F-0.5415026677463428
sg945
F1.0
sg15
I39425
sg946
g947
sbsI49675
g0
(g938
g2
Ntp966
Rp967
(dp968
g942
g943
sg944
F0.7759954371902663
sg945
F1.0
sg15
I49675
sg946
g947
sbsI44558
g0
(g938
g2
Ntp969
Rp970
(dp971
g942
g943
sg944
F-1.8768010538309186
sg945
F1.0
sg15
I44558
sg946
g947
sbsI11181
g0
(g938
g2
Ntp972
Rp973
(dp974
g942
g943
sg944
F1.124038526952514
sg945
F1.0
sg15
I11181
sg946
g947
sbsI40465
g0
(g938
g2
Ntp975
Rp976
(dp977
g942
g943
sg944
F2.9583376886036286
sg945
F1.0
sg15
I40465
sg946
g947
sbsI58389
g0
(g938
g2
Ntp978
Rp979
(dp980
g942
g943
sg944
F-1.0534768189477826
sg945
F1.0
sg15
I58389
sg946
g947
sbsI50710
g0
(g938
g2
Ntp981
Rp982
(dp983
g942
g943
sg944
F1.5190823112085536
sg945
F1.0
sg15
I50710
sg946
g947
sbsI43031
g0
(g938
g2
Ntp984
Rp985
(dp986
g942
g943
sg944
F-2.854713575823606
sg945
F1.0
sg15
I43031
sg946
g947
sbsI46106
g0
(g938
g2
Ntp987
Rp988
(dp989
g942
g943
sg944
F1.2094940896099096
sg945
F1.0
sg15
I46106
sg946
g947
sbsI37409
g0
(g938
g2
Ntp990
Rp991
(dp992
g942
g943
sg944
F-0.11198386710402425
sg945
F1.0
sg15
I37409
sg946
g947
sbsI58886
g0
(g938
g2
Ntp993
Rp994
(dp995
g942
g943
sg944
F0.9625838945110234
sg945
F1.0
sg15
I58886
sg946
g947
sbsI45096
g0
(g938
g2
Ntp996
Rp997
(dp998
g942
g943
sg944
F-2.312255654169938
sg945
F1.0
sg15
I45096
sg946
g947
sbsI59946
g0
(g938
g2
Ntp999
Rp1000
(dp1001
g942
g943
sg944
F-0.015962974273394548
sg945
F1.0
sg15
I59946
sg946
g947
sbsI38956
g0
(g938
g2
Ntp1002
Rp1003
(dp1004
g942
g943
sg944
F-2.497695547925029
sg945
F1.0
sg15
I38956
sg946
g947
sbsI34349
g0
(g938
g2
Ntp1005
Rp1006
(dp1007
g942
g943
sg944
F0.5768085921437747
sg945
F1.0
sg15
I34349
sg946
g947
sbsI48692
g0
(g938
g2
Ntp1008
Rp1009
(dp1010
g942
g943
sg944
F1.4671492795399543
sg945
F1.0
sg15
I48692
sg946
g947
sbsI35384
g0
(g938
g2
Ntp1011
Rp1012
(dp1013
g942
g943
sg944
F5.038251688538097
sg945
F1.0
sg15
I35384
sg946
g947
sbsI19002
g0
(g938
g2
Ntp1014
Rp1015
(dp1016
g942
g943
sg944
F3.1855407401221303
sg945
F1.0
sg15
I19002
sg946
g947
sbsI41026
g0
(g938
g2
Ntp1017
Rp1018
(dp1019
g942
g943
sg944
F-1.106995421416725
sg945
F1.0
sg15
I41026
sg946
g947
sbsI29251
g0
(g938
g2
Ntp1020
Rp1021
(dp1022
g942
g943
sg944
F-0.7819566994626119
sg945
F1.0
sg15
I29251
sg946
g947
sbsI56900
g0
(g938
g2
Ntp1023
Rp1024
(dp1025
g942
g943
sg944
F-5.156901237515878
sg945
F1.0
sg15
I56900
sg946
g947
sbsI64070
g0
(g938
g2
Ntp1026
Rp1027
(dp1028
g942
g943
sg944
F2.023030741605044
sg945
F1.0
sg15
I64070
sg946
g947
sbsI50767
g0
(g938
g2
Ntp1029
Rp1030
(dp1031
g942
g943
sg944
F-1.614734556785915
sg945
F1.0
sg15
I50767
sg946
g947
sbsI61525
g0
(g938
g2
Ntp1032
Rp1033
(dp1034
g942
g943
sg944
F4.0412854374055485
sg945
F1.0
sg15
I61525
sg946
g947
sbsI30905
g0
(g938
g2
Ntp1035
Rp1036
(dp1037
g942
g943
sg944
F1.54249199215352
sg945
F1.0
sg15
I30905
sg946
g947
sbsI37988
g0
(g938
g2
Ntp1038
Rp1039
(dp1040
g942
g943
sg944
F-3.1468754105822434
sg945
F1.0
sg15
I37988
sg946
g947
sbsI49253
g0
(g938
g2
Ntp1041
Rp1042
(dp1043
g942
g943
sg944
F2.316980290753049
sg945
F1.0
sg15
I49253
sg946
g947
sbsI62056
g0
(g938
g2
Ntp1044
Rp1045
(dp1046
g942
g943
sg944
F1.3633057996057596
sg945
F1.0
sg15
I62056
sg946
g947
sbsI47721
g0
(g938
g2
Ntp1047
Rp1048
(dp1049
g942
g943
sg944
F0.3908644838379521
sg945
F1.0
sg15
I47721
sg946
g947
sbsI48756
g0
(g938
g2
Ntp1050
Rp1051
(dp1052
g942
g943
sg944
F0.18239404450497398
sg945
F1.0
sg15
I48756
sg946
g947
sbsI62071
g0
(g938
g2
Ntp1053
Rp1054
(dp1055
g942
g943
sg944
F3.675057937674233
sg945
F1.0
sg15
I62071
sg946
g947
sbsI28282
g0
(g938
g2
Ntp1056
Rp1057
(dp1058
g942
g943
sg944
F-2.5354401613425472
sg945
F1.0
sg15
I28282
sg946
g947
sbsI45247
g0
(g938
g2
Ntp1059
Rp1060
(dp1061
g942
g943
sg944
F-1.7175446824841587
sg945
F1.0
sg15
I45247
sg946
g947
sbsI56445
g0
(g938
g2
Ntp1062
Rp1063
(dp1064
g942
g943
sg944
F1.5464188262604182
sg945
F1.0
sg15
I56445
sg946
g947
sbsI53886
g0
(g938
g2
Ntp1065
Rp1066
(dp1067
g942
g943
sg944
F0.47553009883367303
sg945
F1.0
sg15
I53886
sg946
g947
sbsI38528
g0
(g938
g2
Ntp1068
Rp1069
(dp1070
g942
g943
sg944
F4.3224927451219815
sg945
F1.0
sg15
I38528
sg946
g947
sbsI48267
g0
(g938
g2
Ntp1071
Rp1072
(dp1073
g942
g943
sg944
F-1.5210783416121871
sg945
F1.0
sg15
I48267
sg946
g947
sbsI56974
g0
(g938
g2
Ntp1074
Rp1075
(dp1076
g942
g943
sg944
F0.20189674821562664
sg945
F1.0
sg15
I56974
sg946
g947
sbsI47254
g0
(g938
g2
Ntp1077
Rp1078
(dp1079
g942
g943
sg944
F-0.015646575520409878
sg945
F1.0
sg15
I47254
sg946
g947
sbsI44183
g0
(g938
g2
Ntp1080
Rp1081
(dp1082
g942
g943
sg944
F2.5196872380280357
sg945
F1.0
sg15
I44183
sg946
g947
sbsI43677
g0
(g938
g2
Ntp1083
Rp1084
(dp1085
g942
g943
sg944
F-1.5973227879014158
sg945
F1.0
sg15
I43677
sg946
g947
sbsI58015
g0
(g938
g2
Ntp1086
Rp1087
(dp1088
g942
g943
sg944
F0.6966974252722351
sg945
F1.0
sg15
I58015
sg946
g947
sbsI58534
g0
(g938
g2
Ntp1089
Rp1090
(dp1091
g942
g943
sg944
F-0.019223738706581672
sg945
F1.0
sg15
I58534
sg946
g947
sbsI42161
g0
(g938
g2
Ntp1092
Rp1093
(dp1094
g942
g943
sg944
F1.5558737530917417
sg945
F1.0
sg15
I42161
sg946
g947
sbsI59570
g0
(g938
g2
Ntp1095
Rp1096
(dp1097
g942
g943
sg944
F-0.5196105834510812
sg945
F1.0
sg15
I59570
sg946
g947
sbsI41657
g0
(g938
g2
Ntp1098
Rp1099
(dp1100
g942
g943
sg944
F-2.1315557227135664
sg945
F1.0
sg15
I41657
sg946
g947
sbsI64187
g0
(g938
g2
Ntp1101
Rp1102
(dp1103
g942
g943
sg944
F-0.5967121399125668
sg945
F1.0
sg15
I64187
sg946
g947
sbsI56511
g0
(g938
g2
Ntp1104
Rp1105
(dp1106
g942
g943
sg944
F0.8377929085731779
sg945
F1.0
sg15
I56511
sg946
g947
sbsI57120
g0
(g938
g2
Ntp1107
Rp1108
(dp1109
g942
g943
sg944
F-1.8153420306738925
sg945
F1.0
sg15
I57120
sg946
g947
sbsI17782
g0
(g938
g2
Ntp1110
Rp1111
(dp1112
g942
g943
sg944
F1.2304754957914557
sg945
F1.0
sg15
I17782
sg946
g947
sbsI30408
g0
(g938
g2
Ntp1113
Rp1114
(dp1115
g942
g943
sg944
F-0.32479665332625873
sg945
F1.0
sg15
I30408
sg946
g947
sbsI44237
g0
(g938
g2
Ntp1116
Rp1117
(dp1118
g942
g943
sg944
F-3.0335044016209096
sg945
F1.0
sg15
I44237
sg946
g947
sbsI55504
g0
(g938
g2
Ntp1119
Rp1120
(dp1121
g942
g943
sg944
F0.80983232354026
sg945
F1.0
sg15
I55504
sg946
g947
sbsI21714
g0
(g938
g2
Ntp1122
Rp1123
(dp1124
g942
g943
sg944
F0.24365547260102233
sg945
F1.0
sg15
I21714
sg946
g947
sbsI25300
g0
(g938
g2
Ntp1125
Rp1126
(dp1127
g942
g943
sg944
F2.2937124436341825
sg945
F1.0
sg15
I25300
sg946
g947
sbsI57206
g0
(g938
g2
Ntp1128
Rp1129
(dp1130
g942
g943
sg944
F-0.06540950256369205
sg945
F1.0
sg15
I57206
sg946
g947
sbsI38617
g0
(g938
g2
Ntp1131
Rp1132
(dp1133
g942
g943
sg944
F-0.36968763005483174
sg945
F1.0
sg15
I38617
sg946
g947
sbsI47323
g0
(g938
g2
Ntp1134
Rp1135
(dp1136
g942
g943
sg944
F-0.14088298579581254
sg945
F1.0
sg15
I47323
sg946
g947
sbsI43743
g0
(g938
g2
Ntp1137
Rp1138
(dp1139
g942
g943
sg944
F1.415093528186005
sg945
F1.0
sg15
I43743
sg946
g947
sbsI14560
g0
(g938
g2
Ntp1140
Rp1141
(dp1142
g942
g943
sg944
F-1.197099601819163
sg945
F1.0
sg15
I14560
sg946
g947
sbsI64739
g0
(g938
g2
Ntp1143
Rp1144
(dp1145
g942
g943
sg944
F-0.381803547127063
sg945
F1.0
sg15
I64739
sg946
g947
sbsI47852
g0
(g938
g2
Ntp1146
Rp1147
(dp1148
g942
g943
sg944
F2.8157240309215394
sg945
F1.0
sg15
I47852
sg946
g947
sbsI42228
g0
(g938
g2
Ntp1149
Rp1150
(dp1151
g942
g943
sg944
F1.8181390165349285
sg945
F1.0
sg15
I42228
sg946
g947
sbsI33013
g0
(g938
g2
Ntp1152
Rp1153
(dp1154
g942
g943
sg944
F0.5288283854383341
sg945
F1.0
sg15
I33013
sg946
g947
sbsI21238
g0
(g938
g2
Ntp1155
Rp1156
(dp1157
g942
g943
sg944
F-0.21604740775486486
sg945
F1.0
sg15
I21238
sg946
g947
sbsI44798
g0
(g938
g2
Ntp1158
Rp1159
(dp1160
g942
g943
sg944
F0.49397714811205656
sg945
F1.0
sg15
I44798
sg946
g947
sbsI28929
g0
(g938
g2
Ntp1161
Rp1162
(dp1163
g942
g943
sg944
F-0.45491378253141035
sg945
F1.0
sg15
I28929
sg946
g947
sbsI32004
g0
(g938
g2
Ntp1164
Rp1165
(dp1166
g942
g943
sg944
F0.8487122101747973
sg945
F1.0
sg15
I32004
sg946
g947
sbsI61190
g0
(g938
g2
Ntp1167
Rp1168
(dp1169
g942
g943
sg944
F0.35054271735627734
sg945
F1.0
sg15
I61190
sg946
g947
sbsI48910
g0
(g938
g2
Ntp1170
Rp1171
(dp1172
g942
g943
sg944
F-0.4317454686074903
sg945
F1.0
sg15
I48910
sg946
g947
sbsI53519
g0
(g938
g2
Ntp1173
Rp1174
(dp1175
g942
g943
sg944
F1.3913519330244495
sg945
F1.0
sg15
I53519
sg946
g947
sbsI60694
g0
(g938
g2
Ntp1176
Rp1177
(dp1178
g942
g943
sg944
F0.7712734897463828
sg945
F1.0
sg15
I60694
sg946
g947
sbsI50973
g0
(g938
g2
Ntp1179
Rp1180
(dp1181
g942
g943
sg944
F-0.17609640735860632
sg945
F1.0
sg15
I50973
sg946
g947
sbsI24965
g0
(g938
g2
Ntp1182
Rp1183
(dp1184
g942
g943
sg944
F-1.1302392060637239
sg945
F1.0
sg15
I24965
sg946
g947
sbsI50464
g0
(g938
g2
Ntp1185
Rp1186
(dp1187
g942
g943
sg944
F-3.1220346709171207
sg945
F1.0
sg15
I50464
sg946
g947
sbsI58658
g0
(g938
g2
Ntp1188
Rp1189
(dp1190
g942
g943
sg944
F0.47982420899123046
sg945
F1.0
sg15
I58658
sg946
g947
sbsI44323
g0
(g938
g2
Ntp1191
Rp1192
(dp1193
g942
g943
sg944
F1.0532184591520495
sg945
F1.0
sg15
I44323
sg946
g947
sbsI56100
g0
(g938
g2
Ntp1194
Rp1195
(dp1196
g942
g943
sg944
F-0.7861541951536508
sg945
F1.0
sg15
I56100
sg946
g947
sbsI32550
g0
(g938
g2
Ntp1197
Rp1198
(dp1199
g942
g943
sg944
F-2.2449741180565876
sg945
F1.0
sg15
I32550
sg946
g947
sbsI52520
g0
(g938
g2
Ntp1200
Rp1201
(dp1202
g942
g943
sg944
F0.7163999011678682
sg945
F1.0
sg15
I52520
sg946
g947
sbsI50488
g0
(g938
g2
Ntp1203
Rp1204
(dp1205
g942
g943
sg944
F2.0015880022883423
sg945
F1.0
sg15
I50488
sg946
g947
sbsI38207
g0
(g938
g2
Ntp1206
Rp1207
(dp1208
g942
g943
sg944
F-2.740152848641412
sg945
F1.0
sg15
I38207
sg946
g947
sbsI62272
g0
(g938
g2
Ntp1209
Rp1210
(dp1211
g942
g943
sg944
F0.07176793918674972
sg945
F1.0
sg15
I62272
sg946
g947
sbsI44353
g0
(g938
g2
Ntp1212
Rp1213
(dp1214
g942
g943
sg944
F1.4974143553551258
sg945
F1.0
sg15
I44353
sg946
g947
sbsI35662
g0
(g938
g2
Ntp1215
Rp1216
(dp1217
g942
g943
sg944
F0.5203079570595446
sg945
F1.0
sg15
I35662
sg946
g947
sbsI42296
g0
(g938
g2
Ntp1218
Rp1219
(dp1220
g942
g943
sg944
F-1.6132927153115169
sg945
F1.0
sg15
I42296
sg946
g947
sbsI33619
g0
(g938
g2
Ntp1221
Rp1222
(dp1223
g942
g943
sg944
F-1.5831140250590594
sg945
F1.0
sg15
I33619
sg946
g947
sbsI62805
g0
(g938
g2
Ntp1224
Rp1225
(dp1226
g942
g943
sg944
F-3.5688617444710506
sg945
F1.0
sg15
I62805
sg946
g947
sbsI31063
g0
(g938
g2
Ntp1227
Rp1228
(dp1229
g942
g943
sg944
F-0.0004989179720186875
sg945
F1.0
sg15
I31063
sg946
g947
sbsI51032
g0
(g938
g2
Ntp1230
Rp1231
(dp1232
g942
g943
sg944
F0.8598064240325278
sg945
F1.0
sg15
I51032
sg946
g947
sbsI60194
g0
(g938
g2
Ntp1233
Rp1234
(dp1235
g942
g943
sg944
F-0.06269196984035322
sg945
F1.0
sg15
I60194
sg946
g947
sbsI53596
g0
(g938
g2
Ntp1236
Rp1237
(dp1238
g942
g943
sg944
F0.05533456208427523
sg945
F1.0
sg15
I53596
sg946
g947
sbsI58720
g0
(g938
g2
Ntp1239
Rp1240
(dp1241
g942
g943
sg944
F0.15145911923104216
sg945
F1.0
sg15
I58720
sg946
g947
sbsI31588
g0
(g938
g2
Ntp1242
Rp1243
(dp1244
g942
g943
sg944
F0.013095820293298921
sg945
F1.0
sg15
I31588
sg946
g947
sbsI63334
g0
(g938
g2
Ntp1245
Rp1246
(dp1247
g942
g943
sg944
F1.4470896565782958
sg945
F1.0
sg15
I63334
sg946
g947
sbsI41831
g0
(g938
g2
Ntp1248
Rp1249
(dp1250
g942
g943
sg944
F-0.688398723579517
sg945
F1.0
sg15
I41831
sg946
g947
sbsI47977
g0
(g938
g2
Ntp1251
Rp1252
(dp1253
g942
g943
sg944
F-0.728769828573149
sg945
F1.0
sg15
I47977
sg946
g947
sbsI25974
g0
(g938
g2
Ntp1254
Rp1255
(dp1256
g942
g943
sg944
F-1.3214344360823997
sg945
F1.0
sg15
I25974
sg946
g947
sbsI45439
g0
(g938
g2
Ntp1257
Rp1258
(dp1259
g942
g943
sg944
F2.651583079316746
sg945
F1.0
sg15
I45439
sg946
g947
sbsI46230
g0
(g938
g2
Ntp1260
Rp1261
(dp1262
g942
g943
sg944
F0.8117237496832355
sg945
F1.0
sg15
I46230
sg946
g947
sbsI56200
g0
(g938
g2
Ntp1263
Rp1264
(dp1265
g942
g943
sg944
F-1.7976876952523906
sg945
F1.0
sg15
I56200
sg946
g947
sbsI54153
g0
(g938
g2
Ntp1266
Rp1267
(dp1268
g942
g943
sg944
F-1.930197003649014
sg945
F1.0
sg15
I54153
sg946
g947
sbsI62615
g0
(g938
g2
Ntp1269
Rp1270
(dp1271
g942
g943
sg944
F1.8863283404399496
sg945
F1.0
sg15
I62615
sg946
g947
sbsI62349
g0
(g938
g2
Ntp1272
Rp1273
(dp1274
g942
g943
sg944
F-0.40991632506547676
sg945
F1.0
sg15
I62349
sg946
g947
sbsI52291
g0
(g938
g2
Ntp1275
Rp1276
(dp1277
g942
g943
sg944
F-0.6613031030008841
sg945
F1.0
sg15
I52291
sg946
g947
sbsI19348
g0
(g938
g2
Ntp1278
Rp1279
(dp1280
g942
g943
sg944
F0.9618635035257213
sg945
F1.0
sg15
I19348
sg946
g947
sbsI43925
g0
(g938
g2
Ntp1281
Rp1282
(dp1283
g942
g943
sg944
F0.3209193664908998
sg945
F1.0
sg15
I43925
sg946
g947
sbsI23959
g0
(g938
g2
Ntp1284
Rp1285
(dp1286
g942
g943
sg944
F1.209080594024074
sg945
F1.0
sg15
I23959
sg946
g947
sbsI57240
g0
(g938
g2
Ntp1287
Rp1288
(dp1289
g942
g943
sg944
F0.005743706539929061
sg945
F1.0
sg15
I57240
sg946
g947
sbsI64409
g0
(g938
g2
Ntp1290
Rp1291
(dp1292
g942
g943
sg944
F-0.0523688364496151
sg945
F1.0
sg15
I64409
sg946
g947
sbsI58270
g0
(g938
g2
Ntp1293
Rp1294
(dp1295
g942
g943
sg944
F1.4372823729448094
sg945
F1.0
sg15
I58270
sg946
g947
sbsI54692
g0
(g938
g2
Ntp1296
Rp1297
(dp1298
g942
g943
sg944
F-0.42874415719035874
sg945
F1.0
sg15
I54692
sg946
g947
sbsI35751
g0
(g938
g2
Ntp1299
Rp1300
(dp1301
g942
g943
sg944
F-0.5357163656380586
sg945
F1.0
sg15
I35751
sg946
g947
sbsI10666
g0
(g938
g2
Ntp1302
Rp1303
(dp1304
g942
g943
sg944
F-0.6284881640519139
sg945
F1.0
sg15
I10666
sg946
g947
sbsI20395
g0
(g938
g2
Ntp1305
Rp1306
(dp1307
g942
g943
sg944
F2.9576861896783146
sg945
F1.0
sg15
I20395
sg946
g947
sbsI55212
g0
(g938
g2
Ntp1308
Rp1309
(dp1310
g942
g943
sg944
F3.643038805102195
sg945
F1.0
sg15
I55212
sg946
g947
sbsI24493
g0
(g938
g2
Ntp1311
Rp1312
(dp1313
g942
g943
sg944
F0.4189383818730301
sg945
F1.0
sg15
I24493
sg946
g947
sbsI49780
g0
(g938
g2
Ntp1314
Rp1315
(dp1316
g942
g943
sg944
F0.834742600027985
sg945
F1.0
sg15
I49780
sg946
g947
sbsI53685
g0
(g938
g2
Ntp1317
Rp1318
(dp1319
g942
g943
sg944
F0.8631779173797688
sg945
F1.0
sg15
I53685
sg946
g947
sbsI36285
g0
(g938
g2
Ntp1320
Rp1321
(dp1322
g942
g943
sg944
F-1.3280851354599357
sg945
F1.0
sg15
I36285
sg946
g947
sbsI44478
g0
(g938
g2
Ntp1323
Rp1324
(dp1325
g942
g943
sg944
F-0.0003379607030210008
sg945
F1.0
sg15
I44478
sg946
g947
sbsI30658
g0
(g938
g2
Ntp1326
Rp1327
(dp1328
g942
g943
sg944
F0.8530179744293973
sg945
F1.0
sg15
I30658
sg946
g947
sbsI18884
g0
(g938
g2
Ntp1329
Rp1330
(dp1331
g942
g943
sg944
F1.7950579404606954
sg945
F1.0
sg15
I18884
sg946
g947
sbsI49608
g0
(g938
g2
Ntp1332
Rp1333
(dp1334
g942
g943
sg944
F1.8464921862416135
sg945
F1.0
sg15
I49608
sg946
g947
sbsI53196
g0
(g938
g2
Ntp1335
Rp1336
(dp1337
g942
g943
sg944
F0.08958337470612424
sg945
F1.0
sg15
I53196
sg946
g947
sbsI62931
g0
(g938
g2
Ntp1338
Rp1339
(dp1340
g942
g943
sg944
F0.9610334978404611
sg945
F1.0
sg15
I62931
sg946
g947
sbsI13268
g0
(g938
g2
Ntp1341
Rp1342
(dp1343
g942
g943
sg944
F0.22735586193872012
sg945
F1.0
sg15
I13268
sg946
g947
sbsI58841
g0
(g938
g2
Ntp1344
Rp1345
(dp1346
g942
g943
sg944
F0.599659867552116
sg945
F1.0
sg15
I58841
sg946
g947
sbsI63567
g0
(g938
g2
Ntp1347
Rp1348
(dp1349
g942
g943
sg944
F-0.13445831665909913
sg945
F1.0
sg15
I63567
sg946
g947
sbsI41444
g0
(g938
g2
Ntp1350
Rp1351
(dp1352
g942
g943
sg944
F1.144264825561629
sg945
F1.0
sg15
I41444
sg946
g947
sbsI53073
g0
(g938
g2
Ntp1353
Rp1354
(dp1355
g942
g943
sg944
F-1.5102049768762538
sg945
F1.0
sg15
I53073
sg946
g947
sbsI57322
g0
(g938
g2
Ntp1356
Rp1357
(dp1358
g942
g943
sg944
F-0.2572116390895513
sg945
F1.0
sg15
I57322
sg946
g947
sbsI56231
g0
(g938
g2
Ntp1359
Rp1360
(dp1361
g942
g943
sg944
F1.6549201314072226
sg945
F1.0
sg15
I56231
sg946
g947
sbsI57841
g0
(g938
g2
Ntp1362
Rp1363
(dp1364
g942
g943
sg944
F-0.45240364351158274
sg945
F1.0
sg15
I57841
sg946
g947
sbsI63988
g0
(g938
g2
Ntp1365
Rp1366
(dp1367
g942
g943
sg944
F-0.4550126313754949
sg945
F1.0
sg15
I63988
sg946
g947
sbsI37881
g0
(g938
g2
Ntp1368
Rp1369
(dp1370
g942
g943
sg944
F1.124883250755494
sg945
F1.0
sg15
I37881
sg946
g947
sbsI47098
g0
(g938
g2
Ntp1371
Rp1372
(dp1373
g942
g943
sg944
F-1.4129940124265494
sg945
F1.0
sg15
I47098
sg946
g947
sbsI61435
g0
(g938
g2
Ntp1374
Rp1375
(dp1376
g942
g943
sg944
F-1.5306182673820723
sg945
F1.0
sg15
I61435
sg946
g947
sbsI62501
g0
(g938
g2
Ntp1377
Rp1378
(dp1379
g942
g943
sg944
F2.9728076768423715
sg945
F1.0
sg15
I62501
sg946
g947
sbsI54783
g0
(g938
g2
Ntp1380
Rp1381
(dp1382
g942
g943
sg944
F-1.2061067755294141
sg945
F1.0
sg15
I54783
sg946
g947
sbssg15
I194934
sS'fitness'
p1383
F99.97921359448638
sb.