ccopy_reg
_reconstructor
p0
(cneat.genome
DefaultGenome
p1
c__builtin__
object
p2
Ntp3
Rp4
(dp5
S'connections'
p6
(dp7
(I57809
I60933
tp8
g0
(cneat.genes
DefaultConnectionGene
p9
g2
Ntp10
Rp11
(dp12
S'enabled'
p13
I00
sS'weight'
p14
F-0.8252932443796446
sS'key'
p15
g8
sbs(I54142
I29793
tp16
g0
(g9
g2
Ntp17
Rp18
(dp19
g13
I00
sg14
F-0.39097524201762446
sg15
g16
sbs(I26680
I63645
tp20
g0
(g9
g2
Ntp21
Rp22
(dp23
g13
I01
sg14
F1.0595811036981269
sg15
g20
sbs(I-1
I0
tp24
g0
(g9
g2
Ntp25
Rp26
(dp27
g13
I01
sg14
F0.2070061831733545
sg15
g24
sbs(I27673
I22621
tp28
g0
(g9
g2
Ntp29
Rp30
(dp31
g13
I00
sg14
F0.9795861139254257
sg15
g28
sbs(I40693
I1
tp32
g0
(g9
g2
Ntp33
Rp34
(dp35
g13
I00
sg14
F0.03712092285638141
sg15
g32
sbs(I0
I19443
tp36
g0
(g9
g2
Ntp37
Rp38
(dp39
g13
I01
sg14
F-0.3753189182670583
sg15
g36
sbs(I62730
I29830
tp40
g0
(g9
g2
Ntp41
Rp42
(dp43
g13
I00
sg14
F1.4488124158811597
sg15
g40
sbs(I45907
I32324
tp44
g0
(g9
g2
Ntp45
Rp46
(dp47
g13
I01
sg14
F1.6280478898007038
sg15
g44
sbs(I49949
I56514
tp48
g0
(g9
g2
Ntp49
Rp50
(dp51
g13
I01
sg14
F0.1730709891706896
sg15
g48
sbs(I24953
I31828
tp52
g0
(g9
g2
Ntp53
Rp54
(dp55
g13
I01
sg14
F-1.0608229562442872
sg15
g52
sbs(I58894
I22621
tp56
g0
(g9
g2
Ntp57
Rp58
(dp59
g13
I01
sg14
F2.0230708862127726
sg15
g56
sbs(I60517
I32139
tp60
g0
(g9
g2
Ntp61
Rp62
(dp63
g13
I00
sg14
F-3.51416548160303
sg15
g60
sbs(I58105
I58386
tp64
g0
(g9
g2
Ntp65
Rp66
(dp67
g13
I01
sg14
F-0.08218393855409895
sg15
g64
sbs(I29793
I32900
tp68
g0
(g9
g2
Ntp69
Rp70
(dp71
g13
I01
sg14
F0.13169332682520546
sg15
g68
sbs(I44645
I59630
tp72
g0
(g9
g2
Ntp73
Rp74
(dp75
g13
I01
sg14
F0.1770621759620718
sg15
g72
sbs(I55549
I37857
tp76
g0
(g9
g2
Ntp77
Rp78
(dp79
g13
I01
sg14
F0.27228414805680823
sg15
g76
sbs(I47600
I0
tp80
g0
(g9
g2
Ntp81
Rp82
(dp83
g13
I01
sg14
F-0.5220387419169585
sg15
g80
sbs(I64022
I59446
tp84
g0
(g9
g2
Ntp85
Rp86
(dp87
g13
I01
sg14
F-0.7103986739764042
sg15
g84
sbs(I45315
I29830
tp88
g0
(g9
g2
Ntp89
Rp90
(dp91
g13
I00
sg14
F0.4163644238596691
sg15
g88
sbs(I22287
I50413
tp92
g0
(g9
g2
Ntp93
Rp94
(dp95
g13
I01
sg14
F0.7146946087327855
sg15
g92
sbs(I-1
I58505
tp96
g0
(g9
g2
Ntp97
Rp98
(dp99
g13
I00
sg14
F-2.2337625883327727
sg15
g96
sbs(I34320
I26215
tp100
g0
(g9
g2
Ntp101
Rp102
(dp103
g13
I00
sg14
F4.214472734580203
sg15
g100
sbs(I-1
I49371
tp104
g0
(g9
g2
Ntp105
Rp106
(dp107
g13
I00
sg14
F1.4728148249835442
sg15
g104
sbs(I52566
I59252
tp108
g0
(g9
g2
Ntp109
Rp110
(dp111
g13
I00
sg14
F0.150889790719411
sg15
g108
sbs(I37653
I53684
tp112
g0
(g9
g2
Ntp113
Rp114
(dp115
g13
I00
sg14
F4.544880435947478
sg15
g112
sbs(I28660
I16630
tp116
g0
(g9
g2
Ntp117
Rp118
(dp119
g13
I00
sg14
F2.880616289921449
sg15
g116
sbs(I60276
I50840
tp120
g0
(g9
g2
Ntp121
Rp122
(dp123
g13
I00
sg14
F-0.6664167960259778
sg15
g120
sbs(I36922
I40247
tp124
g0
(g9
g2
Ntp125
Rp126
(dp127
g13
I00
sg14
F-0.9123035967973291
sg15
g124
sbs(I46904
I23001
tp128
g0
(g9
g2
Ntp129
Rp130
(dp131
g13
I00
sg14
F-1.4655805290170574
sg15
g128
sbs(I-2
I38364
tp132
g0
(g9
g2
Ntp133
Rp134
(dp135
g13
I00
sg14
F-4.89496649666888
sg15
g132
sbs(I40247
I22287
tp136
g0
(g9
g2
Ntp137
Rp138
(dp139
g13
I00
sg14
F-0.09864611905990789
sg15
g136
sbs(I42793
I49215
tp140
g0
(g9
g2
Ntp141
Rp142
(dp143
g13
I01
sg14
F-0.5740932170551531
sg15
g140
sbs(I37857
I59446
tp144
g0
(g9
g2
Ntp145
Rp146
(dp147
g13
I01
sg14
F-1.603569682269146
sg15
g144
sbs(I60024
I51499
tp148
g0
(g9
g2
Ntp149
Rp150
(dp151
g13
I00
sg14
F-3.539652478382835
sg15
g148
sbs(I37653
I17170
tp152
g0
(g9
g2
Ntp153
Rp154
(dp155
g13
I01
sg14
F-3.364363991289418
sg15
g152
sbs(I30471
I33911
tp156
g0
(g9
g2
Ntp157
Rp158
(dp159
g13
I00
sg14
F1.053993793869333
sg15
g156
sbs(I39750
I38030
tp160
g0
(g9
g2
Ntp161
Rp162
(dp163
g13
I00
sg14
F-0.9217207215337443
sg15
g160
sbs(I63645
I29830
tp164
g0
(g9
g2
Ntp165
Rp166
(dp167
g13
I00
sg14
F1.2815962627742414
sg15
g164
sbs(I-4
I61586
tp168
g0
(g9
g2
Ntp169
Rp170
(dp171
g13
I01
sg14
F1.4046668227800678
sg15
g168
sbs(I58105
I3
tp172
g0
(g9
g2
Ntp173
Rp174
(dp175
g13
I00
sg14
F1.2364644815644763
sg15
g172
sbs(I30471
I0
tp176
g0
(g9
g2
Ntp177
Rp178
(dp179
g13
I01
sg14
F1.6864859950084063
sg15
g176
sbs(I46330
I60321
tp180
g0
(g9
g2
Ntp181
Rp182
(dp183
g13
I00
sg14
F-1.9269087276748091
sg15
g180
sbs(I29830
I1
tp184
g0
(g9
g2
Ntp185
Rp186
(dp187
g13
I00
sg14
F-1.9917578489207681
sg15
g184
sbs(I48567
I49949
tp188
g0
(g9
g2
Ntp189
Rp190
(dp191
g13
I01
sg14
F1.668385630791861
sg15
g188
sbs(I-3
I46283
tp192
g0
(g9
g2
Ntp193
Rp194
(dp195
g13
I00
sg14
F0.8754774060267785
sg15
g192
sbs(I30471
I32900
tp196
g0
(g9
g2
Ntp197
Rp198
(dp199
g13
I01
sg14
F2.1302681544606137
sg15
g196
sbs(I58423
I38030
tp200
g0
(g9
g2
Ntp201
Rp202
(dp203
g13
I01
sg14
F-1.4024039682058698
sg15
g200
sbs(I49196
I60452
tp204
g0
(g9
g2
Ntp205
Rp206
(dp207
g13
I01
sg14
F-0.5818544090606339
sg15
g204
sbs(I24953
I1
tp208
g0
(g9
g2
Ntp209
Rp210
(dp211
g13
I00
sg14
F-0.33890445097679744
sg15
g208
sbs(I37653
I51499
tp212
g0
(g9
g2
Ntp213
Rp214
(dp215
g13
I01
sg14
F-0.7283297576077804
sg15
g212
sbs(I-1
I51602
tp216
g0
(g9
g2
Ntp217
Rp218
(dp219
g13
I00
sg14
F0.33995464143523846
sg15
g216
sbs(I3
I44645
tp220
g0
(g9
g2
Ntp221
Rp222
(dp223
g13
I00
sg14
F-3.610641294914333
sg15
g220
sbs(I32570
I50767
tp224
g0
(g9
g2
Ntp225
Rp226
(dp227
g13
I00
sg14
F0.39055226599237397
sg15
g224
sbs(I39750
I35972
tp228
g0
(g9
g2
Ntp229
Rp230
(dp231
g13
I00
sg14
F-1.0566177697815384
sg15
g228
sbs(I37653
I62639
tp232
g0
(g9
g2
Ntp233
Rp234
(dp235
g13
I01
sg14
F0.5723470480158646
sg15
g232
sbs(I62639
I29625
tp236
g0
(g9
g2
Ntp237
Rp238
(dp239
g13
I01
sg14
F0.9444631441602043
sg15
g236
sbs(I1
I26215
tp240
g0
(g9
g2
Ntp241
Rp242
(dp243
g13
I01
sg14
F-1.4519219309097848
sg15
g240
sbs(I35338
I45907
tp244
g0
(g9
g2
Ntp245
Rp246
(dp247
g13
I01
sg14
F-0.5665318950753523
sg15
g244
sbs(I1
I32324
tp248
g0
(g9
g2
Ntp249
Rp250
(dp251
g13
I00
sg14
F-0.15310357629102012
sg15
g248
sbs(I62342
I57972
tp252
g0
(g9
g2
Ntp253
Rp254
(dp255
g13
I01
sg14
F1.2298734529104545
sg15
g252
sbs(I62923
I28660
tp256
g0
(g9
g2
Ntp257
Rp258
(dp259
g13
I01
sg14
F-0.4498494111073267
sg15
g256
sbs(I-1
I47600
tp260
g0
(g9
g2
Ntp261
Rp262
(dp263
g13
I01
sg14
F-2.8595129027248753
sg15
g260
sbs(I50413
I56274
tp264
g0
(g9
g2
Ntp265
Rp266
(dp267
g13
I01
sg14
F2.8196949514522105
sg15
g264
sbs(I37857
I64022
tp268
g0
(g9
g2
Ntp269
Rp270
(dp271
g13
I01
sg14
F-0.7678699063742938
sg15
g268
sbs(I1
I32139
tp272
g0
(g9
g2
Ntp273
Rp274
(dp275
g13
I00
sg14
F-2.0652370004908582
sg15
g272
sbs(I50413
I34090
tp276
g0
(g9
g2
Ntp277
Rp278
(dp279
g13
I00
sg14
F1.433445397124258
sg15
g276
sbs(I26680
I43519
tp280
g0
(g9
g2
Ntp281
Rp282
(dp283
g13
I00
sg14
F1.074086842365748
sg15
g280
sbs(I1
I17170
tp284
g0
(g9
g2
Ntp285
Rp286
(dp287
g13
I01
sg14
F-2.7418327211757054
sg15
g284
sbs(I43387
I1
tp288
g0
(g9
g2
Ntp289
Rp290
(dp291
g13
I00
sg14
F1.1232151532817887
sg15
g288
sbs(I56514
I38030
tp292
g0
(g9
g2
Ntp293
Rp294
(dp295
g13
I00
sg14
F-1.450097464423756
sg15
g292
sbs(I-3
I39165
tp296
g0
(g9
g2
Ntp297
Rp298
(dp299
g13
I01
sg14
F-1.5752144307747273
sg15
g296
sbs(I52467
I29830
tp300
g0
(g9
g2
Ntp301
Rp302
(dp303
g13
I00
sg14
F-1.479945611891439
sg15
g300
sbs(I57242
I45315
tp304
g0
(g9
g2
Ntp305
Rp306
(dp307
g13
I00
sg14
F-1.5852237335101775
sg15
g304
sbs(I52566
I55173
tp308
g0
(g9
g2
Ntp309
Rp310
(dp311
g13
I01
sg14
F1.475158940402993
sg15
g308
sbs(I36101
I19443
tp312
g0
(g9
g2
Ntp313
Rp314
(dp315
g13
I01
sg14
F-1.0699340609318955
sg15
g312
sbs(I1
I42793
tp316
g0
(g9
g2
Ntp317
Rp318
(dp319
g13
I01
sg14
F-2.673146753364508
sg15
g316
sbs(I59252
I55173
tp320
g0
(g9
g2
Ntp321
Rp322
(dp323
g13
I01
sg14
F0.16303776029186484
sg15
g320
sbs(I50413
I28660
tp324
g0
(g9
g2
Ntp325
Rp326
(dp327
g13
I00
sg14
F-1.5757316589589585
sg15
g324
sbs(I30471
I55549
tp328
g0
(g9
g2
Ntp329
Rp330
(dp331
g13
I01
sg14
F1.1438106477310699
sg15
g328
sbs(I26505
I31334
tp332
g0
(g9
g2
Ntp333
Rp334
(dp335
g13
I00
sg14
F-1.0078390134087165
sg15
g332
sbs(I46330
I49196
tp336
g0
(g9
g2
Ntp337
Rp338
(dp339
g13
I00
sg14
F0.025533742032514545
sg15
g336
sbs(I-3
I62070
tp340
g0
(g9
g2
Ntp341
Rp342
(dp343
g13
I01
sg14
F1.3676632802035145
sg15
g340
sbs(I32139
I32900
tp344
g0
(g9
g2
Ntp345
Rp346
(dp347
g13
I01
sg14
F-2.2994566950831414
sg15
g344
sbs(I35338
I57425
tp348
g0
(g9
g2
Ntp349
Rp350
(dp351
g13
I01
sg14
F-2.411811196937764
sg15
g348
sbs(I43387
I40693
tp352
g0
(g9
g2
Ntp353
Rp354
(dp355
g13
I01
sg14
F-0.31366675254586107
sg15
g352
sbs(I17791
I38030
tp356
g0
(g9
g2
Ntp357
Rp358
(dp359
g13
I01
sg14
F0.6276241410037491
sg15
g356
sbs(I30471
I44818
tp360
g0
(g9
g2
Ntp361
Rp362
(dp363
g13
I01
sg14
F-0.09125596133082142
sg15
g360
sbs(I48567
I53684
tp364
g0
(g9
g2
Ntp365
Rp366
(dp367
g13
I01
sg14
F2.2284897279970375
sg15
g364
sbs(I-3
I50413
tp368
g0
(g9
g2
Ntp369
Rp370
(dp371
g13
I00
sg14
F-0.4186567919945973
sg15
g368
sbs(I57972
I19443
tp372
g0
(g9
g2
Ntp373
Rp374
(dp375
g13
I01
sg14
F-1.226960795735702
sg15
g372
sbs(I-3
I57007
tp376
g0
(g9
g2
Ntp377
Rp378
(dp379
g13
I00
sg14
F4.31556119196853
sg15
g376
sbs(I38030
I30071
tp380
g0
(g9
g2
Ntp381
Rp382
(dp383
g13
I01
sg14
F-0.14025580170150265
sg15
g380
sbs(I26215
I50337
tp384
g0
(g9
g2
Ntp385
Rp386
(dp387
g13
I00
sg14
F-3.351693789463134
sg15
g384
sbs(I51499
I0
tp388
g0
(g9
g2
Ntp389
Rp390
(dp391
g13
I00
sg14
F0.654069413592227
sg15
g388
sbs(I59446
I28660
tp392
g0
(g9
g2
Ntp393
Rp394
(dp395
g13
I00
sg14
F0.20560525539720648
sg15
g392
sbs(I58775
I36144
tp396
g0
(g9
g2
Ntp397
Rp398
(dp399
g13
I00
sg14
F-1.1228853434203458
sg15
g396
sbs(I-1
I53344
tp400
g0
(g9
g2
Ntp401
Rp402
(dp403
g13
I00
sg14
F-0.03795268051580402
sg15
g400
sbs(I1
I36922
tp404
g0
(g9
g2
Ntp405
Rp406
(dp407
g13
I01
sg14
F-0.6093630726570025
sg15
g404
sbs(I59192
I29830
tp408
g0
(g9
g2
Ntp409
Rp410
(dp411
g13
I00
sg14
F0.21812983810158676
sg15
g408
sbs(I32900
I22287
tp412
g0
(g9
g2
Ntp413
Rp414
(dp415
g13
I01
sg14
F-3.484683998943794
sg15
g412
sbs(I-3
I17791
tp416
g0
(g9
g2
Ntp417
Rp418
(dp419
g13
I00
sg14
F-0.2889050993569085
sg15
g416
sbs(I-1
I33911
tp420
g0
(g9
g2
Ntp421
Rp422
(dp423
g13
I00
sg14
F-1.819018360901047
sg15
g420
sbs(I-3
I16630
tp424
g0
(g9
g2
Ntp425
Rp426
(dp427
g13
I01
sg14
F1.356061445419885
sg15
g424
sbs(I26336
I27673
tp428
g0
(g9
g2
Ntp429
Rp430
(dp431
g13
I01
sg14
F-1.885268990900444
sg15
g428
sbs(I27673
I50337
tp432
g0
(g9
g2
Ntp433
Rp434
(dp435
g13
I00
sg14
F0.08421178052610456
sg15
g432
sbs(I44645
I26336
tp436
g0
(g9
g2
Ntp437
Rp438
(dp439
g13
I01
sg14
F0.3689604476899817
sg15
g436
sbs(I49786
I29830
tp440
g0
(g9
g2
Ntp441
Rp442
(dp443
g13
I01
sg14
F-1.4922612907461914
sg15
g440
sbs(I1
I59060
tp444
g0
(g9
g2
Ntp445
Rp446
(dp447
g13
I00
sg14
F-1.8157945505482087
sg15
g444
sbs(I-3
I39750
tp448
g0
(g9
g2
Ntp449
Rp450
(dp451
g13
I00
sg14
F0.7625307817294008
sg15
g448
sbs(I45315
I59192
tp452
g0
(g9
g2
Ntp453
Rp454
(dp455
g13
I01
sg14
F-0.4721742351392414
sg15
g452
sbs(I50840
I39750
tp456
g0
(g9
g2
Ntp457
Rp458
(dp459
g13
I01
sg14
F-0.37282676523828817
sg15
g456
sbs(I62070
I57007
tp460
g0
(g9
g2
Ntp461
Rp462
(dp463
g13
I01
sg14
F3.079569155743696
sg15
g460
sbs(I32368
I3
tp464
g0
(g9
g2
Ntp465
Rp466
(dp467
g13
I00
sg14
F0.20207013692105746
sg15
g464
sbs(I21917
I46283
tp468
g0
(g9
g2
Ntp469
Rp470
(dp471
g13
I01
sg14
F-7.9199998524128645
sg15
g468
sbs(I31828
I22621
tp472
g0
(g9
g2
Ntp473
Rp474
(dp475
g13
I00
sg14
F1.0140328392139213
sg15
g472
sbs(I1
I45907
tp476
g0
(g9
g2
Ntp477
Rp478
(dp479
g13
I00
sg14
F-2.8407228958537476
sg15
g476
sbs(I44645
I32570
tp480
g0
(g9
g2
Ntp481
Rp482
(dp483
g13
I01
sg14
F0.6542329705894653
sg15
g480
sbs(I-3
I3
tp484
g0
(g9
g2
Ntp485
Rp486
(dp487
g13
I00
sg14
F0.6618229123661012
sg15
g484
sbs(I50767
I45907
tp488
g0
(g9
g2
Ntp489
Rp490
(dp491
g13
I01
sg14
F0.1078167952037517
sg15
g488
sbs(I-1
I58105
tp492
g0
(g9
g2
Ntp493
Rp494
(dp495
g13
I01
sg14
F0.47925120631955176
sg15
g492
sbs(I26505
I61977
tp496
g0
(g9
g2
Ntp497
Rp498
(dp499
g13
I01
sg14
F0.18921160567771497
sg15
g496
sbs(I26680
I17791
tp500
g0
(g9
g2
Ntp501
Rp502
(dp503
g13
I01
sg14
F1.7287061759148525
sg15
g500
sbs(I40247
I32900
tp504
g0
(g9
g2
Ntp505
Rp506
(dp507
g13
I01
sg14
F2.2756708906385046
sg15
g504
sbs(I53684
I61586
tp508
g0
(g9
g2
Ntp509
Rp510
(dp511
g13
I01
sg14
F-2.6018925468608125
sg15
g508
sbs(I32570
I58894
tp512
g0
(g9
g2
Ntp513
Rp514
(dp515
g13
I01
sg14
F-0.14286211930180343
sg15
g512
sbs(I0
I57972
tp516
g0
(g9
g2
Ntp517
Rp518
(dp519
g13
I00
sg14
F0.5416531181527868
sg15
g516
sbs(I-3
I28660
tp520
g0
(g9
g2
Ntp521
Rp522
(dp523
g13
I01
sg14
F-2.5148507618769367
sg15
g520
sbs(I52416
I22894
tp524
g0
(g9
g2
Ntp525
Rp526
(dp527
g13
I00
sg14
F0.3918982054426656
sg15
g524
sbs(I32139
I61244
tp528
g0
(g9
g2
Ntp529
Rp530
(dp531
g13
I01
sg14
F-3.7861100151032794
sg15
g528
sbs(I26680
I57242
tp532
g0
(g9
g2
Ntp533
Rp534
(dp535
g13
I01
sg14
F1.0213903869676542
sg15
g532
sbs(I26505
I23001
tp536
g0
(g9
g2
Ntp537
Rp538
(dp539
g13
I00
sg14
F5.198144735656727
sg15
g536
sbs(I56107
I52416
tp540
g0
(g9
g2
Ntp541
Rp542
(dp543
g13
I01
sg14
F-1.0734555410938296
sg15
g540
sbs(I62859
I1
tp544
g0
(g9
g2
Ntp545
Rp546
(dp547
g13
I01
sg14
F-2.1782474617482563
sg15
g544
sbs(I60321
I29830
tp548
g0
(g9
g2
Ntp549
Rp550
(dp551
g13
I00
sg14
F2.638434317865194
sg15
g548
sbs(I55549
I60024
tp552
g0
(g9
g2
Ntp553
Rp554
(dp555
g13
I00
sg14
F-3.1302260414272287
sg15
g552
sbs(I3
I22621
tp556
g0
(g9
g2
Ntp557
Rp558
(dp559
g13
I00
sg14
F-1.2079673356117533
sg15
g556
sbs(I17170
I19443
tp560
g0
(g9
g2
Ntp561
Rp562
(dp563
g13
I00
sg14
F-0.7480906106259388
sg15
g560
sbs(I58722
I38030
tp564
g0
(g9
g2
Ntp565
Rp566
(dp567
g13
I00
sg14
F0.6909652497147887
sg15
g564
sbs(I46330
I52467
tp568
g0
(g9
g2
Ntp569
Rp570
(dp571
g13
I00
sg14
F-0.11343700506857174
sg15
g568
sbs(I32570
I22621
tp572
g0
(g9
g2
Ntp573
Rp574
(dp575
g13
I00
sg14
F2.5762401390454253
sg15
g572
sbs(I38364
I46515
tp576
g0
(g9
g2
Ntp577
Rp578
(dp579
g13
I00
sg14
F-1.2821522587635883
sg15
g576
sbs(I24953
I32368
tp580
g0
(g9
g2
Ntp581
Rp582
(dp583
g13
I01
sg14
F2.974266669199675
sg15
g580
sbs(I32139
I54788
tp584
g0
(g9
g2
Ntp585
Rp586
(dp587
g13
I01
sg14
F-0.5876198234003183
sg15
g584
sbs(I42793
I32900
tp588
g0
(g9
g2
Ntp589
Rp590
(dp591
g13
I00
sg14
F1.10849556302392
sg15
g588
sbs(I55173
I36144
tp592
g0
(g9
g2
Ntp593
Rp594
(dp595
g13
I01
sg14
F0.7633279657907208
sg15
g592
sbs(I26336
I52566
tp596
g0
(g9
g2
Ntp597
Rp598
(dp599
g13
I00
sg14
F-0.8630818255124524
sg15
g596
sbs(I38030
I28391
tp600
g0
(g9
g2
Ntp601
Rp602
(dp603
g13
I01
sg14
F0.2716578210381273
sg15
g600
sbs(I29793
I34896
tp604
g0
(g9
g2
Ntp605
Rp606
(dp607
g13
I01
sg14
F1.8727948325831005
sg15
g604
sbs(I24567
I55549
tp608
g0
(g9
g2
Ntp609
Rp610
(dp611
g13
I00
sg14
F-3.056258132343812
sg15
g608
sbs(I58505
I33911
tp612
g0
(g9
g2
Ntp613
Rp614
(dp615
g13
I01
sg14
F-3.3122095886483236
sg15
g612
sbs(I39750
I28660
tp616
g0
(g9
g2
Ntp617
Rp618
(dp619
g13
I01
sg14
F-0.9729900045458055
sg15
g616
sbs(I0
I18768
tp620
g0
(g9
g2
Ntp621
Rp622
(dp623
g13
I00
sg14
F-0.9964653187935041
sg15
g620
sbs(I33911
I0
tp624
g0
(g9
g2
Ntp625
Rp626
(dp627
g13
I01
sg14
F-0.900226618752857
sg15
g624
sbs(I46283
I43387
tp628
g0
(g9
g2
Ntp629
Rp630
(dp631
g13
I01
sg14
F-1.6404810446177045
sg15
g628
sbs(I-3
I50840
tp632
g0
(g9
g2
Ntp633
Rp634
(dp635
g13
I00
sg14
F0.05653646489750863
sg15
g632
sbs(I22287
I19443
tp636
g0
(g9
g2
Ntp637
Rp638
(dp639
g13
I00
sg14
F-1.4669660528623136
sg15
g636
sbs(I26680
I1
tp640
g0
(g9
g2
Ntp641
Rp642
(dp643
g13
I01
sg14
F-0.43380930323579125
sg15
g640
sbs(I58505
I32139
tp644
g0
(g9
g2
Ntp645
Rp646
(dp647
g13
I01
sg14
F-0.13384384353459428
sg15
g644
sbs(I32324
I26215
tp648
g0
(g9
g2
Ntp649
Rp650
(dp651
g13
I00
sg14
F2.806739009812801
sg15
g648
sbs(I0
I26336
tp652
g0
(g9
g2
Ntp653
Rp654
(dp655
g13
I00
sg14
F-1.4960622856402461
sg15
g652
sbs(I47589
I34090
tp656
g0
(g9
g2
Ntp657
Rp658
(dp659
g13
I00
sg14
F1.4441820447788167
sg15
g656
sbs(I29793
I49196
tp660
g0
(g9
g2
Ntp661
Rp662
(dp663
g13
I00
sg14
F0.14183168278238456
sg15
g660
sbs(I61586
I58722
tp664
g0
(g9
g2
Ntp665
Rp666
(dp667
g13
I01
sg14
F-0.09844347849930374
sg15
g664
sbs(I63257
I22621
tp668
g0
(g9
g2
Ntp669
Rp670
(dp671
g13
I01
sg14
F-2.1387674509376016
sg15
g668
sbs(I31334
I3
tp672
g0
(g9
g2
Ntp673
Rp674
(dp675
g13
I00
sg14
F4.504527996176955
sg15
g672
sbs(I-3
I62923
tp676
g0
(g9
g2
Ntp677
Rp678
(dp679
g13
I01
sg14
F0.7740351051740162
sg15
g676
sbs(I64075
I26336
tp680
g0
(g9
g2
Ntp681
Rp682
(dp683
g13
I01
sg14
F0.05499049064776268
sg15
g680
sbs(I0
I64075
tp684
g0
(g9
g2
Ntp685
Rp686
(dp687
g13
I01
sg14
F1.1859002168975434
sg15
g684
sbs(I55099
I54142
tp688
g0
(g9
g2
Ntp689
Rp690
(dp691
g13
I01
sg14
F1.1501185168367976
sg15
g688
sbs(I50413
I45907
tp692
g0
(g9
g2
Ntp693
Rp694
(dp695
g13
I01
sg14
F0.3255470702605318
sg15
g692
sbs(I49103
I19443
tp696
g0
(g9
g2
Ntp697
Rp698
(dp699
g13
I01
sg14
F-0.22158797161777566
sg15
g696
sbs(I46614
I1
tp700
g0
(g9
g2
Ntp701
Rp702
(dp703
g13
I01
sg14
F-1.7245114622224347
sg15
g700
sbs(I46330
I29830
tp704
g0
(g9
g2
Ntp705
Rp706
(dp707
g13
I00
sg14
F1.66458476206143
sg15
g704
sbs(I38364
I23001
tp708
g0
(g9
g2
Ntp709
Rp710
(dp711
g13
I00
sg14
F0.5483842032792302
sg15
g708
sbs(I52416
I48567
tp712
g0
(g9
g2
Ntp713
Rp714
(dp715
g13
I01
sg14
F-1.1088545858140846
sg15
g712
sbs(I50840
I28660
tp716
g0
(g9
g2
Ntp717
Rp718
(dp719
g13
I00
sg14
F-2.0646709488136463
sg15
g716
sbs(I36922
I22894
tp720
g0
(g9
g2
Ntp721
Rp722
(dp723
g13
I00
sg14
F-0.7713767054747412
sg15
g720
sbs(I25088
I49215
tp724
g0
(g9
g2
Ntp725
Rp726
(dp727
g13
I01
sg14
F1.441529619376041
sg15
g724
sbs(I-3
I22621
tp728
g0
(g9
g2
Ntp729
Rp730
(dp731
g13
I01
sg14
F2.1402551330716855
sg15
g728
sbs(I29625
I17791
tp732
g0
(g9
g2
Ntp733
Rp734
(dp735
g13
I01
sg14
F-1.2548343031925766
sg15
g732
sbs(I32900
I51602
tp736
g0
(g9
g2
Ntp737
Rp738
(dp739
g13
I01
sg14
F1.191742666807604
sg15
g736
sbs(I56774
I50337
tp740
g0
(g9
g2
Ntp741
Rp742
(dp743
g13
I01
sg14
F-0.18718410342698497
sg15
g740
sbs(I26336
I38030
tp744
g0
(g9
g2
Ntp745
Rp746
(dp747
g13
I00
sg14
F1.2840684736019172
sg15
g744
sbs(I31828
I1
tp748
g0
(g9
g2
Ntp749
Rp750
(dp751
g13
I00
sg14
F0.07202839890569286
sg15
g748
sbs(I57007
I17791
tp752
g0
(g9
g2
Ntp753
Rp754
(dp755
g13
I00
sg14
F-0.6751501363793175
sg15
g752
sbs(I26680
I45315
tp756
g0
(g9
g2
Ntp757
Rp758
(dp759
g13
I00
sg14
F1.7607227648969273
sg15
g756
sbs(I36144
I40693
tp760
g0
(g9
g2
Ntp761
Rp762
(dp763
g13
I01
sg14
F1.9950025540181562
sg15
g760
sbs(I26505
I35972
tp764
g0
(g9
g2
Ntp765
Rp766
(dp767
g13
I01
sg14
F1.9425770113763299
sg15
g764
sbs(I31828
I63257
tp768
g0
(g9
g2
Ntp769
Rp770
(dp771
g13
I01
sg14
F-2.062787394398914
sg15
g768
sbs(I59534
I22621
tp772
g0
(g9
g2
Ntp773
Rp774
(dp775
g13
I01
sg14
F1.113232136832378
sg15
g772
sbs(I55259
I22621
tp776
g0
(g9
g2
Ntp777
Rp778
(dp779
g13
I01
sg14
F0.5505220259054278
sg15
g776
sbs(I43227
I24567
tp780
g0
(g9
g2
Ntp781
Rp782
(dp783
g13
I00
sg14
F0.6588452818414203
sg15
g780
sbs(I52566
I27673
tp784
g0
(g9
g2
Ntp785
Rp786
(dp787
g13
I01
sg14
F-0.7023469434999889
sg15
g784
sbs(I32570
I59534
tp788
g0
(g9
g2
Ntp789
Rp790
(dp791
g13
I01
sg14
F-2.0753132038563487
sg15
g788
sbs(I61977
I35972
tp792
g0
(g9
g2
Ntp793
Rp794
(dp795
g13
I01
sg14
F-0.2357239238058878
sg15
g792
sbs(I0
I62342
tp796
g0
(g9
g2
Ntp797
Rp798
(dp799
g13
I01
sg14
F-0.5274079098759819
sg15
g796
sbs(I53684
I58722
tp800
g0
(g9
g2
Ntp801
Rp802
(dp803
g13
I00
sg14
F-2.088308346182287
sg15
g800
sbs(I50413
I16630
tp804
g0
(g9
g2
Ntp805
Rp806
(dp807
g13
I01
sg14
F-1.0632706400342822
sg15
g804
sbs(I33431
I39165
tp808
g0
(g9
g2
Ntp809
Rp810
(dp811
g13
I01
sg14
F0.5242553039989732
sg15
g808
sbs(I53344
I51602
tp812
g0
(g9
g2
Ntp813
Rp814
(dp815
g13
I01
sg14
F-4.896711401509881
sg15
g812
sbs(I26215
I34090
tp816
g0
(g9
g2
Ntp817
Rp818
(dp819
g13
I00
sg14
F-1.1778384522350416
sg15
g816
sbs(I30071
I1
tp820
g0
(g9
g2
Ntp821
Rp822
(dp823
g13
I00
sg14
F-0.4728061761621099
sg15
g820
sbs(I-3
I22894
tp824
g0
(g9
g2
Ntp825
Rp826
(dp827
g13
I01
sg14
F-0.48275022844808646
sg15
g824
sbs(I46515
I37857
tp828
g0
(g9
g2
Ntp829
Rp830
(dp831
g13
I01
sg14
F-0.8997873473341935
sg15
g828
sbs(I56774
I29793
tp832
g0
(g9
g2
Ntp833
Rp834
(dp835
g13
I01
sg14
F0.09344583817533789
sg15
g832
sbs(I63764
I29830
tp836
g0
(g9
g2
Ntp837
Rp838
(dp839
g13
I01
sg14
F1.9820324520136114
sg15
g836
sbs(I31828
I49786
tp840
g0
(g9
g2
Ntp841
Rp842
(dp843
g13
I01
sg14
F0.9049467947408144
sg15
g840
sbs(I26680
I62730
tp844
g0
(g9
g2
Ntp845
Rp846
(dp847
g13
I01
sg14
F-0.4982905080824562
sg15
g844
sbs(I57891
I53684
tp848
g0
(g9
g2
Ntp849
Rp850
(dp851
g13
I00
sg14
F0.21937221940093243
sg15
g848
sbs(I49103
I51602
tp852
g0
(g9
g2
Ntp853
Rp854
(dp855
g13
I00
sg14
F1.3665265582771542
sg15
g852
sbs(I49786
I1
tp856
g0
(g9
g2
Ntp857
Rp858
(dp859
g13
I01
sg14
F1.50676531659775
sg15
g856
sbs(I55549
I51499
tp860
g0
(g9
g2
Ntp861
Rp862
(dp863
g13
I00
sg14
F-0.03262949583245778
sg15
g860
sbs(I49949
I38030
tp864
g0
(g9
g2
Ntp865
Rp866
(dp867
g13
I00
sg14
F0.06653434077170584
sg15
g864
sbs(I30471
I40693
tp868
g0
(g9
g2
Ntp869
Rp870
(dp871
g13
I01
sg14
F1.0088019865986335
sg15
g868
sbs(I24567
I37857
tp872
g0
(g9
g2
Ntp873
Rp874
(dp875
g13
I00
sg14
F2.8882214793194905
sg15
g872
sbs(I17791
I57891
tp876
g0
(g9
g2
Ntp877
Rp878
(dp879
g13
I00
sg14
F0.25843749592407894
sg15
g876
sbs(I44645
I22621
tp880
g0
(g9
g2
Ntp881
Rp882
(dp883
g13
I00
sg14
F0.30995770616787377
sg15
g880
sbs(I-4
I44818
tp884
g0
(g9
g2
Ntp885
Rp886
(dp887
g13
I01
sg14
F2.5723626719016006
sg15
g884
sbs(I58386
I3
tp888
g0
(g9
g2
Ntp889
Rp890
(dp891
g13
I01
sg14
F-1.695729973911667
sg15
g888
sbs(I30471
I58191
tp892
g0
(g9
g2
Ntp893
Rp894
(dp895
g13
I00
sg14
F-0.6253231668927335
sg15
g892
sbs(I1
I60517
tp896
g0
(g9
g2
Ntp897
Rp898
(dp899
g13
I01
sg14
F1.4127848176935722
sg15
g896
sbs(I26505
I29625
tp900
g0
(g9
g2
Ntp901
Rp902
(dp903
g13
I01
sg14
F3.405926490206184
sg15
g900
sbs(I26680
I29830
tp904
g0
(g9
g2
Ntp905
Rp906
(dp907
g13
I00
sg14
F0.9293445627512784
sg15
g904
sbs(I24567
I29793
tp908
g0
(g9
g2
Ntp909
Rp910
(dp911
g13
I00
sg14
F-0.19984747380696807
sg15
g908
sbs(I37653
I29625
tp912
g0
(g9
g2
Ntp913
Rp914
(dp915
g13
I01
sg14
F-0.314803523981553
sg15
g912
sbs(I58191
I0
tp916
g0
(g9
g2
Ntp917
Rp918
(dp919
g13
I01
sg14
F-1.9658346707200565
sg15
g916
sbs(I24567
I30071
tp920
g0
(g9
g2
Ntp921
Rp922
(dp923
g13
I01
sg14
F0.45329411153010857
sg15
g920
sbs(I56274
I34090
tp924
g0
(g9
g2
Ntp925
Rp926
(dp927
g13
I01
sg14
F-0.1686826077852726
sg15
g924
sbs(I19443
I47589
tp928
g0
(g9
g2
Ntp929
Rp930
(dp931
g13
I00
sg14
F5.333820982245178
sg15
g928
sbs(I48567
I38030
tp932
g0
(g9
g2
Ntp933
Rp934
(dp935
g13
I01
sg14
F-1.179171112012833
sg15
g932
sbs(I50767
I22621
tp936
g0
(g9
g2
Ntp937
Rp938
(dp939
g13
I00
sg14
F-0.3143337340889852
sg15
g936
sbs(I32570
I32900
tp940
g0
(g9
g2
Ntp941
Rp942
(dp943
g13
I00
sg14
F-0.8875439286248157
sg15
g940
sbs(I36144
I28660
tp944
g0
(g9
g2
Ntp945
Rp946
(dp947
g13
I00
sg14
F-1.593124601677105
sg15
g944
sbs(I50337
I34090
tp948
g0
(g9
g2
Ntp949
Rp950
(dp951
g13
I00
sg14
F-2.631951781355004
sg15
g948
sbs(I26680
I63764
tp952
g0
(g9
g2
Ntp953
Rp954
(dp955
g13
I01
sg14
F1.2711089489730558
sg15
g952
sbs(I-3
I60276
tp956
g0
(g9
g2
Ntp957
Rp958
(dp959
g13
I01
sg14
F1.7476774547852114
sg15
g956
sbs(I59630
I26336
tp960
g0
(g9
g2
Ntp961
Rp962
(dp963
g13
I00
sg14
F0.8280509614700693
sg15
g960
sbssS'nodes'
p964
(dp965
I0
g0
(cneat.genes
DefaultNodeGene
p966
g2
Ntp967
Rp968
(dp969
S'activation'
p970
S'sigmoid'
p971
sS'bias'
p972
F-0.6219307684603821
sS'response'
p973
F1.0
sg15
I0
sS'aggregation'
p974
S'sum'
p975
sbsI1
g0
(g966
g2
Ntp976
Rp977
(dp978
g970
g971
sg972
F0.3596243376440599
sg973
F1.0
sg15
I1
sg974
g975
sbsI2
g0
(g966
g2
Ntp979
Rp980
(dp981
g970
g971
sg972
F-2.377608842222443
sg973
F1.0
sg15
I2
sg974
g975
sbsI3
g0
(g966
g2
Ntp982
Rp983
(dp984
g970
g971
sg972
F0.3813616796070889
sg973
F1.0
sg15
I3
sg974
g975
sbsI54788
g0
(g966
g2
Ntp985
Rp986
(dp987
g970
g971
sg972
F-1.5992948974933476
sg973
F1.0
sg15
I54788
sg974
g975
sbsI60933
g0
(g966
g2
Ntp988
Rp989
(dp990
g970
g971
sg972
F0.955267235265941
sg973
F1.0
sg15
I60933
sg974
g975
sbsI35338
g0
(g966
g2
Ntp991
Rp992
(dp993
g970
g971
sg972
F-1.0217407958048192
sg973
F1.0
sg15
I35338
sg974
g975
sbsI58894
g0
(g966
g2
Ntp994
Rp995
(dp996
g970
g971
sg972
F1.2122702667833012
sg973
F1.0
sg15
I58894
sg974
g975
sbsI34320
g0
(g966
g2
Ntp997
Rp998
(dp999
g970
g971
sg972
F-0.3939347962248798
sg973
F1.0
sg15
I34320
sg974
g975
sbsI58386
g0
(g966
g2
Ntp1000
Rp1001
(dp1002
g970
g971
sg972
F-1.0320923977986776
sg973
F1.0
sg15
I58386
sg974
g975
sbsI53763
g0
(g966
g2
Ntp1003
Rp1004
(dp1005
g970
g971
sg972
F-0.15306704433153384
sg973
F1.0
sg15
I53763
sg974
g975
sbsI46614
g0
(g966
g2
Ntp1006
Rp1007
(dp1008
g970
g971
sg972
F-0.6031745035606336
sg973
F1.0
sg15
I46614
sg974
g975
sbsI27673
g0
(g966
g2
Ntp1009
Rp1010
(dp1011
g970
g971
sg972
F0.303740273952515
sg973
F1.0
sg15
I27673
sg974
g975
sbsI62639
g0
(g966
g2
Ntp1012
Rp1013
(dp1014
g970
g971
sg972
F-1.641365418145752
sg973
F1.0
sg15
I62639
sg974
g975
sbsI57891
g0
(g966
g2
Ntp1015
Rp1016
(dp1017
g970
g971
sg972
F-1.369041087755831
sg973
F1.0
sg15
I57891
sg974
g975
sbsI60452
g0
(g966
g2
Ntp1018
Rp1019
(dp1020
g970
g971
sg972
F1.7308418408525956
sg973
F1.0
sg15
I60452
sg974
g975
sbsI49196
g0
(g966
g2
Ntp1021
Rp1022
(dp1023
g970
g971
sg972
F2.752662417562049
sg973
F1.0
sg15
I49196
sg974
g975
sbsI59446
g0
(g966
g2
Ntp1024
Rp1025
(dp1026
g970
g971
sg972
F1.7772396189017095
sg973
F1.0
sg15
I59446
sg974
g975
sbsI58423
g0
(g966
g2
Ntp1027
Rp1028
(dp1029
g970
g971
sg972
F-1.2020901607814842
sg973
F1.0
sg15
I58423
sg974
g975
sbsI26680
g0
(g966
g2
Ntp1030
Rp1031
(dp1032
g970
g971
sg972
F-0.2881460364935391
sg973
F1.0
sg15
I26680
sg974
g975
sbsI36922
g0
(g966
g2
Ntp1033
Rp1034
(dp1035
g970
g971
sg972
F-0.8130049350925448
sg973
F1.0
sg15
I36922
sg974
g975
sbsI49215
g0
(g966
g2
Ntp1036
Rp1037
(dp1038
g970
g971
sg972
F-0.41884278592793767
sg973
F1.0
sg15
I49215
sg974
g975
sbsI32324
g0
(g966
g2
Ntp1039
Rp1040
(dp1041
g970
g971
sg972
F-1.0004148849668437
sg973
F1.0
sg15
I32324
sg974
g975
sbsI64075
g0
(g966
g2
Ntp1042
Rp1043
(dp1044
g970
g971
sg972
F-1.6547446225372873
sg973
F1.0
sg15
I64075
sg974
g975
sbsI50767
g0
(g966
g2
Ntp1045
Rp1046
(dp1047
g970
g971
sg972
F0.7889026348161657
sg973
F1.0
sg15
I50767
sg974
g975
sbsI34896
g0
(g966
g2
Ntp1048
Rp1049
(dp1050
g970
g971
sg972
F-1.3238223236448918
sg973
F1.0
sg15
I34896
sg974
g975
sbsI57425
g0
(g966
g2
Ntp1051
Rp1052
(dp1053
g970
g971
sg972
F-2.0927768212124214
sg973
F1.0
sg15
I57425
sg974
g975
sbsI31828
g0
(g966
g2
Ntp1054
Rp1055
(dp1056
g970
g971
sg972
F0.37231099892887026
sg973
F1.0
sg15
I31828
sg974
g975
sbsI22621
g0
(g966
g2
Ntp1057
Rp1058
(dp1059
g970
g971
sg972
F2.0002460364325048
sg973
F1.0
sg15
I22621
sg974
g975
sbsI60517
g0
(g966
g2
Ntp1060
Rp1061
(dp1062
g970
g971
sg972
F1.0986837409740051
sg973
F1.0
sg15
I60517
sg974
g975
sbsI53344
g0
(g966
g2
Ntp1063
Rp1064
(dp1065
g970
g971
sg972
F3.460379903749936
sg973
F1.0
sg15
I53344
sg974
g975
sbsI29793
g0
(g966
g2
Ntp1066
Rp1067
(dp1068
g970
g971
sg972
F0.4349611567248434
sg973
F1.0
sg15
I29793
sg974
g975
sbsI44645
g0
(g966
g2
Ntp1069
Rp1070
(dp1071
g970
g971
sg972
F2.5070420320307543
sg973
F1.0
sg15
I44645
sg974
g975
sbsI31334
g0
(g966
g2
Ntp1072
Rp1073
(dp1074
g970
g971
sg972
F-1.774536618391323
sg973
F1.0
sg15
I31334
sg974
g975
sbsI26215
g0
(g966
g2
Ntp1075
Rp1076
(dp1077
g970
g971
sg972
F1.29702332824822
sg973
F1.0
sg15
I26215
sg974
g975
sbsI17170
g0
(g966
g2
Ntp1078
Rp1079
(dp1080
g970
g971
sg972
F-0.6234794568058192
sg973
F1.0
sg15
I17170
sg974
g975
sbsI32368
g0
(g966
g2
Ntp1081
Rp1082
(dp1083
g970
g971
sg972
F2.1529966348938143
sg973
F1.0
sg15
I32368
sg974
g975
sbsI57972
g0
(g966
g2
Ntp1084
Rp1085
(dp1086
g970
g971
sg972
F-1.194386312633024
sg973
F1.0
sg15
I57972
sg974
g975
sbsI62070
g0
(g966
g2
Ntp1087
Rp1088
(dp1089
g970
g971
sg972
F0.13302438890747115
sg973
F1.0
sg15
I62070
sg974
g975
sbsI33911
g0
(g966
g2
Ntp1090
Rp1091
(dp1092
g970
g971
sg972
F-1.2827002799374516
sg973
F1.0
sg15
I33911
sg974
g975
sbsI60024
g0
(g966
g2
Ntp1093
Rp1094
(dp1095
g970
g971
sg972
F1.5735662890972066
sg973
F1.0
sg15
I60024
sg974
g975
sbsI49786
g0
(g966
g2
Ntp1096
Rp1097
(dp1098
g970
g971
sg972
F0.9961033401932996
sg973
F1.0
sg15
I49786
sg974
g975
sbsI32900
g0
(g966
g2
Ntp1099
Rp1100
(dp1101
g970
g971
sg972
F-0.8903830998167647
sg973
F1.0
sg15
I32900
sg974
g975
sbsI64022
g0
(g966
g2
Ntp1102
Rp1103
(dp1104
g970
g971
sg972
F-1.0725423823772788
sg973
F1.0
sg15
I64022
sg974
g975
sbsI29830
g0
(g966
g2
Ntp1105
Rp1106
(dp1107
g970
g971
sg972
F0.0490305062650344
sg973
F1.0
sg15
I29830
sg974
g975
sbsI58505
g0
(g966
g2
Ntp1108
Rp1109
(dp1110
g970
g971
sg972
F-1.2107274031435464
sg973
F1.0
sg15
I58505
sg974
g975
sbsI38030
g0
(g966
g2
Ntp1111
Rp1112
(dp1113
g970
g971
sg972
F0.921372490558263
sg973
F1.0
sg15
I38030
sg974
g975
sbsI61586
g0
(g966
g2
Ntp1114
Rp1115
(dp1116
g970
g971
sg972
F1.0244338009800595
sg973
F1.0
sg15
I61586
sg974
g975
sbsI33431
g0
(g966
g2
Ntp1117
Rp1118
(dp1119
g970
g971
sg972
F1.7761899221883026
sg973
F1.0
sg15
I33431
sg974
g975
sbsI50840
g0
(g966
g2
Ntp1120
Rp1121
(dp1122
g970
g971
sg972
F-0.057949958188212414
sg973
F1.0
sg15
I50840
sg974
g975
sbsI63645
g0
(g966
g2
Ntp1123
Rp1124
(dp1125
g970
g971
sg972
F-0.1526178543298517
sg973
F1.0
sg15
I63645
sg974
g975
sbsI50337
g0
(g966
g2
Ntp1126
Rp1127
(dp1128
g970
g971
sg972
F-0.9796807179694564
sg973
F1.0
sg15
I50337
sg974
g975
sbsI57007
g0
(g966
g2
Ntp1129
Rp1130
(dp1131
g970
g971
sg972
F-2.163430248523134
sg973
F1.0
sg15
I57007
sg974
g975
sbsI59060
g0
(g966
g2
Ntp1132
Rp1133
(dp1134
g970
g971
sg972
F-1.7936534468346694
sg973
F1.0
sg15
I59060
sg974
g975
sbsI60276
g0
(g966
g2
Ntp1135
Rp1136
(dp1137
g970
g971
sg972
F-2.2732881368529143
sg973
F1.0
sg15
I60276
sg974
g975
sbsI52416
g0
(g966
g2
Ntp1138
Rp1139
(dp1140
g970
g971
sg972
F1.5662604961999727
sg973
F1.0
sg15
I52416
sg974
g975
sbsI56514
g0
(g966
g2
Ntp1141
Rp1142
(dp1143
g970
g971
sg972
F0.5974473693888146
sg973
F1.0
sg15
I56514
sg974
g975
sbsI46283
g0
(g966
g2
Ntp1144
Rp1145
(dp1146
g970
g971
sg972
F0.9882552431028868
sg973
F1.0
sg15
I46283
sg974
g975
sbsI61977
g0
(g966
g2
Ntp1147
Rp1148
(dp1149
g970
g971
sg972
F-0.07289277577661013
sg973
F1.0
sg15
I61977
sg974
g975
sbsI49371
g0
(g966
g2
Ntp1150
Rp1151
(dp1152
g970
g971
sg972
F0.00539595062371645
sg973
F1.0
sg15
I49371
sg974
g975
sbsI26336
g0
(g966
g2
Ntp1153
Rp1154
(dp1155
g970
g971
sg972
F-2.4863844648867897
sg973
F1.0
sg15
I26336
sg974
g975
sbsI28391
g0
(g966
g2
Ntp1156
Rp1157
(dp1158
g970
g971
sg972
F-0.6455047979988159
sg973
F1.0
sg15
I28391
sg974
g975
sbsI50413
g0
(g966
g2
Ntp1159
Rp1160
(dp1161
g970
g971
sg972
F-0.44223389757893705
sg973
F1.0
sg15
I50413
sg974
g975
sbsI59630
g0
(g966
g2
Ntp1162
Rp1163
(dp1164
g970
g971
sg972
F-0.3549104970009925
sg973
F1.0
sg15
I59630
sg974
g975
sbsI52467
g0
(g966
g2
Ntp1165
Rp1166
(dp1167
g970
g971
sg972
F-1.455479328766272
sg973
F1.0
sg15
I52467
sg974
g975
sbsI40693
g0
(g966
g2
Ntp1168
Rp1169
(dp1170
g970
g971
sg972
F0.5055797728448516
sg973
F1.0
sg15
I40693
sg974
g975
sbsI16630
g0
(g966
g2
Ntp1171
Rp1172
(dp1173
g970
g971
sg972
F-0.8342785076816768
sg973
F1.0
sg15
I16630
sg974
g975
sbsI58105
g0
(g966
g2
Ntp1174
Rp1175
(dp1176
g970
g971
sg972
F2.6504782656096957
sg973
F1.0
sg15
I58105
sg974
g975
sbsI46330
g0
(g966
g2
Ntp1177
Rp1178
(dp1179
g970
g971
sg972
F-1.6551007347997582
sg973
F1.0
sg15
I46330
sg974
g975
sbsI39165
g0
(g966
g2
Ntp1180
Rp1181
(dp1182
g970
g971
sg972
F0.445441853506227
sg973
F1.0
sg15
I39165
sg974
g975
sbsI45315
g0
(g966
g2
Ntp1183
Rp1184
(dp1185
g970
g971
sg972
F-3.6552109442841347
sg973
F1.0
sg15
I45315
sg974
g975
sbsI36101
g0
(g966
g2
Ntp1186
Rp1187
(dp1188
g970
g971
sg972
F0.3019763782219591
sg973
F1.0
sg15
I36101
sg974
g975
sbsI30471
g0
(g966
g2
Ntp1189
Rp1190
(dp1191
g970
g971
sg972
F-0.6346002445813915
sg973
F1.0
sg15
I30471
sg974
g975
sbsI62730
g0
(g966
g2
Ntp1192
Rp1193
(dp1194
g970
g971
sg972
F1.0181191120658206
sg973
F1.0
sg15
I62730
sg974
g975
sbsI22287
g0
(g966
g2
Ntp1195
Rp1196
(dp1197
g970
g971
sg972
F-0.8786513848946566
sg973
F1.0
sg15
I22287
sg974
g975
sbsI44818
g0
(g966
g2
Ntp1198
Rp1199
(dp1200
g970
g971
sg972
F2.1295271108148808
sg973
F1.0
sg15
I44818
sg974
g975
sbsI63764
g0
(g966
g2
Ntp1201
Rp1202
(dp1203
g970
g971
sg972
F1.7229102787582085
sg973
F1.0
sg15
I63764
sg974
g975
sbsI37653
g0
(g966
g2
Ntp1204
Rp1205
(dp1206
g970
g971
sg972
F-0.546020331301543
sg973
F1.0
sg15
I37653
sg974
g975
sbsI25088
g0
(g966
g2
Ntp1207
Rp1208
(dp1209
g970
g971
sg972
F-0.21551936838550897
sg973
F1.0
sg15
I25088
sg974
g975
sbsI63257
g0
(g966
g2
Ntp1210
Rp1211
(dp1212
g970
g971
sg972
F-0.0100388729565865
sg973
F1.0
sg15
I63257
sg974
g975
sbsI49949
g0
(g966
g2
Ntp1213
Rp1214
(dp1215
g970
g971
sg972
F-1.1218293354590485
sg973
F1.0
sg15
I49949
sg974
g975
sbsI43227
g0
(g966
g2
Ntp1216
Rp1217
(dp1218
g970
g971
sg972
F-3.901209125439539
sg973
F1.0
sg15
I43227
sg974
g975
sbsI42793
g0
(g966
g2
Ntp1219
Rp1220
(dp1221
g970
g971
sg972
F0.5578512601689523
sg973
F1.0
sg15
I42793
sg974
g975
sbsI34090
g0
(g966
g2
Ntp1222
Rp1223
(dp1224
g970
g971
sg972
F3.4248847893552052
sg973
F1.0
sg15
I34090
sg974
g975
sbsI51499
g0
(g966
g2
Ntp1225
Rp1226
(dp1227
g970
g971
sg972
F1.9768717827052429
sg973
F1.0
sg15
I51499
sg974
g975
sbsI36144
g0
(g966
g2
Ntp1228
Rp1229
(dp1230
g970
g971
sg972
F0.058970632889565215
sg973
F1.0
sg15
I36144
sg974
g975
sbsI40247
g0
(g966
g2
Ntp1231
Rp1232
(dp1233
g970
g971
sg972
F1.898920999044456
sg973
F1.0
sg15
I40247
sg974
g975
sbsI46904
g0
(g966
g2
Ntp1234
Rp1235
(dp1236
g970
g971
sg972
F2.563541521741079
sg973
F1.0
sg15
I46904
sg974
g975
sbsI32570
g0
(g966
g2
Ntp1237
Rp1238
(dp1239
g970
g971
sg972
F0.04364953294210139
sg973
F1.0
sg15
I32570
sg974
g975
sbsI55099
g0
(g966
g2
Ntp1240
Rp1241
(dp1242
g970
g971
sg972
F-1.0552263480979966
sg973
F1.0
sg15
I55099
sg974
g975
sbsI61244
g0
(g966
g2
Ntp1243
Rp1244
(dp1245
g970
g971
sg972
F4.113385465535587
sg973
F1.0
sg15
I61244
sg974
g975
sbsI62859
g0
(g966
g2
Ntp1246
Rp1247
(dp1248
g970
g971
sg972
F-0.08887218385009249
sg973
F1.0
sg15
I62859
sg974
g975
sbsI39750
g0
(g966
g2
Ntp1249
Rp1250
(dp1251
g970
g971
sg972
F-1.5918246308648922
sg973
F1.0
sg15
I39750
sg974
g975
sbsI58191
g0
(g966
g2
Ntp1252
Rp1253
(dp1254
g970
g971
sg972
F0.26187788436825143
sg973
F1.0
sg15
I58191
sg974
g975
sbsI18768
g0
(g966
g2
Ntp1255
Rp1256
(dp1257
g970
g971
sg972
F-0.6902782165727233
sg973
F1.0
sg15
I18768
sg974
g975
sbsI59192
g0
(g966
g2
Ntp1258
Rp1259
(dp1260
g970
g971
sg972
F-1.552073997763543
sg973
F1.0
sg15
I59192
sg974
g975
sbsI45907
g0
(g966
g2
Ntp1261
Rp1262
(dp1263
g970
g971
sg972
F4.131815561431205
sg973
F1.0
sg15
I45907
sg974
g975
sbsI59534
g0
(g966
g2
Ntp1264
Rp1265
(dp1266
g970
g971
sg972
F-0.8615948958211508
sg973
F1.0
sg15
I59534
sg974
g975
sbsI52566
g0
(g966
g2
Ntp1267
Rp1268
(dp1269
g970
g971
sg972
F3.8163386863543654
sg973
F1.0
sg15
I52566
sg974
g975
sbsI58722
g0
(g966
g2
Ntp1270
Rp1271
(dp1272
g970
g971
sg972
F1.9014322321572217
sg973
F1.0
sg15
I58722
sg974
g975
sbsI22894
g0
(g966
g2
Ntp1273
Rp1274
(dp1275
g970
g971
sg972
F0.15513107470387655
sg973
F1.0
sg15
I22894
sg974
g975
sbsI59252
g0
(g966
g2
Ntp1276
Rp1277
(dp1278
g970
g971
sg972
F1.0992979077681646
sg973
F1.0
sg15
I59252
sg974
g975
sbsI30071
g0
(g966
g2
Ntp1279
Rp1280
(dp1281
g970
g971
sg972
F2.3595432714698203
sg973
F1.0
sg15
I30071
sg974
g975
sbsI24953
g0
(g966
g2
Ntp1282
Rp1283
(dp1284
g970
g971
sg972
F1.1487837833689878
sg973
F1.0
sg15
I24953
sg974
g975
sbsI43387
g0
(g966
g2
Ntp1285
Rp1286
(dp1287
g970
g971
sg972
F-0.6521414683862877
sg973
F1.0
sg15
I43387
sg974
g975
sbsI54142
g0
(g966
g2
Ntp1288
Rp1289
(dp1290
g970
g971
sg972
F2.645019345241549
sg973
F1.0
sg15
I54142
sg974
g975
sbsI17791
g0
(g966
g2
Ntp1291
Rp1292
(dp1293
g970
g971
sg972
F0.6003932029511726
sg973
F1.0
sg15
I17791
sg974
g975
sbsI55173
g0
(g966
g2
Ntp1294
Rp1295
(dp1296
g970
g971
sg972
F1.3952218159424024
sg973
F1.0
sg15
I55173
sg974
g975
sbsI62342
g0
(g966
g2
Ntp1297
Rp1298
(dp1299
g970
g971
sg972
F-0.3748233569083439
sg973
F1.0
sg15
I62342
sg974
g975
sbsI26505
g0
(g966
g2
Ntp1300
Rp1301
(dp1302
g970
g971
sg972
F1.079948741780885
sg973
F1.0
sg15
I26505
sg974
g975
sbsI32139
g0
(g966
g2
Ntp1303
Rp1304
(dp1305
g970
g971
sg972
F0.042458573826716695
sg973
F1.0
sg15
I32139
sg974
g975
sbsI51602
g0
(g966
g2
Ntp1306
Rp1307
(dp1308
g970
g971
sg972
F0.9617145610088439
sg973
F1.0
sg15
I51602
sg974
g975
sbsI58775
g0
(g966
g2
Ntp1309
Rp1310
(dp1311
g970
g971
sg972
F-1.0388003424673575
sg973
F1.0
sg15
I58775
sg974
g975
sbsI57242
g0
(g966
g2
Ntp1312
Rp1313
(dp1314
g970
g971
sg972
F0.8367411710893942
sg973
F1.0
sg15
I57242
sg974
g975
sbsI21917
g0
(g966
g2
Ntp1315
Rp1316
(dp1317
g970
g971
sg972
F-1.7966987430437689
sg973
F1.0
sg15
I21917
sg974
g975
sbsI60321
g0
(g966
g2
Ntp1318
Rp1319
(dp1320
g970
g971
sg972
F1.201800358884544
sg973
F1.0
sg15
I60321
sg974
g975
sbsI52141
g0
(g966
g2
Ntp1321
Rp1322
(dp1323
g970
g971
sg972
F-0.7133263860477415
sg973
F1.0
sg15
I52141
sg974
g975
sbsI46515
g0
(g966
g2
Ntp1324
Rp1325
(dp1326
g970
g971
sg972
F2.495413234572946
sg973
F1.0
sg15
I46515
sg974
g975
sbsI53684
g0
(g966
g2
Ntp1327
Rp1328
(dp1329
g970
g971
sg972
F-0.4293368273701146
sg973
F1.0
sg15
I53684
sg974
g975
sbsI48567
g0
(g966
g2
Ntp1330
Rp1331
(dp1332
g970
g971
sg972
F0.18588189962863028
sg973
F1.0
sg15
I48567
sg974
g975
sbsI29625
g0
(g966
g2
Ntp1333
Rp1334
(dp1335
g970
g971
sg972
F-0.21449336567198293
sg973
F1.0
sg15
I29625
sg974
g975
sbsI40830
g0
(g966
g2
Ntp1336
Rp1337
(dp1338
g970
g971
sg972
F0.7381472383684007
sg973
F1.0
sg15
I40830
sg974
g975
sbsI56774
g0
(g966
g2
Ntp1339
Rp1340
(dp1341
g970
g971
sg972
F1.0093110591175893
sg973
F1.0
sg15
I56774
sg974
g975
sbsI62923
g0
(g966
g2
Ntp1342
Rp1343
(dp1344
g970
g971
sg972
F-1.1566616848797453
sg973
F1.0
sg15
I62923
sg974
g975
sbsI49103
g0
(g966
g2
Ntp1345
Rp1346
(dp1347
g970
g971
sg972
F1.302316040503431
sg973
F1.0
sg15
I49103
sg974
g975
sbsI57809
g0
(g966
g2
Ntp1348
Rp1349
(dp1350
g970
g971
sg972
F0.7992779346645661
sg973
F1.0
sg15
I57809
sg974
g975
sbsI56274
g0
(g966
g2
Ntp1351
Rp1352
(dp1353
g970
g971
sg972
F-0.10759468654774393
sg973
F1.0
sg15
I56274
sg974
g975
sbsI23001
g0
(g966
g2
Ntp1354
Rp1355
(dp1356
g970
g971
sg972
F-1.5569467148356988
sg973
F1.0
sg15
I23001
sg974
g975
sbsI55259
g0
(g966
g2
Ntp1357
Rp1358
(dp1359
g970
g971
sg972
F-0.9521562870972676
sg973
F1.0
sg15
I55259
sg974
g975
sbsI38364
g0
(g966
g2
Ntp1360
Rp1361
(dp1362
g970
g971
sg972
F0.6906925787063876
sg973
F1.0
sg15
I38364
sg974
g975
sbsI37857
g0
(g966
g2
Ntp1363
Rp1364
(dp1365
g970
g971
sg972
F-0.5820316548015904
sg973
F1.0
sg15
I37857
sg974
g975
sbsI35972
g0
(g966
g2
Ntp1366
Rp1367
(dp1368
g970
g971
sg972
F1.4501779674479258
sg973
F1.0
sg15
I35972
sg974
g975
sbsI47589
g0
(g966
g2
Ntp1369
Rp1370
(dp1371
g970
g971
sg972
F0.7558400601454917
sg973
F1.0
sg15
I47589
sg974
g975
sbsI56107
g0
(g966
g2
Ntp1372
Rp1373
(dp1374
g970
g971
sg972
F2.018786213741275
sg973
F1.0
sg15
I56107
sg974
g975
sbsI55549
g0
(g966
g2
Ntp1375
Rp1376
(dp1377
g970
g971
sg972
F1.2668699278113085
sg973
F1.0
sg15
I55549
sg974
g975
sbsI47600
g0
(g966
g2
Ntp1378
Rp1379
(dp1380
g970
g971
sg972
F-0.43910244067167425
sg973
F1.0
sg15
I47600
sg974
g975
sbsI19443
g0
(g966
g2
Ntp1381
Rp1382
(dp1383
g970
g971
sg972
F-0.6594975886686899
sg973
F1.0
sg15
I19443
sg974
g975
sbsI28660
g0
(g966
g2
Ntp1384
Rp1385
(dp1386
g970
g971
sg972
F3.7938272432947615
sg973
F1.0
sg15
I28660
sg974
g975
sbsI24567
g0
(g966
g2
Ntp1387
Rp1388
(dp1389
g970
g971
sg972
F-0.7111441362714128
sg973
F1.0
sg15
I24567
sg974
g975
sbsI43519
g0
(g966
g2
Ntp1390
Rp1391
(dp1392
g970
g971
sg972
F-0.4876648125671683
sg973
F1.0
sg15
I43519
sg974
g975
sbssg15
I193614
sS'fitness'
p1393
F-0.16966255502852645
sb.