ccopy_reg
_reconstructor
p0
(cneat.genome
DefaultGenome
p1
c__builtin__
object
p2
Ntp3
Rp4
(dp5
S'connections'
p6
(dp7
(I27673
I22621
tp8
g0
(cneat.genes
DefaultConnectionGene
p9
g2
Ntp10
Rp11
(dp12
S'enabled'
p13
I01
sS'weight'
p14
F-0.03975461094875016
sS'key'
p15
g8
sbs(I54142
I29793
tp16
g0
(g9
g2
Ntp17
Rp18
(dp19
g13
I00
sg14
F-0.2845332944408642
sg15
g16
sbs(I-1
I0
tp20
g0
(g9
g2
Ntp21
Rp22
(dp23
g13
I01
sg14
F0.7584677804841771
sg15
g20
sbs(I37653
I29625
tp24
g0
(g9
g2
Ntp25
Rp26
(dp27
g13
I00
sg14
F-1.031226985171122
sg15
g24
sbs(I40693
I1
tp28
g0
(g9
g2
Ntp29
Rp30
(dp31
g13
I00
sg14
F-1.5199021387378666
sg15
g28
sbs(I29537
I46515
tp32
g0
(g9
g2
Ntp33
Rp34
(dp35
g13
I00
sg14
F2.757639443432743
sg15
g32
sbs(I45907
I32324
tp36
g0
(g9
g2
Ntp37
Rp38
(dp39
g13
I01
sg14
F0.6374607635701754
sg15
g36
sbs(I47600
I58475
tp40
g0
(g9
g2
Ntp41
Rp42
(dp43
g13
I01
sg14
F-1.9901793731608755
sg15
g40
sbs(I51351
I3
tp44
g0
(g9
g2
Ntp45
Rp46
(dp47
g13
I00
sg14
F2.870674689357959
sg15
g44
sbs(I29537
I58423
tp48
g0
(g9
g2
Ntp49
Rp50
(dp51
g13
I00
sg14
F-1.5668393618001228
sg15
g48
sbs(I49949
I56514
tp52
g0
(g9
g2
Ntp53
Rp54
(dp55
g13
I00
sg14
F-0.3651520690277885
sg15
g52
sbs(I21917
I33028
tp56
g0
(g9
g2
Ntp57
Rp58
(dp59
g13
I01
sg14
F0.16528103497088203
sg15
g56
sbs(I1
I62309
tp60
g0
(g9
g2
Ntp61
Rp62
(dp63
g13
I01
sg14
F0.8869351342615968
sg15
g60
sbs(I63417
I22621
tp64
g0
(g9
g2
Ntp65
Rp66
(dp67
g13
I01
sg14
F-2.972872855239725
sg15
g64
sbs(I-4
I44818
tp68
g0
(g9
g2
Ntp69
Rp70
(dp71
g13
I01
sg14
F-0.10636736099818647
sg15
g68
sbs(I58105
I58386
tp72
g0
(g9
g2
Ntp73
Rp74
(dp75
g13
I01
sg14
F-0.2386413812271041
sg15
g72
sbs(I36922
I63881
tp76
g0
(g9
g2
Ntp77
Rp78
(dp79
g13
I01
sg14
F0.8195036071346298
sg15
g76
sbs(I57809
I29537
tp80
g0
(g9
g2
Ntp81
Rp82
(dp83
g13
I01
sg14
F1.2645469573766206
sg15
g80
sbs(I32900
I33275
tp84
g0
(g9
g2
Ntp85
Rp86
(dp87
g13
I01
sg14
F-1.3581255112998754
sg15
g84
sbs(I52416
I64176
tp88
g0
(g9
g2
Ntp89
Rp90
(dp91
g13
I01
sg14
F0.42336763977126196
sg15
g88
sbs(I26546
I38364
tp92
g0
(g9
g2
Ntp93
Rp94
(dp95
g13
I00
sg14
F-4.146387753704024
sg15
g92
sbs(I29537
I59501
tp96
g0
(g9
g2
Ntp97
Rp98
(dp99
g13
I01
sg14
F-0.6530865075752404
sg15
g96
sbs(I60403
I48567
tp100
g0
(g9
g2
Ntp101
Rp102
(dp103
g13
I01
sg14
F-2.814774281920789
sg15
g100
sbs(I34320
I26215
tp104
g0
(g9
g2
Ntp105
Rp106
(dp107
g13
I00
sg14
F0.47501134893039254
sg15
g104
sbs(I-1
I49371
tp108
g0
(g9
g2
Ntp109
Rp110
(dp111
g13
I00
sg14
F0.7252114139858543
sg15
g108
sbs(I28660
I16630
tp112
g0
(g9
g2
Ntp113
Rp114
(dp115
g13
I00
sg14
F1.682385651432389
sg15
g112
sbs(I26215
I58650
tp116
g0
(g9
g2
Ntp117
Rp118
(dp119
g13
I01
sg14
F0.6410505119920651
sg15
g116
sbs(I36922
I40247
tp120
g0
(g9
g2
Ntp121
Rp122
(dp123
g13
I00
sg14
F-0.14501952817954664
sg15
g120
sbs(I29537
I52141
tp124
g0
(g9
g2
Ntp125
Rp126
(dp127
g13
I00
sg14
F0.6338150008407425
sg15
g124
sbs(I52416
I60403
tp128
g0
(g9
g2
Ntp129
Rp130
(dp131
g13
I01
sg14
F-2.0881327701269625
sg15
g128
sbs(I29537
I26215
tp132
g0
(g9
g2
Ntp133
Rp134
(dp135
g13
I01
sg14
F0.12070008139374178
sg15
g132
sbs(I46904
I23001
tp136
g0
(g9
g2
Ntp137
Rp138
(dp139
g13
I00
sg14
F-0.7826851976198274
sg15
g136
sbs(I-2
I38364
tp140
g0
(g9
g2
Ntp141
Rp142
(dp143
g13
I01
sg14
F0.5141788596535399
sg15
g140
sbs(I61523
I56514
tp144
g0
(g9
g2
Ntp145
Rp146
(dp147
g13
I00
sg14
F1.334523302660675
sg15
g144
sbs(I40247
I49371
tp148
g0
(g9
g2
Ntp149
Rp150
(dp151
g13
I01
sg14
F-2.280902346064788
sg15
g148
sbs(I21917
I46283
tp152
g0
(g9
g2
Ntp153
Rp154
(dp155
g13
I01
sg14
F-2.260284982851229
sg15
g152
sbs(I37653
I17170
tp156
g0
(g9
g2
Ntp157
Rp158
(dp159
g13
I01
sg14
F-4.015546708217437
sg15
g156
sbs(I30471
I33911
tp160
g0
(g9
g2
Ntp161
Rp162
(dp163
g13
I00
sg14
F0.8429232296841476
sg15
g160
sbs(I39750
I38030
tp164
g0
(g9
g2
Ntp165
Rp166
(dp167
g13
I00
sg14
F-0.26697739620982763
sg15
g164
sbs(I1
I26818
tp168
g0
(g9
g2
Ntp169
Rp170
(dp171
g13
I00
sg14
F-0.9908744986269752
sg15
g168
sbs(I46515
I37857
tp172
g0
(g9
g2
Ntp173
Rp174
(dp175
g13
I00
sg14
F-1.4566093030075575
sg15
g172
sbs(I30471
I0
tp176
g0
(g9
g2
Ntp177
Rp178
(dp179
g13
I00
sg14
F-0.04325294642944155
sg15
g176
sbs(I29793
I49196
tp180
g0
(g9
g2
Ntp181
Rp182
(dp183
g13
I00
sg14
F2.7553648743288215
sg15
g180
sbs(I33911
I51499
tp184
g0
(g9
g2
Ntp185
Rp186
(dp187
g13
I01
sg14
F0.8464220649301035
sg15
g184
sbs(I48567
I49949
tp188
g0
(g9
g2
Ntp189
Rp190
(dp191
g13
I01
sg14
F-1.7005592130635958
sg15
g188
sbs(I-3
I46283
tp192
g0
(g9
g2
Ntp193
Rp194
(dp195
g13
I01
sg14
F3.3788428922215106
sg15
g192
sbs(I1
I17170
tp196
g0
(g9
g2
Ntp197
Rp198
(dp199
g13
I00
sg14
F-1.7496980297826161
sg15
g196
sbs(I57425
I55960
tp200
g0
(g9
g2
Ntp201
Rp202
(dp203
g13
I00
sg14
F1.8645377656541084
sg15
g200
sbs(I24953
I1
tp204
g0
(g9
g2
Ntp205
Rp206
(dp207
g13
I00
sg14
F2.1997001677839876
sg15
g204
sbs(I58850
I63417
tp208
g0
(g9
g2
Ntp209
Rp210
(dp211
g13
I00
sg14
F0.027384953820302232
sg15
g208
sbs(I29625
I29537
tp212
g0
(g9
g2
Ntp213
Rp214
(dp215
g13
I01
sg14
F-0.4933140708336501
sg15
g212
sbs(I-1
I51602
tp216
g0
(g9
g2
Ntp217
Rp218
(dp219
g13
I01
sg14
F-2.0446512388847786
sg15
g216
sbs(I53684
I38030
tp220
g0
(g9
g2
Ntp221
Rp222
(dp223
g13
I00
sg14
F3.03202193048555
sg15
g220
sbs(I3
I44645
tp224
g0
(g9
g2
Ntp225
Rp226
(dp227
g13
I00
sg14
F-1.8619072568532806
sg15
g224
sbs(I32570
I50767
tp228
g0
(g9
g2
Ntp229
Rp230
(dp231
g13
I00
sg14
F-1.683963943854319
sg15
g228
sbs(I39750
I35972
tp232
g0
(g9
g2
Ntp233
Rp234
(dp235
g13
I01
sg14
F0.9850752071665151
sg15
g232
sbs(I63175
I38030
tp236
g0
(g9
g2
Ntp237
Rp238
(dp239
g13
I00
sg14
F0.12458587371206026
sg15
g236
sbs(I64387
I57891
tp240
g0
(g9
g2
Ntp241
Rp242
(dp243
g13
I01
sg14
F-1.5001029572435955
sg15
g240
sbs(I28391
I29793
tp244
g0
(g9
g2
Ntp245
Rp246
(dp247
g13
I01
sg14
F-0.22836218760147564
sg15
g244
sbs(I37653
I59958
tp248
g0
(g9
g2
Ntp249
Rp250
(dp251
g13
I01
sg14
F2.4567018682483197
sg15
g248
sbs(I1
I26215
tp252
g0
(g9
g2
Ntp253
Rp254
(dp255
g13
I00
sg14
F2.505600044340442
sg15
g252
sbs(I35338
I45907
tp256
g0
(g9
g2
Ntp257
Rp258
(dp259
g13
I01
sg14
F0.11908895450520338
sg15
g256
sbs(I1
I32324
tp260
g0
(g9
g2
Ntp261
Rp262
(dp263
g13
I00
sg14
F0.5570781774488573
sg15
g260
sbs(I21917
I51351
tp264
g0
(g9
g2
Ntp265
Rp266
(dp267
g13
I00
sg14
F0.4129079788519765
sg15
g264
sbs(I-1
I47600
tp268
g0
(g9
g2
Ntp269
Rp270
(dp271
g13
I00
sg14
F0.3594783500695567
sg15
g268
sbs(I50767
I45907
tp272
g0
(g9
g2
Ntp273
Rp274
(dp275
g13
I00
sg14
F0.11433356730914646
sg15
g272
sbs(I1
I32139
tp276
g0
(g9
g2
Ntp277
Rp278
(dp279
g13
I01
sg14
F-0.7525468590248167
sg15
g276
sbs(I26680
I43519
tp280
g0
(g9
g2
Ntp281
Rp282
(dp283
g13
I01
sg14
F-0.8400319792743213
sg15
g280
sbs(I44818
I26336
tp284
g0
(g9
g2
Ntp285
Rp286
(dp287
g13
I00
sg14
F-1.2839594851613132
sg15
g284
sbs(I0
I43387
tp288
g0
(g9
g2
Ntp289
Rp290
(dp291
g13
I00
sg14
F-2.994140919416804
sg15
g288
sbs(I43387
I1
tp292
g0
(g9
g2
Ntp293
Rp294
(dp295
g13
I00
sg14
F-0.4603755169975303
sg15
g292
sbs(I-2
I28527
tp296
g0
(g9
g2
Ntp297
Rp298
(dp299
g13
I00
sg14
F0.7793281170449473
sg15
g296
sbs(I35338
I57425
tp300
g0
(g9
g2
Ntp301
Rp302
(dp303
g13
I01
sg14
F0.9139721224195707
sg15
g300
sbs(I49949
I61523
tp304
g0
(g9
g2
Ntp305
Rp306
(dp307
g13
I01
sg14
F-0.34863911506672307
sg15
g304
sbs(I57242
I45315
tp308
g0
(g9
g2
Ntp309
Rp310
(dp311
g13
I00
sg14
F-2.2858618159823365
sg15
g308
sbs(I58423
I38030
tp312
g0
(g9
g2
Ntp313
Rp314
(dp315
g13
I01
sg14
F1.6995519044219205
sg15
g312
sbs(I49196
I43090
tp316
g0
(g9
g2
Ntp317
Rp318
(dp319
g13
I00
sg14
F-1.0202652289155547
sg15
g316
sbs(I28527
I60957
tp320
g0
(g9
g2
Ntp321
Rp322
(dp323
g13
I01
sg14
F-1.5211595072893882
sg15
g320
sbs(I61639
I36144
tp324
g0
(g9
g2
Ntp325
Rp326
(dp327
g13
I01
sg14
F1.1209494526869839
sg15
g324
sbs(I1
I42793
tp328
g0
(g9
g2
Ntp329
Rp330
(dp331
g13
I01
sg14
F2.527923805787448
sg15
g328
sbs(I42793
I50143
tp332
g0
(g9
g2
Ntp333
Rp334
(dp335
g13
I01
sg14
F-0.8336893952737033
sg15
g332
sbs(I43519
I28660
tp336
g0
(g9
g2
Ntp337
Rp338
(dp339
g13
I01
sg14
F-0.41960436378890686
sg15
g336
sbs(I17791
I64387
tp340
g0
(g9
g2
Ntp341
Rp342
(dp343
g13
I01
sg14
F0.18242851482919342
sg15
g340
sbs(I57809
I60976
tp344
g0
(g9
g2
Ntp345
Rp346
(dp347
g13
I01
sg14
F2.955418103886055
sg15
g344
sbs(I57242
I61158
tp348
g0
(g9
g2
Ntp349
Rp350
(dp351
g13
I00
sg14
F-0.7680771744769966
sg15
g348
sbs(I59684
I29537
tp352
g0
(g9
g2
Ntp353
Rp354
(dp355
g13
I01
sg14
F0.6472113461541644
sg15
g352
sbs(I26546
I28660
tp356
g0
(g9
g2
Ntp357
Rp358
(dp359
g13
I00
sg14
F1.6208688061615648
sg15
g356
sbs(I26336
I58784
tp360
g0
(g9
g2
Ntp361
Rp362
(dp363
g13
I01
sg14
F-1.1113141139427913
sg15
g360
sbs(I55099
I54142
tp364
g0
(g9
g2
Ntp365
Rp366
(dp367
g13
I01
sg14
F-0.6924449471736482
sg15
g364
sbs(I50767
I58850
tp368
g0
(g9
g2
Ntp369
Rp370
(dp371
g13
I01
sg14
F-0.02828356976287938
sg15
g368
sbs(I60957
I45907
tp372
g0
(g9
g2
Ntp373
Rp374
(dp375
g13
I01
sg14
F0.5710855122823112
sg15
g372
sbs(I17791
I38030
tp376
g0
(g9
g2
Ntp377
Rp378
(dp379
g13
I01
sg14
F3.081572539416112
sg15
g376
sbs(I30471
I44818
tp380
g0
(g9
g2
Ntp381
Rp382
(dp383
g13
I00
sg14
F0.453826386546198
sg15
g380
sbs(I48567
I53684
tp384
g0
(g9
g2
Ntp385
Rp386
(dp387
g13
I00
sg14
F-0.8398368205039163
sg15
g384
sbs(I32139
I28660
tp388
g0
(g9
g2
Ntp389
Rp390
(dp391
g13
I01
sg14
F-0.48304275031855715
sg15
g388
sbs(I32139
I28527
tp392
g0
(g9
g2
Ntp393
Rp394
(dp395
g13
I00
sg14
F0.44332789227732283
sg15
g392
sbs(I62947
I36922
tp396
g0
(g9
g2
Ntp397
Rp398
(dp399
g13
I01
sg14
F2.092294697795326
sg15
g396
sbs(I-3
I57007
tp400
g0
(g9
g2
Ntp401
Rp402
(dp403
g13
I00
sg14
F-1.0242313665405296
sg15
g400
sbs(I38030
I30071
tp404
g0
(g9
g2
Ntp405
Rp406
(dp407
g13
I00
sg14
F0.15287124768799426
sg15
g404
sbs(I-1
I53344
tp408
g0
(g9
g2
Ntp409
Rp410
(dp411
g13
I00
sg14
F1.8002282857582763
sg15
g408
sbs(I1
I36922
tp412
g0
(g9
g2
Ntp413
Rp414
(dp415
g13
I01
sg14
F-0.5067001965692328
sg15
g412
sbs(I26336
I38030
tp416
g0
(g9
g2
Ntp417
Rp418
(dp419
g13
I00
sg14
F-0.3997481340265996
sg15
g416
sbs(I32900
I22287
tp420
g0
(g9
g2
Ntp421
Rp422
(dp423
g13
I01
sg14
F0.6511644410019753
sg15
g420
sbs(I-3
I17791
tp424
g0
(g9
g2
Ntp425
Rp426
(dp427
g13
I00
sg14
F3.3205976204716032
sg15
g424
sbs(I-1
I33911
tp428
g0
(g9
g2
Ntp429
Rp430
(dp431
g13
I00
sg14
F-0.7991429404470818
sg15
g428
sbs(I55259
I22621
tp432
g0
(g9
g2
Ntp433
Rp434
(dp435
g13
I01
sg14
F3.4164273908457536
sg15
g432
sbs(I-3
I16630
tp436
g0
(g9
g2
Ntp437
Rp438
(dp439
g13
I00
sg14
F-0.48256025580732936
sg15
g436
sbs(I26336
I27673
tp440
g0
(g9
g2
Ntp441
Rp442
(dp443
g13
I00
sg14
F-0.5839427011351073
sg15
g440
sbs(I50337
I34090
tp444
g0
(g9
g2
Ntp445
Rp446
(dp447
g13
I00
sg14
F0.6459197409654938
sg15
g444
sbs(I44645
I26336
tp448
g0
(g9
g2
Ntp449
Rp450
(dp451
g13
I01
sg14
F0.8463806476325734
sg15
g448
sbs(I60642
I58650
tp452
g0
(g9
g2
Ntp453
Rp454
(dp455
g13
I01
sg14
F-2.3933412042259388
sg15
g452
sbs(I-3
I39750
tp456
g0
(g9
g2
Ntp457
Rp458
(dp459
g13
I00
sg14
F2.32748457653267
sg15
g456
sbs(I26818
I60583
tp460
g0
(g9
g2
Ntp461
Rp462
(dp463
g13
I00
sg14
F0.928753145731927
sg15
g460
sbs(I55960
I45907
tp464
g0
(g9
g2
Ntp465
Rp466
(dp467
g13
I01
sg14
F0.3245806183163707
sg15
g464
sbs(I63881
I22894
tp468
g0
(g9
g2
Ntp469
Rp470
(dp471
g13
I01
sg14
F-0.1319396712882674
sg15
g468
sbs(I63102
I49196
tp472
g0
(g9
g2
Ntp473
Rp474
(dp475
g13
I01
sg14
F1.8191697636748028
sg15
g472
sbs(I64007
I49371
tp476
g0
(g9
g2
Ntp477
Rp478
(dp479
g13
I01
sg14
F0.05099879920739975
sg15
g476
sbs(I29537
I38030
tp480
g0
(g9
g2
Ntp481
Rp482
(dp483
g13
I00
sg14
F1.0332116573467252
sg15
g480
sbs(I-3
I62869
tp484
g0
(g9
g2
Ntp485
Rp486
(dp487
g13
I01
sg14
F-0.5102908341667076
sg15
g484
sbs(I31334
I3
tp488
g0
(g9
g2
Ntp489
Rp490
(dp491
g13
I00
sg14
F0.3882553862125762
sg15
g488
sbs(I1
I45907
tp492
g0
(g9
g2
Ntp493
Rp494
(dp495
g13
I01
sg14
F0.004095703249844502
sg15
g492
sbs(I44645
I32570
tp496
g0
(g9
g2
Ntp497
Rp498
(dp499
g13
I01
sg14
F-0.9946755375713388
sg15
g496
sbs(I51499
I49371
tp500
g0
(g9
g2
Ntp501
Rp502
(dp503
g13
I01
sg14
F2.402455822297032
sg15
g500
sbs(I-3
I3
tp504
g0
(g9
g2
Ntp505
Rp506
(dp507
g13
I00
sg14
F0.8530176704236906
sg15
g504
sbs(I60642
I49103
tp508
g0
(g9
g2
Ntp509
Rp510
(dp511
g13
I00
sg14
F-0.6976775932420893
sg15
g508
sbs(I61733
I29793
tp512
g0
(g9
g2
Ntp513
Rp514
(dp515
g13
I01
sg14
F-0.3895179997692333
sg15
g512
sbs(I-1
I58105
tp516
g0
(g9
g2
Ntp517
Rp518
(dp519
g13
I01
sg14
F0.9030047315668797
sg15
g516
sbs(I28391
I59958
tp520
g0
(g9
g2
Ntp521
Rp522
(dp523
g13
I01
sg14
F0.09363484928777036
sg15
g520
sbs(I26680
I17791
tp524
g0
(g9
g2
Ntp525
Rp526
(dp527
g13
I01
sg14
F0.8980565725174122
sg15
g524
sbs(I55960
I63102
tp528
g0
(g9
g2
Ntp529
Rp530
(dp531
g13
I01
sg14
F-0.931955028693246
sg15
g528
sbs(I1
I62947
tp532
g0
(g9
g2
Ntp533
Rp534
(dp535
g13
I00
sg14
F-0.10836328379954605
sg15
g532
sbs(I59104
I49786
tp536
g0
(g9
g2
Ntp537
Rp538
(dp539
g13
I00
sg14
F-1.0330577437790587
sg15
g536
sbs(I0
I57972
tp540
g0
(g9
g2
Ntp541
Rp542
(dp543
g13
I00
sg14
F-0.7559931246444048
sg15
g540
sbs(I50840
I39750
tp544
g0
(g9
g2
Ntp545
Rp546
(dp547
g13
I00
sg14
F0.30379902153563476
sg15
g544
sbs(I-3
I28660
tp548
g0
(g9
g2
Ntp549
Rp550
(dp551
g13
I00
sg14
F-0.5691317646783783
sg15
g548
sbs(I26680
I57242
tp552
g0
(g9
g2
Ntp553
Rp554
(dp555
g13
I01
sg14
F-0.5061324268890327
sg15
g552
sbs(I29537
I35972
tp556
g0
(g9
g2
Ntp557
Rp558
(dp559
g13
I01
sg14
F-0.28731107754719637
sg15
g556
sbs(I3
I33275
tp560
g0
(g9
g2
Ntp561
Rp562
(dp563
g13
I01
sg14
F-1.4089296732648993
sg15
g560
sbs(I56107
I52416
tp564
g0
(g9
g2
Ntp565
Rp566
(dp567
g13
I01
sg14
F-3.3453988095248772
sg15
g564
sbs(I29793
I32900
tp568
g0
(g9
g2
Ntp569
Rp570
(dp571
g13
I01
sg14
F4.798446788509691
sg15
g568
sbs(I27673
I29793
tp572
g0
(g9
g2
Ntp573
Rp574
(dp575
g13
I01
sg14
F-0.7775260191342885
sg15
g572
sbs(I49103
I43090
tp576
g0
(g9
g2
Ntp577
Rp578
(dp579
g13
I01
sg14
F-1.6440904503313005
sg15
g576
sbs(I3
I22621
tp580
g0
(g9
g2
Ntp581
Rp582
(dp583
g13
I01
sg14
F1.0447774785745423
sg15
g580
sbs(I26818
I61733
tp584
g0
(g9
g2
Ntp585
Rp586
(dp587
g13
I01
sg14
F-0.19588267462546188
sg15
g584
sbs(I46330
I52467
tp588
g0
(g9
g2
Ntp589
Rp590
(dp591
g13
I01
sg14
F0.20640707001187386
sg15
g588
sbs(I32368
I3
tp592
g0
(g9
g2
Ntp593
Rp594
(dp595
g13
I00
sg14
F-0.13808008253207182
sg15
g592
sbs(I38364
I46515
tp596
g0
(g9
g2
Ntp597
Rp598
(dp599
g13
I00
sg14
F1.981729975693172
sg15
g596
sbs(I29537
I40693
tp600
g0
(g9
g2
Ntp601
Rp602
(dp603
g13
I00
sg14
F-1.3489288269919086
sg15
g600
sbs(I24953
I32368
tp604
g0
(g9
g2
Ntp605
Rp606
(dp607
g13
I01
sg14
F-1.0688188581054665
sg15
g604
sbs(I-4
I64050
tp608
g0
(g9
g2
Ntp609
Rp610
(dp611
g13
I01
sg14
F2.574747677518544
sg15
g608
sbs(I61460
I46614
tp612
g0
(g9
g2
Ntp613
Rp614
(dp615
g13
I01
sg14
F-1.9105120073401949
sg15
g612
sbs(I55173
I36144
tp616
g0
(g9
g2
Ntp617
Rp618
(dp619
g13
I01
sg14
F-0.08285074573505935
sg15
g616
sbs(I22894
I54142
tp620
g0
(g9
g2
Ntp621
Rp622
(dp623
g13
I01
sg14
F-1.1457850467226667
sg15
g620
sbs(I17170
I49103
tp624
g0
(g9
g2
Ntp625
Rp626
(dp627
g13
I01
sg14
F2.5630116750534633
sg15
g624
sbs(I36922
I53344
tp628
g0
(g9
g2
Ntp629
Rp630
(dp631
g13
I00
sg14
F-0.52017702742351
sg15
g628
sbs(I29793
I34896
tp632
g0
(g9
g2
Ntp633
Rp634
(dp635
g13
I01
sg14
F-0.5125077030354677
sg15
g632
sbs(I62869
I39165
tp636
g0
(g9
g2
Ntp637
Rp638
(dp639
g13
I01
sg14
F2.7622326118324247
sg15
g636
sbs(I26546
I61639
tp640
g0
(g9
g2
Ntp641
Rp642
(dp643
g13
I01
sg14
F-1.1711639699068908
sg15
g640
sbs(I60957
I50337
tp644
g0
(g9
g2
Ntp645
Rp646
(dp647
g13
I00
sg14
F2.665438823211045
sg15
g644
sbs(I0
I18768
tp648
g0
(g9
g2
Ntp649
Rp650
(dp651
g13
I01
sg14
F-2.936639471360471
sg15
g648
sbs(I33911
I0
tp652
g0
(g9
g2
Ntp653
Rp654
(dp655
g13
I01
sg14
F-1.3464833590538485
sg15
g652
sbs(I-3
I50840
tp656
g0
(g9
g2
Ntp657
Rp658
(dp659
g13
I01
sg14
F-1.1634513209229689
sg15
g656
sbs(I26680
I1
tp660
g0
(g9
g2
Ntp661
Rp662
(dp663
g13
I01
sg14
F0.8024225668555428
sg15
g660
sbs(I26818
I55099
tp664
g0
(g9
g2
Ntp665
Rp666
(dp667
g13
I01
sg14
F3.1198411548264255
sg15
g664
sbs(I58784
I26818
tp668
g0
(g9
g2
Ntp669
Rp670
(dp671
g13
I01
sg14
F-1.805715196886498
sg15
g668
sbs(I37857
I28660
tp672
g0
(g9
g2
Ntp673
Rp674
(dp675
g13
I00
sg14
F1.2638270581929913
sg15
g672
sbs(I-1
I64123
tp676
g0
(g9
g2
Ntp677
Rp678
(dp679
g13
I01
sg14
F1.8959747356598857
sg15
g676
sbs(I32324
I26215
tp680
g0
(g9
g2
Ntp681
Rp682
(dp683
g13
I01
sg14
F2.393916112894358
sg15
g680
sbs(I0
I26336
tp684
g0
(g9
g2
Ntp685
Rp686
(dp687
g13
I00
sg14
F1.404064364987868
sg15
g684
sbs(I47589
I34090
tp688
g0
(g9
g2
Ntp689
Rp690
(dp691
g13
I00
sg14
F2.029991692633395
sg15
g688
sbs(I-2
I59104
tp692
g0
(g9
g2
Ntp693
Rp694
(dp695
g13
I00
sg14
F0.5902255843921003
sg15
g692
sbs(I29625
I59684
tp696
g0
(g9
g2
Ntp697
Rp698
(dp699
g13
I01
sg14
F-0.9682055670455028
sg15
g696
sbs(I-1
I3
tp700
g0
(g9
g2
Ntp701
Rp702
(dp703
g13
I01
sg14
F0.7965718192852417
sg15
g700
sbs(I28527
I23001
tp704
g0
(g9
g2
Ntp705
Rp706
(dp707
g13
I00
sg14
F-2.2431190910115584
sg15
g704
sbs(I28527
I46904
tp708
g0
(g9
g2
Ntp709
Rp710
(dp711
g13
I00
sg14
F-1.9479035674243568
sg15
g708
sbs(I60976
I29537
tp712
g0
(g9
g2
Ntp713
Rp714
(dp715
g13
I01
sg14
F1.0499133797285167
sg15
g712
sbs(I49786
I60273
tp716
g0
(g9
g2
Ntp717
Rp718
(dp719
g13
I01
sg14
F1.047812591429743
sg15
g716
sbs(I52416
I22894
tp720
g0
(g9
g2
Ntp721
Rp722
(dp723
g13
I00
sg14
F-0.07032446552607766
sg15
g720
sbs(I17791
I53684
tp724
g0
(g9
g2
Ntp725
Rp726
(dp727
g13
I01
sg14
F0.9482801306156117
sg15
g724
sbs(I46614
I1
tp728
g0
(g9
g2
Ntp729
Rp730
(dp731
g13
I01
sg14
F2.2932724439537364
sg15
g728
sbs(I38364
I23001
tp732
g0
(g9
g2
Ntp733
Rp734
(dp735
g13
I00
sg14
F0.36970246737734247
sg15
g732
sbs(I3
I55259
tp736
g0
(g9
g2
Ntp737
Rp738
(dp739
g13
I01
sg14
F-0.6815151111505883
sg15
g736
sbs(I52416
I48567
tp740
g0
(g9
g2
Ntp741
Rp742
(dp743
g13
I01
sg14
F1.6724329843479997
sg15
g740
sbs(I50840
I28660
tp744
g0
(g9
g2
Ntp745
Rp746
(dp747
g13
I01
sg14
F-3.651153707631433
sg15
g744
sbs(I61611
I47600
tp748
g0
(g9
g2
Ntp749
Rp750
(dp751
g13
I00
sg14
F-1.2140076964095334
sg15
g748
sbs(I51351
I49949
tp752
g0
(g9
g2
Ntp753
Rp754
(dp755
g13
I00
sg14
F1.154583031826542
sg15
g752
sbs(I36922
I22894
tp756
g0
(g9
g2
Ntp757
Rp758
(dp759
g13
I00
sg14
F3.4280843160204877
sg15
g756
sbs(I-3
I22621
tp760
g0
(g9
g2
Ntp761
Rp762
(dp763
g13
I01
sg14
F-1.7145666114171134
sg15
g760
sbs(I29625
I17791
tp764
g0
(g9
g2
Ntp765
Rp766
(dp767
g13
I01
sg14
F0.3870202682995204
sg15
g764
sbs(I30471
I32900
tp768
g0
(g9
g2
Ntp769
Rp770
(dp771
g13
I01
sg14
F-0.03346210759266287
sg15
g768
sbs(I32570
I22621
tp772
g0
(g9
g2
Ntp773
Rp774
(dp775
g13
I00
sg14
F0.4854896177475004
sg15
g772
sbs(I26818
I54142
tp776
g0
(g9
g2
Ntp777
Rp778
(dp779
g13
I01
sg14
F-1.1034897120199294
sg15
g776
sbs(I57007
I17791
tp780
g0
(g9
g2
Ntp781
Rp782
(dp783
g13
I00
sg14
F1.1197922097557933
sg15
g780
sbs(I61158
I45315
tp784
g0
(g9
g2
Ntp785
Rp786
(dp787
g13
I01
sg14
F-0.9891944221142327
sg15
g784
sbs(I-3
I39165
tp788
g0
(g9
g2
Ntp789
Rp790
(dp791
g13
I01
sg14
F0.7726071284977777
sg15
g788
sbs(I26680
I45315
tp792
g0
(g9
g2
Ntp793
Rp794
(dp795
g13
I00
sg14
F0.7285614454050892
sg15
g792
sbs(I59958
I17170
tp796
g0
(g9
g2
Ntp797
Rp798
(dp799
g13
I01
sg14
F1.9992536744172495
sg15
g796
sbs(I36144
I40693
tp800
g0
(g9
g2
Ntp801
Rp802
(dp803
g13
I01
sg14
F-2.343545455891848
sg15
g800
sbs(I43387
I56107
tp804
g0
(g9
g2
Ntp805
Rp806
(dp807
g13
I01
sg14
F0.6466202786409844
sg15
g804
sbs(I64050
I44818
tp808
g0
(g9
g2
Ntp809
Rp810
(dp811
g13
I01
sg14
F0.7353936136176334
sg15
g808
sbs(I26546
I55173
tp812
g0
(g9
g2
Ntp813
Rp814
(dp815
g13
I01
sg14
F-0.45160307192496174
sg15
g812
sbs(I29537
I23001
tp816
g0
(g9
g2
Ntp817
Rp818
(dp819
g13
I00
sg14
F-0.34250131988852983
sg15
g816
sbs(I64123
I47600
tp820
g0
(g9
g2
Ntp821
Rp822
(dp823
g13
I01
sg14
F1.6504047217671272
sg15
g820
sbs(I52566
I27673
tp824
g0
(g9
g2
Ntp825
Rp826
(dp827
g13
I00
sg14
F1.9081908165071388
sg15
g824
sbs(I56514
I38030
tp828
g0
(g9
g2
Ntp829
Rp830
(dp831
g13
I00
sg14
F-0.6267384402265543
sg15
g828
sbs(I-3
I26546
tp832
g0
(g9
g2
Ntp833
Rp834
(dp835
g13
I01
sg14
F1.1344053946649066
sg15
g832
sbs(I29625
I57809
tp836
g0
(g9
g2
Ntp837
Rp838
(dp839
g13
I01
sg14
F1.7839310852795016
sg15
g836
sbs(I26546
I36144
tp840
g0
(g9
g2
Ntp841
Rp842
(dp843
g13
I00
sg14
F-1.7595682153150942
sg15
g840
sbs(I33431
I39165
tp844
g0
(g9
g2
Ntp845
Rp846
(dp847
g13
I01
sg14
F2.2277652800667367
sg15
g844
sbs(I40693
I56514
tp848
g0
(g9
g2
Ntp849
Rp850
(dp851
g13
I01
sg14
F-0.1680171196289483
sg15
g848
sbs(I53344
I51602
tp852
g0
(g9
g2
Ntp853
Rp854
(dp855
g13
I01
sg14
F0.7823130079461476
sg15
g852
sbs(I26818
I62241
tp856
g0
(g9
g2
Ntp857
Rp858
(dp859
g13
I01
sg14
F0.11813878408434601
sg15
g856
sbs(I58475
I0
tp860
g0
(g9
g2
Ntp861
Rp862
(dp863
g13
I00
sg14
F0.9514001147237526
sg15
g860
sbs(I42793
I32900
tp864
g0
(g9
g2
Ntp865
Rp866
(dp867
g13
I01
sg14
F-0.051417607238070706
sg15
g864
sbs(I26215
I34090
tp868
g0
(g9
g2
Ntp869
Rp870
(dp871
g13
I00
sg14
F-0.03701748903836999
sg15
g868
sbs(I30071
I1
tp872
g0
(g9
g2
Ntp873
Rp874
(dp875
g13
I01
sg14
F-0.842219297392754
sg15
g872
sbs(I-3
I22894
tp876
g0
(g9
g2
Ntp877
Rp878
(dp879
g13
I00
sg14
F0.27146235822861176
sg15
g876
sbs(I28527
I45907
tp880
g0
(g9
g2
Ntp881
Rp882
(dp883
g13
I00
sg14
F0.45524142603040807
sg15
g880
sbs(I62309
I17170
tp884
g0
(g9
g2
Ntp885
Rp886
(dp887
g13
I01
sg14
F1.5538607655645855
sg15
g884
sbs(I58105
I3
tp888
g0
(g9
g2
Ntp889
Rp890
(dp891
g13
I00
sg14
F-3.5769592690247505
sg15
g888
sbs(I26818
I29793
tp892
g0
(g9
g2
Ntp893
Rp894
(dp895
g13
I01
sg14
F-0.2579388721760635
sg15
g892
sbs(I26818
I56774
tp896
g0
(g9
g2
Ntp897
Rp898
(dp899
g13
I00
sg14
F0.7435547759887698
sg15
g896
sbs(I57891
I53684
tp900
g0
(g9
g2
Ntp901
Rp902
(dp903
g13
I01
sg14
F-0.6686826893663532
sg15
g900
sbs(I59501
I52141
tp904
g0
(g9
g2
Ntp905
Rp906
(dp907
g13
I00
sg14
F0.4981616084278683
sg15
g904
sbs(I49786
I1
tp908
g0
(g9
g2
Ntp909
Rp910
(dp911
g13
I00
sg14
F-0.6790704016279108
sg15
g908
sbs(I60583
I29793
tp912
g0
(g9
g2
Ntp913
Rp914
(dp915
g13
I01
sg14
F-0.14896168141669042
sg15
g912
sbs(I62241
I60583
tp916
g0
(g9
g2
Ntp917
Rp918
(dp919
g13
I01
sg14
F-0.18261274607252154
sg15
g916
sbs(I58850
I22621
tp920
g0
(g9
g2
Ntp921
Rp922
(dp923
g13
I01
sg14
F4.965613161667266
sg15
g920
sbs(I35338
I55960
tp924
g0
(g9
g2
Ntp925
Rp926
(dp927
g13
I01
sg14
F-2.8166654133334843
sg15
g924
sbs(I42793
I33275
tp928
g0
(g9
g2
Ntp929
Rp930
(dp931
g13
I01
sg14
F-0.090642879788632
sg15
g928
sbs(I55173
I37653
tp932
g0
(g9
g2
Ntp933
Rp934
(dp935
g13
I01
sg14
F0.9115258228674734
sg15
g932
sbs(I58650
I34090
tp936
g0
(g9
g2
Ntp937
Rp938
(dp939
g13
I01
sg14
F-1.6541803599378528
sg15
g936
sbs(I64176
I60403
tp940
g0
(g9
g2
Ntp941
Rp942
(dp943
g13
I01
sg14
F1.8402695134001807
sg15
g940
sbs(I17791
I57891
tp944
g0
(g9
g2
Ntp945
Rp946
(dp947
g13
I00
sg14
F-0.37951130054811666
sg15
g944
sbs(I-1
I64007
tp948
g0
(g9
g2
Ntp949
Rp950
(dp951
g13
I01
sg14
F1.6818010661807032
sg15
g948
sbs(I44645
I22621
tp952
g0
(g9
g2
Ntp953
Rp954
(dp955
g13
I00
sg14
F1.1538513040810607
sg15
g952
sbs(I29537
I34090
tp956
g0
(g9
g2
Ntp957
Rp958
(dp959
g13
I00
sg14
F-0.6193941870795355
sg15
g956
sbs(I26336
I52566
tp960
g0
(g9
g2
Ntp961
Rp962
(dp963
g13
I00
sg14
F1.8878570681679736
sg15
g960
sbs(I22894
I26818
tp964
g0
(g9
g2
Ntp965
Rp966
(dp967
g13
I01
sg14
F-0.8547275266654797
sg15
g964
sbs(I58386
I3
tp968
g0
(g9
g2
Ntp969
Rp970
(dp971
g13
I01
sg14
F-0.042491731607445314
sg15
g968
sbs(I30471
I58191
tp972
g0
(g9
g2
Ntp973
Rp974
(dp975
g13
I00
sg14
F2.81496327256536
sg15
g972
sbs(I39750
I28660
tp976
g0
(g9
g2
Ntp977
Rp978
(dp979
g13
I01
sg14
F-0.46573805484151387
sg15
g976
sbs(I40830
I3
tp980
g0
(g9
g2
Ntp981
Rp982
(dp983
g13
I01
sg14
F-0.8782051387154524
sg15
g980
sbs(I58191
I0
tp984
g0
(g9
g2
Ntp985
Rp986
(dp987
g13
I00
sg14
F1.5869175963827686
sg15
g984
sbs(I56274
I34090
tp988
g0
(g9
g2
Ntp989
Rp990
(dp991
g13
I01
sg14
F-1.0902950466330381
sg15
g988
sbs(I46283
I22621
tp992
g0
(g9
g2
Ntp993
Rp994
(dp995
g13
I00
sg14
F-2.522480595977499
sg15
g992
sbs(I48567
I38030
tp996
g0
(g9
g2
Ntp997
Rp998
(dp999
g13
I00
sg14
F-1.3894094703599102
sg15
g996
sbs(I50767
I22621
tp1000
g0
(g9
g2
Ntp1001
Rp1002
(dp1003
g13
I00
sg14
F1.3409893932819954
sg15
g1000
sbs(I32570
I32900
tp1004
g0
(g9
g2
Ntp1005
Rp1006
(dp1007
g13
I01
sg14
F2.006018346870285
sg15
g1004
sbs(I36144
I28660
tp1008
g0
(g9
g2
Ntp1009
Rp1010
(dp1011
g13
I00
sg14
F1.785727177383443
sg15
g1008
sbs(I49949
I38030
tp1012
g0
(g9
g2
Ntp1013
Rp1014
(dp1015
g13
I00
sg14
F2.0662753171327046
sg15
g1012
sbs(I-1
I61611
tp1016
g0
(g9
g2
Ntp1017
Rp1018
(dp1019
g13
I01
sg14
F0.4319125330600405
sg15
g1016
sbssS'nodes'
p1020
(dp1021
I0
g0
(cneat.genes
DefaultNodeGene
p1022
g2
Ntp1023
Rp1024
(dp1025
S'activation'
p1026
S'sigmoid'
p1027
sS'bias'
p1028
F0.24492401691334176
sS'response'
p1029
F1.0
sg15
I0
sS'aggregation'
p1030
S'sum'
p1031
sbsI1
g0
(g1022
g2
Ntp1032
Rp1033
(dp1034
g1026
g1027
sg1028
F-0.5631124205103233
sg1029
F1.0
sg15
I1
sg1030
g1031
sbsI2
g0
(g1022
g2
Ntp1035
Rp1036
(dp1037
g1026
g1027
sg1028
F-0.8323974751063513
sg1029
F1.0
sg15
I2
sg1030
g1031
sbsI3
g0
(g1022
g2
Ntp1038
Rp1039
(dp1040
g1026
g1027
sg1028
F-2.513273373839754
sg1029
F1.0
sg15
I3
sg1030
g1031
sbsI64007
g0
(g1022
g2
Ntp1041
Rp1042
(dp1043
g1026
g1027
sg1028
F-0.2640466222485273
sg1029
F1.0
sg15
I64007
sg1030
g1031
sbsI35338
g0
(g1022
g2
Ntp1044
Rp1045
(dp1046
g1026
g1027
sg1028
F1.3992673530922475
sg1029
F1.0
sg15
I35338
sg1030
g1031
sbsI34320
g0
(g1022
g2
Ntp1047
Rp1048
(dp1049
g1026
g1027
sg1028
F1.2024179658163818
sg1029
F1.0
sg15
I34320
sg1030
g1031
sbsI58386
g0
(g1022
g2
Ntp1050
Rp1051
(dp1052
g1026
g1027
sg1028
F-2.3828004546375587
sg1029
F1.0
sg15
I58386
sg1030
g1031
sbsI61460
g0
(g1022
g2
Ntp1053
Rp1054
(dp1055
g1026
g1027
sg1028
F-0.6597460499028198
sg1029
F1.0
sg15
I61460
sg1030
g1031
sbsI46614
g0
(g1022
g2
Ntp1056
Rp1057
(dp1058
g1026
g1027
sg1028
F0.6674841933740593
sg1029
F1.0
sg15
I46614
sg1030
g1031
sbsI27673
g0
(g1022
g2
Ntp1059
Rp1060
(dp1061
g1026
g1027
sg1028
F0.28839071273899985
sg1029
F1.0
sg15
I27673
sg1030
g1031
sbsI60957
g0
(g1022
g2
Ntp1062
Rp1063
(dp1064
g1026
g1027
sg1028
F-2.6325454358108216
sg1029
F1.0
sg15
I60957
sg1030
g1031
sbsI57891
g0
(g1022
g2
Ntp1065
Rp1066
(dp1067
g1026
g1027
sg1028
F0.7326235290607477
sg1029
F1.0
sg15
I57891
sg1030
g1031
sbsI49196
g0
(g1022
g2
Ntp1068
Rp1069
(dp1070
g1026
g1027
sg1028
F0.2712328940167286
sg1029
F1.0
sg15
I49196
sg1030
g1031
sbsI60976
g0
(g1022
g2
Ntp1071
Rp1072
(dp1073
g1026
g1027
sg1028
F-0.6949798910894437
sg1029
F1.0
sg15
I60976
sg1030
g1031
sbsI64050
g0
(g1022
g2
Ntp1074
Rp1075
(dp1076
g1026
g1027
sg1028
F0.8469260769139949
sg1029
F1.0
sg15
I64050
sg1030
g1031
sbsI59958
g0
(g1022
g2
Ntp1077
Rp1078
(dp1079
g1026
g1027
sg1028
F-2.4363085559048083
sg1029
F1.0
sg15
I59958
sg1030
g1031
sbsI58423
g0
(g1022
g2
Ntp1080
Rp1081
(dp1082
g1026
g1027
sg1028
F-0.07664419911027179
sg1029
F1.0
sg15
I58423
sg1030
g1031
sbsI26680
g0
(g1022
g2
Ntp1083
Rp1084
(dp1085
g1026
g1027
sg1028
F2.109617363118389
sg1029
F1.0
sg15
I26680
sg1030
g1031
sbsI36922
g0
(g1022
g2
Ntp1086
Rp1087
(dp1088
g1026
g1027
sg1028
F-0.9258716942111458
sg1029
F1.0
sg15
I36922
sg1030
g1031
sbsI32324
g0
(g1022
g2
Ntp1089
Rp1090
(dp1091
g1026
g1027
sg1028
F-0.13344280545482218
sg1029
F1.0
sg15
I32324
sg1030
g1031
sbsI50767
g0
(g1022
g2
Ntp1092
Rp1093
(dp1094
g1026
g1027
sg1028
F3.9933655978649965
sg1029
F1.0
sg15
I50767
sg1030
g1031
sbsI34896
g0
(g1022
g2
Ntp1095
Rp1096
(dp1097
g1026
g1027
sg1028
F3.4830895657505816
sg1029
F1.0
sg15
I34896
sg1030
g1031
sbsI57425
g0
(g1022
g2
Ntp1098
Rp1099
(dp1100
g1026
g1027
sg1028
F-0.1058573830281962
sg1029
F1.0
sg15
I57425
sg1030
g1031
sbsI43090
g0
(g1022
g2
Ntp1101
Rp1102
(dp1103
g1026
g1027
sg1028
F1.1108349447264985
sg1029
F1.0
sg15
I43090
sg1030
g1031
sbsI61523
g0
(g1022
g2
Ntp1104
Rp1105
(dp1106
g1026
g1027
sg1028
F-2.400714720672002
sg1029
F1.0
sg15
I61523
sg1030
g1031
sbsI29625
g0
(g1022
g2
Ntp1107
Rp1108
(dp1109
g1026
g1027
sg1028
F-0.8958560815212883
sg1029
F1.0
sg15
I29625
sg1030
g1031
sbsI22621
g0
(g1022
g2
Ntp1110
Rp1111
(dp1112
g1026
g1027
sg1028
F0.1944410039421618
sg1029
F1.0
sg15
I22621
sg1030
g1031
sbsI53344
g0
(g1022
g2
Ntp1113
Rp1114
(dp1115
g1026
g1027
sg1028
F-1.2469211791585972
sg1029
F1.0
sg15
I53344
sg1030
g1031
sbsI29793
g0
(g1022
g2
Ntp1116
Rp1117
(dp1118
g1026
g1027
sg1028
F0.2490392620028091
sg1029
F1.0
sg15
I29793
sg1030
g1031
sbsI50840
g0
(g1022
g2
Ntp1119
Rp1120
(dp1121
g1026
g1027
sg1028
F2.3506685308174884
sg1029
F1.0
sg15
I50840
sg1030
g1031
sbsI44645
g0
(g1022
g2
Ntp1122
Rp1123
(dp1124
g1026
g1027
sg1028
F0.37162840732549657
sg1029
F1.0
sg15
I44645
sg1030
g1031
sbsI31334
g0
(g1022
g2
Ntp1125
Rp1126
(dp1127
g1026
g1027
sg1028
F0.8860182143829085
sg1029
F1.0
sg15
I31334
sg1030
g1031
sbsI26215
g0
(g1022
g2
Ntp1128
Rp1129
(dp1130
g1026
g1027
sg1028
F1.7276686843849882
sg1029
F1.0
sg15
I26215
sg1030
g1031
sbsI58475
g0
(g1022
g2
Ntp1131
Rp1132
(dp1133
g1026
g1027
sg1028
F2.2151702217232003
sg1029
F1.0
sg15
I58475
sg1030
g1031
sbsI59501
g0
(g1022
g2
Ntp1134
Rp1135
(dp1136
g1026
g1027
sg1028
F-0.924942964644733
sg1029
F1.0
sg15
I59501
sg1030
g1031
sbsI32368
g0
(g1022
g2
Ntp1137
Rp1138
(dp1139
g1026
g1027
sg1028
F-0.6712497626250318
sg1029
F1.0
sg15
I32368
sg1030
g1031
sbsI57972
g0
(g1022
g2
Ntp1140
Rp1141
(dp1142
g1026
g1027
sg1028
F0.03962761347524035
sg1029
F1.0
sg15
I57972
sg1030
g1031
sbsI33911
g0
(g1022
g2
Ntp1143
Rp1144
(dp1145
g1026
g1027
sg1028
F-2.0737225248639897
sg1029
F1.0
sg15
I33911
sg1030
g1031
sbsI49786
g0
(g1022
g2
Ntp1146
Rp1147
(dp1148
g1026
g1027
sg1028
F-0.7664570169312838
sg1029
F1.0
sg15
I49786
sg1030
g1031
sbsI64123
g0
(g1022
g2
Ntp1149
Rp1150
(dp1151
g1026
g1027
sg1028
F0.8397022026435659
sg1029
F1.0
sg15
I64123
sg1030
g1031
sbsI63102
g0
(g1022
g2
Ntp1152
Rp1153
(dp1154
g1026
g1027
sg1028
F0.7274230041980467
sg1029
F1.0
sg15
I63102
sg1030
g1031
sbsI32900
g0
(g1022
g2
Ntp1155
Rp1156
(dp1157
g1026
g1027
sg1028
F0.3022964988465673
sg1029
F1.0
sg15
I32900
sg1030
g1031
sbsI56514
g0
(g1022
g2
Ntp1158
Rp1159
(dp1160
g1026
g1027
sg1028
F-1.8679986257024055
sg1029
F1.0
sg15
I56514
sg1030
g1031
sbsI38030
g0
(g1022
g2
Ntp1161
Rp1162
(dp1163
g1026
g1027
sg1028
F0.26094394871414595
sg1029
F1.0
sg15
I38030
sg1030
g1031
sbsI33431
g0
(g1022
g2
Ntp1164
Rp1165
(dp1166
g1026
g1027
sg1028
F-1.5584809193114113
sg1029
F1.0
sg15
I33431
sg1030
g1031
sbsI55960
g0
(g1022
g2
Ntp1167
Rp1168
(dp1169
g1026
g1027
sg1028
F0.2598017754890614
sg1029
F1.0
sg15
I55960
sg1030
g1031
sbsI50337
g0
(g1022
g2
Ntp1170
Rp1171
(dp1172
g1026
g1027
sg1028
F0.965935400815664
sg1029
F1.0
sg15
I50337
sg1030
g1031
sbsI60583
g0
(g1022
g2
Ntp1173
Rp1174
(dp1175
g1026
g1027
sg1028
F-0.3065946431664549
sg1029
F1.0
sg15
I60583
sg1030
g1031
sbsI61611
g0
(g1022
g2
Ntp1176
Rp1177
(dp1178
g1026
g1027
sg1028
F2.2003742217017823
sg1029
F1.0
sg15
I61611
sg1030
g1031
sbsI57007
g0
(g1022
g2
Ntp1179
Rp1180
(dp1181
g1026
g1027
sg1028
F-0.27390761263845587
sg1029
F1.0
sg15
I57007
sg1030
g1031
sbsI64176
g0
(g1022
g2
Ntp1182
Rp1183
(dp1184
g1026
g1027
sg1028
F3.301854570533548
sg1029
F1.0
sg15
I64176
sg1030
g1031
sbsI52416
g0
(g1022
g2
Ntp1185
Rp1186
(dp1187
g1026
g1027
sg1028
F1.362427419392298
sg1029
F1.0
sg15
I52416
sg1030
g1031
sbsI26818
g0
(g1022
g2
Ntp1188
Rp1189
(dp1190
g1026
g1027
sg1028
F0.41373923862884554
sg1029
F1.0
sg15
I26818
sg1030
g1031
sbsI61639
g0
(g1022
g2
Ntp1191
Rp1192
(dp1193
g1026
g1027
sg1028
F0.9215166852547784
sg1029
F1.0
sg15
I61639
sg1030
g1031
sbsI46283
g0
(g1022
g2
Ntp1194
Rp1195
(dp1196
g1026
g1027
sg1028
F-0.7122869840602336
sg1029
F1.0
sg15
I46283
sg1030
g1031
sbsI49371
g0
(g1022
g2
Ntp1197
Rp1198
(dp1199
g1026
g1027
sg1028
F-0.45358331268523533
sg1029
F1.0
sg15
I49371
sg1030
g1031
sbsI59104
g0
(g1022
g2
Ntp1200
Rp1201
(dp1202
g1026
g1027
sg1028
F2.837705816963987
sg1029
F1.0
sg15
I59104
sg1030
g1031
sbsI60642
g0
(g1022
g2
Ntp1203
Rp1204
(dp1205
g1026
g1027
sg1028
F0.9225195947789646
sg1029
F1.0
sg15
I60642
sg1030
g1031
sbsI61158
g0
(g1022
g2
Ntp1206
Rp1207
(dp1208
g1026
g1027
sg1028
F0.7013283923650359
sg1029
F1.0
sg15
I61158
sg1030
g1031
sbsI28391
g0
(g1022
g2
Ntp1209
Rp1210
(dp1211
g1026
g1027
sg1028
F0.7112988639559065
sg1029
F1.0
sg15
I28391
sg1030
g1031
sbsI52467
g0
(g1022
g2
Ntp1212
Rp1213
(dp1214
g1026
g1027
sg1028
F0.2595009001989256
sg1029
F1.0
sg15
I52467
sg1030
g1031
sbsI40693
g0
(g1022
g2
Ntp1215
Rp1216
(dp1217
g1026
g1027
sg1028
F2.0293081030295017
sg1029
F1.0
sg15
I40693
sg1030
g1031
sbsI16630
g0
(g1022
g2
Ntp1218
Rp1219
(dp1220
g1026
g1027
sg1028
F0.13309820602323186
sg1029
F1.0
sg15
I16630
sg1030
g1031
sbsI58105
g0
(g1022
g2
Ntp1221
Rp1222
(dp1223
g1026
g1027
sg1028
F0.4047358679562989
sg1029
F1.0
sg15
I58105
sg1030
g1031
sbsI46330
g0
(g1022
g2
Ntp1224
Rp1225
(dp1226
g1026
g1027
sg1028
F1.0937055276757193
sg1029
F1.0
sg15
I46330
sg1030
g1031
sbsI39165
g0
(g1022
g2
Ntp1227
Rp1228
(dp1229
g1026
g1027
sg1028
F-0.9621989662232584
sg1029
F1.0
sg15
I39165
sg1030
g1031
sbsI45315
g0
(g1022
g2
Ntp1230
Rp1231
(dp1232
g1026
g1027
sg1028
F-0.3465741865575753
sg1029
F1.0
sg15
I45315
sg1030
g1031
sbsI33028
g0
(g1022
g2
Ntp1233
Rp1234
(dp1235
g1026
g1027
sg1028
F0.7140474291245059
sg1029
F1.0
sg15
I33028
sg1030
g1031
sbsI30471
g0
(g1022
g2
Ntp1236
Rp1237
(dp1238
g1026
g1027
sg1028
F-2.5822320716327445
sg1029
F1.0
sg15
I30471
sg1030
g1031
sbsI63175
g0
(g1022
g2
Ntp1239
Rp1240
(dp1241
g1026
g1027
sg1028
F0.7131898278030496
sg1029
F1.0
sg15
I63175
sg1030
g1031
sbsI22287
g0
(g1022
g2
Ntp1242
Rp1243
(dp1244
g1026
g1027
sg1028
F0.7486392759306786
sg1029
F1.0
sg15
I22287
sg1030
g1031
sbsI44818
g0
(g1022
g2
Ntp1245
Rp1246
(dp1247
g1026
g1027
sg1028
F2.7745825529954824
sg1029
F1.0
sg15
I44818
sg1030
g1031
sbsI37653
g0
(g1022
g2
Ntp1248
Rp1249
(dp1250
g1026
g1027
sg1028
F-0.3723533058832897
sg1029
F1.0
sg15
I37653
sg1030
g1031
sbsI25088
g0
(g1022
g2
Ntp1251
Rp1252
(dp1253
g1026
g1027
sg1028
F-2.5757850683121095
sg1029
F1.0
sg15
I25088
sg1030
g1031
sbsI35972
g0
(g1022
g2
Ntp1254
Rp1255
(dp1256
g1026
g1027
sg1028
F0.01925023880764959
sg1029
F1.0
sg15
I35972
sg1030
g1031
sbsI58650
g0
(g1022
g2
Ntp1257
Rp1258
(dp1259
g1026
g1027
sg1028
F-1.493906332673709
sg1029
F1.0
sg15
I58650
sg1030
g1031
sbsI49949
g0
(g1022
g2
Ntp1260
Rp1261
(dp1262
g1026
g1027
sg1028
F1.1052312920767298
sg1029
F1.0
sg15
I49949
sg1030
g1031
sbsI62241
g0
(g1022
g2
Ntp1263
Rp1264
(dp1265
g1026
g1027
sg1028
F-1.3120744391154289
sg1029
F1.0
sg15
I62241
sg1030
g1031
sbsI43227
g0
(g1022
g2
Ntp1266
Rp1267
(dp1268
g1026
g1027
sg1028
F-0.7582033541554131
sg1029
F1.0
sg15
I43227
sg1030
g1031
sbsI59684
g0
(g1022
g2
Ntp1269
Rp1270
(dp1271
g1026
g1027
sg1028
F1.0237902833142982
sg1029
F1.0
sg15
I59684
sg1030
g1031
sbsI61733
g0
(g1022
g2
Ntp1272
Rp1273
(dp1274
g1026
g1027
sg1028
F2.423708110327414
sg1029
F1.0
sg15
I61733
sg1030
g1031
sbsI42793
g0
(g1022
g2
Ntp1275
Rp1276
(dp1277
g1026
g1027
sg1028
F-0.5016999975832772
sg1029
F1.0
sg15
I42793
sg1030
g1031
sbsI34090
g0
(g1022
g2
Ntp1278
Rp1279
(dp1280
g1026
g1027
sg1028
F0.11157947339637778
sg1029
F1.0
sg15
I34090
sg1030
g1031
sbsI51499
g0
(g1022
g2
Ntp1281
Rp1282
(dp1283
g1026
g1027
sg1028
F-2.887801632069903
sg1029
F1.0
sg15
I51499
sg1030
g1031
sbsI36144
g0
(g1022
g2
Ntp1284
Rp1285
(dp1286
g1026
g1027
sg1028
F-1.4115755143283313
sg1029
F1.0
sg15
I36144
sg1030
g1031
sbsI17170
g0
(g1022
g2
Ntp1287
Rp1288
(dp1289
g1026
g1027
sg1028
F2.0430206016437165
sg1029
F1.0
sg15
I17170
sg1030
g1031
sbsI40247
g0
(g1022
g2
Ntp1290
Rp1291
(dp1292
g1026
g1027
sg1028
F1.4695364545913552
sg1029
F1.0
sg15
I40247
sg1030
g1031
sbsI46904
g0
(g1022
g2
Ntp1293
Rp1294
(dp1295
g1026
g1027
sg1028
F-0.0389962497655664
sg1029
F1.0
sg15
I46904
sg1030
g1031
sbsI32570
g0
(g1022
g2
Ntp1296
Rp1297
(dp1298
g1026
g1027
sg1028
F0.5086544784050728
sg1029
F1.0
sg15
I32570
sg1030
g1031
sbsI55099
g0
(g1022
g2
Ntp1299
Rp1300
(dp1301
g1026
g1027
sg1028
F1.1815475992917983
sg1029
F1.0
sg15
I55099
sg1030
g1031
sbsI26336
g0
(g1022
g2
Ntp1302
Rp1303
(dp1304
g1026
g1027
sg1028
F-0.8140335899457218
sg1029
F1.0
sg15
I26336
sg1030
g1031
sbsI39750
g0
(g1022
g2
Ntp1305
Rp1306
(dp1307
g1026
g1027
sg1028
F2.0873606312990662
sg1029
F1.0
sg15
I39750
sg1030
g1031
sbsI58191
g0
(g1022
g2
Ntp1308
Rp1309
(dp1310
g1026
g1027
sg1028
F-0.285879308636608
sg1029
F1.0
sg15
I58191
sg1030
g1031
sbsI18768
g0
(g1022
g2
Ntp1311
Rp1312
(dp1313
g1026
g1027
sg1028
F-0.8138025828564069
sg1029
F1.0
sg15
I18768
sg1030
g1031
sbsI45907
g0
(g1022
g2
Ntp1314
Rp1315
(dp1316
g1026
g1027
sg1028
F0.2239387790293278
sg1029
F1.0
sg15
I45907
sg1030
g1031
sbsI52566
g0
(g1022
g2
Ntp1317
Rp1318
(dp1319
g1026
g1027
sg1028
F-0.013396244990302952
sg1029
F1.0
sg15
I52566
sg1030
g1031
sbsI29537
g0
(g1022
g2
Ntp1320
Rp1321
(dp1322
g1026
g1027
sg1028
F0.041738547806071585
sg1029
F1.0
sg15
I29537
sg1030
g1031
sbsI62309
g0
(g1022
g2
Ntp1323
Rp1324
(dp1325
g1026
g1027
sg1028
F-1.3342730890521617
sg1029
F1.0
sg15
I62309
sg1030
g1031
sbsI22894
g0
(g1022
g2
Ntp1326
Rp1327
(dp1328
g1026
g1027
sg1028
F-2.6946229351383977
sg1029
F1.0
sg15
I22894
sg1030
g1031
sbsI28527
g0
(g1022
g2
Ntp1329
Rp1330
(dp1331
g1026
g1027
sg1028
F-0.16661211486071892
sg1029
F1.0
sg15
I28527
sg1030
g1031
sbsI60273
g0
(g1022
g2
Ntp1332
Rp1333
(dp1334
g1026
g1027
sg1028
F-3.8126605036186443
sg1029
F1.0
sg15
I60273
sg1030
g1031
sbsI30071
g0
(g1022
g2
Ntp1335
Rp1336
(dp1337
g1026
g1027
sg1028
F0.8909498447496662
sg1029
F1.0
sg15
I30071
sg1030
g1031
sbsI24953
g0
(g1022
g2
Ntp1338
Rp1339
(dp1340
g1026
g1027
sg1028
F1.1426895658205998
sg1029
F1.0
sg15
I24953
sg1030
g1031
sbsI43387
g0
(g1022
g2
Ntp1341
Rp1342
(dp1343
g1026
g1027
sg1028
F0.36064542266443295
sg1029
F1.0
sg15
I43387
sg1030
g1031
sbsI54142
g0
(g1022
g2
Ntp1344
Rp1345
(dp1346
g1026
g1027
sg1028
F-0.039967989952898964
sg1029
F1.0
sg15
I54142
sg1030
g1031
sbsI17791
g0
(g1022
g2
Ntp1347
Rp1348
(dp1349
g1026
g1027
sg1028
F0.4842995868976217
sg1029
F1.0
sg15
I17791
sg1030
g1031
sbsI64387
g0
(g1022
g2
Ntp1350
Rp1351
(dp1352
g1026
g1027
sg1028
F2.024610294514348
sg1029
F1.0
sg15
I64387
sg1030
g1031
sbsI55173
g0
(g1022
g2
Ntp1353
Rp1354
(dp1355
g1026
g1027
sg1028
F-0.2544995562168115
sg1029
F1.0
sg15
I55173
sg1030
g1031
sbsI63881
g0
(g1022
g2
Ntp1356
Rp1357
(dp1358
g1026
g1027
sg1028
F-2.3060671771981087
sg1029
F1.0
sg15
I63881
sg1030
g1031
sbsI32139
g0
(g1022
g2
Ntp1359
Rp1360
(dp1361
g1026
g1027
sg1028
F-0.9546753797837548
sg1029
F1.0
sg15
I32139
sg1030
g1031
sbsI45969
g0
(g1022
g2
Ntp1362
Rp1363
(dp1364
g1026
g1027
sg1028
F1.0043874688941408
sg1029
F1.0
sg15
I45969
sg1030
g1031
sbsI51602
g0
(g1022
g2
Ntp1365
Rp1366
(dp1367
g1026
g1027
sg1028
F-2.3746337557290804
sg1029
F1.0
sg15
I51602
sg1030
g1031
sbsI62869
g0
(g1022
g2
Ntp1368
Rp1369
(dp1370
g1026
g1027
sg1028
F1.379563089048872
sg1029
F1.0
sg15
I62869
sg1030
g1031
sbsI57242
g0
(g1022
g2
Ntp1371
Rp1372
(dp1373
g1026
g1027
sg1028
F0.4849822875078837
sg1029
F1.0
sg15
I57242
sg1030
g1031
sbsI21917
g0
(g1022
g2
Ntp1374
Rp1375
(dp1376
g1026
g1027
sg1028
F1.7936773916901267
sg1029
F1.0
sg15
I21917
sg1030
g1031
sbsI58784
g0
(g1022
g2
Ntp1377
Rp1378
(dp1379
g1026
g1027
sg1028
F-0.6236453695160432
sg1029
F1.0
sg15
I58784
sg1030
g1031
sbsI52141
g0
(g1022
g2
Ntp1380
Rp1381
(dp1382
g1026
g1027
sg1028
F-2.230999085669853
sg1029
F1.0
sg15
I52141
sg1030
g1031
sbsI26546
g0
(g1022
g2
Ntp1383
Rp1384
(dp1385
g1026
g1027
sg1028
F0.7320081738566795
sg1029
F1.0
sg15
I26546
sg1030
g1031
sbsI46515
g0
(g1022
g2
Ntp1386
Rp1387
(dp1388
g1026
g1027
sg1028
F0.8543218952579258
sg1029
F1.0
sg15
I46515
sg1030
g1031
sbsI53684
g0
(g1022
g2
Ntp1389
Rp1390
(dp1391
g1026
g1027
sg1028
F1.120921989424522
sg1029
F1.0
sg15
I53684
sg1030
g1031
sbsI48567
g0
(g1022
g2
Ntp1392
Rp1393
(dp1394
g1026
g1027
sg1028
F-0.8672182191345861
sg1029
F1.0
sg15
I48567
sg1030
g1031
sbsI63417
g0
(g1022
g2
Ntp1395
Rp1396
(dp1397
g1026
g1027
sg1028
F-0.12544226383084434
sg1029
F1.0
sg15
I63417
sg1030
g1031
sbsI40830
g0
(g1022
g2
Ntp1398
Rp1399
(dp1400
g1026
g1027
sg1028
F-0.6254175509470324
sg1029
F1.0
sg15
I40830
sg1030
g1031
sbsI56774
g0
(g1022
g2
Ntp1401
Rp1402
(dp1403
g1026
g1027
sg1028
F1.2275496241020152
sg1029
F1.0
sg15
I56774
sg1030
g1031
sbsI49103
g0
(g1022
g2
Ntp1404
Rp1405
(dp1406
g1026
g1027
sg1028
F-0.7458367695096866
sg1029
F1.0
sg15
I49103
sg1030
g1031
sbsI57809
g0
(g1022
g2
Ntp1407
Rp1408
(dp1409
g1026
g1027
sg1028
F-1.5659758645236956
sg1029
F1.0
sg15
I57809
sg1030
g1031
sbsI56274
g0
(g1022
g2
Ntp1410
Rp1411
(dp1412
g1026
g1027
sg1028
F0.8329644667408287
sg1029
F1.0
sg15
I56274
sg1030
g1031
sbsI23001
g0
(g1022
g2
Ntp1413
Rp1414
(dp1415
g1026
g1027
sg1028
F1.016964956932453
sg1029
F1.0
sg15
I23001
sg1030
g1031
sbsI55259
g0
(g1022
g2
Ntp1416
Rp1417
(dp1418
g1026
g1027
sg1028
F2.1763160933217467
sg1029
F1.0
sg15
I55259
sg1030
g1031
sbsI38364
g0
(g1022
g2
Ntp1419
Rp1420
(dp1421
g1026
g1027
sg1028
F-2.3218242457641103
sg1029
F1.0
sg15
I38364
sg1030
g1031
sbsI50143
g0
(g1022
g2
Ntp1422
Rp1423
(dp1424
g1026
g1027
sg1028
F-1.1975113549096041
sg1029
F1.0
sg15
I50143
sg1030
g1031
sbsI37857
g0
(g1022
g2
Ntp1425
Rp1426
(dp1427
g1026
g1027
sg1028
F0.5829827594786926
sg1029
F1.0
sg15
I37857
sg1030
g1031
sbsI58850
g0
(g1022
g2
Ntp1428
Rp1429
(dp1430
g1026
g1027
sg1028
F-2.1583025644652962
sg1029
F1.0
sg15
I58850
sg1030
g1031
sbsI62947
g0
(g1022
g2
Ntp1431
Rp1432
(dp1433
g1026
g1027
sg1028
F2.782106154844731
sg1029
F1.0
sg15
I62947
sg1030
g1031
sbsI47589
g0
(g1022
g2
Ntp1434
Rp1435
(dp1436
g1026
g1027
sg1028
F-1.5507080733798135
sg1029
F1.0
sg15
I47589
sg1030
g1031
sbsI56107
g0
(g1022
g2
Ntp1437
Rp1438
(dp1439
g1026
g1027
sg1028
F-0.9599182042211973
sg1029
F1.0
sg15
I56107
sg1030
g1031
sbsI47600
g0
(g1022
g2
Ntp1440
Rp1441
(dp1442
g1026
g1027
sg1028
F-2.0763080831738634
sg1029
F1.0
sg15
I47600
sg1030
g1031
sbsI60403
g0
(g1022
g2
Ntp1443
Rp1444
(dp1445
g1026
g1027
sg1028
F-1.2284078952549256
sg1029
F1.0
sg15
I60403
sg1030
g1031
sbsI28660
g0
(g1022
g2
Ntp1446
Rp1447
(dp1448
g1026
g1027
sg1028
F0.15692024413773537
sg1029
F1.0
sg15
I28660
sg1030
g1031
sbsI33275
g0
(g1022
g2
Ntp1449
Rp1450
(dp1451
g1026
g1027
sg1028
F0.8681281149570225
sg1029
F1.0
sg15
I33275
sg1030
g1031
sbsI51351
g0
(g1022
g2
Ntp1452
Rp1453
(dp1454
g1026
g1027
sg1028
F-3.9049200612591584
sg1029
F1.0
sg15
I51351
sg1030
g1031
sbsI43519
g0
(g1022
g2
Ntp1455
Rp1456
(dp1457
g1026
g1027
sg1028
F1.2190896398989348
sg1029
F1.0
sg15
I43519
sg1030
g1031
sbssg15
I193740
sS'fitness'
p1458
F-0.13631479360410856
sb.