ccopy_reg
_reconstructor
p0
(cneat.genome
DefaultGenome
p1
c__builtin__
object
p2
Ntp3
Rp4
(dp5
S'connections'
p6
(dp7
(I12710
I15507
tp8
g0
(cneat.genes
DefaultConnectionGene
p9
g2
Ntp10
Rp11
(dp12
S'enabled'
p13
I00
sS'weight'
p14
F-0.19833629618378268
sS'key'
p15
g8
sbs(I16073
I12448
tp16
g0
(g9
g2
Ntp17
Rp18
(dp19
g13
I01
sg14
F0.47682248913260006
sg15
g16
sbs(I-2
I0
tp20
g0
(g9
g2
Ntp21
Rp22
(dp23
g13
I00
sg14
F5.766551231590232
sg15
g20
sbs(I4335
I17824
tp24
g0
(g9
g2
Ntp25
Rp26
(dp27
g13
I00
sg14
F-2.1537965402851027
sg15
g24
sbs(I-3
I12448
tp28
g0
(g9
g2
Ntp29
Rp30
(dp31
g13
I01
sg14
F1.7209522928846102
sg15
g28
sbs(I6682
I4991
tp32
g0
(g9
g2
Ntp33
Rp34
(dp35
g13
I00
sg14
F1.237737249944222
sg15
g32
sbs(I4566
I16073
tp36
g0
(g9
g2
Ntp37
Rp38
(dp39
g13
I00
sg14
F1.8109495843306447
sg15
g36
sbs(I0
I8835
tp40
g0
(g9
g2
Ntp41
Rp42
(dp43
g13
I00
sg14
F-1.0086734976276932
sg15
g40
sbs(I1
I8121
tp44
g0
(g9
g2
Ntp45
Rp46
(dp47
g13
I01
sg14
F-0.010795375298594756
sg15
g44
sbs(I-2
I4335
tp48
g0
(g9
g2
Ntp49
Rp50
(dp51
g13
I01
sg14
F0.23959065069620167
sg15
g48
sbs(I4335
I19767
tp52
g0
(g9
g2
Ntp53
Rp54
(dp55
g13
I01
sg14
F-1.7274804118839104
sg15
g52
sbs(I4335
I3
tp56
g0
(g9
g2
Ntp57
Rp58
(dp59
g13
I00
sg14
F-3.411459791997001
sg15
g56
sbs(I9962
I15507
tp60
g0
(g9
g2
Ntp61
Rp62
(dp63
g13
I00
sg14
F-1.3612828492400184
sg15
g60
sbs(I5543
I9962
tp64
g0
(g9
g2
Ntp65
Rp66
(dp67
g13
I01
sg14
F0.7536790745269386
sg15
g64
sbs(I4991
I3
tp68
g0
(g9
g2
Ntp69
Rp70
(dp71
g13
I01
sg14
F1.0658555589163456
sg15
g68
sbs(I0
I19187
tp72
g0
(g9
g2
Ntp73
Rp74
(dp75
g13
I01
sg14
F0.3321013504492025
sg15
g72
sbs(I-2
I11085
tp76
g0
(g9
g2
Ntp77
Rp78
(dp79
g13
I01
sg14
F0.2552468974169131
sg15
g76
sbs(I19463
I12448
tp80
g0
(g9
g2
Ntp81
Rp82
(dp83
g13
I01
sg14
F0.9370202767109439
sg15
g80
sbs(I16313
I9348
tp84
g0
(g9
g2
Ntp85
Rp86
(dp87
g13
I01
sg14
F2.1167993677382393
sg15
g84
sbs(I13114
I4566
tp88
g0
(g9
g2
Ntp89
Rp90
(dp91
g13
I01
sg14
F0.05110037876878479
sg15
g88
sbs(I4335
I4991
tp92
g0
(g9
g2
Ntp93
Rp94
(dp95
g13
I00
sg14
F0.16878875648296915
sg15
g92
sbs(I-3
I4566
tp96
g0
(g9
g2
Ntp97
Rp98
(dp99
g13
I00
sg14
F-3.8291652495479482
sg15
g96
sbs(I19875
I19187
tp100
g0
(g9
g2
Ntp101
Rp102
(dp103
g13
I01
sg14
F2.755904359445824
sg15
g100
sbs(I15788
I7913
tp104
g0
(g9
g2
Ntp105
Rp106
(dp107
g13
I00
sg14
F0.4690289491851987
sg15
g104
sbs(I14618
I22189
tp108
g0
(g9
g2
Ntp109
Rp110
(dp111
g13
I01
sg14
F2.141949297004652
sg15
g108
sbs(I-1
I12710
tp112
g0
(g9
g2
Ntp113
Rp114
(dp115
g13
I00
sg14
F1.1809684250716608
sg15
g112
sbs(I14134
I15788
tp116
g0
(g9
g2
Ntp117
Rp118
(dp119
g13
I01
sg14
F-0.7447697039138242
sg15
g116
sbs(I2
I20491
tp120
g0
(g9
g2
Ntp121
Rp122
(dp123
g13
I01
sg14
F-0.14378928126250545
sg15
g120
sbs(I21920
I4991
tp124
g0
(g9
g2
Ntp125
Rp126
(dp127
g13
I01
sg14
F0.22400099650816924
sg15
g124
sbs(I14134
I9962
tp128
g0
(g9
g2
Ntp129
Rp130
(dp131
g13
I01
sg14
F-0.2167764483778432
sg15
g128
sbs(I-2
I15788
tp132
g0
(g9
g2
Ntp133
Rp134
(dp135
g13
I01
sg14
F-1.01094570233232
sg15
g132
sbs(I-1
I8611
tp136
g0
(g9
g2
Ntp137
Rp138
(dp139
g13
I00
sg14
F0.715904437968403
sg15
g136
sbs(I4991
I7537
tp140
g0
(g9
g2
Ntp141
Rp142
(dp143
g13
I00
sg14
F0.7025503746594873
sg15
g140
sbs(I21363
I4335
tp144
g0
(g9
g2
Ntp145
Rp146
(dp147
g13
I01
sg14
F-1.1165914054663537
sg15
g144
sbs(I16712
I21137
tp148
g0
(g9
g2
Ntp149
Rp150
(dp151
g13
I01
sg14
F-1.1303526858608937
sg15
g148
sbs(I12710
I7537
tp152
g0
(g9
g2
Ntp153
Rp154
(dp155
g13
I00
sg14
F1.1093861289808367
sg15
g152
sbs(I-3
I19463
tp156
g0
(g9
g2
Ntp157
Rp158
(dp159
g13
I00
sg14
F-0.7966529749837301
sg15
g156
sbs(I7913
I8835
tp160
g0
(g9
g2
Ntp161
Rp162
(dp163
g13
I01
sg14
F-1.5829734622182032
sg15
g160
sbs(I-1
I7537
tp164
g0
(g9
g2
Ntp165
Rp166
(dp167
g13
I00
sg14
F-0.9601610204891792
sg15
g164
sbs(I15201
I17151
tp168
g0
(g9
g2
Ntp169
Rp170
(dp171
g13
I00
sg14
F0.645081215048698
sg15
g168
sbs(I9962
I15900
tp172
g0
(g9
g2
Ntp173
Rp174
(dp175
g13
I00
sg14
F0.5860631683950016
sg15
g172
sbs(I4991
I20165
tp176
g0
(g9
g2
Ntp177
Rp178
(dp179
g13
I01
sg14
F-0.12695795123628495
sg15
g176
sbs(I12912
I4335
tp180
g0
(g9
g2
Ntp181
Rp182
(dp183
g13
I00
sg14
F2.586365025784645
sg15
g180
sbs(I12448
I13236
tp184
g0
(g9
g2
Ntp185
Rp186
(dp187
g13
I01
sg14
F2.316472765002713
sg15
g184
sbs(I20639
I9348
tp188
g0
(g9
g2
Ntp189
Rp190
(dp191
g13
I01
sg14
F0.26937379988847115
sg15
g188
sbs(I-2
I2
tp192
g0
(g9
g2
Ntp193
Rp194
(dp195
g13
I01
sg14
F-0.17364580412315123
sg15
g192
sbs(I22243
I14164
tp196
g0
(g9
g2
Ntp197
Rp198
(dp199
g13
I01
sg14
F-1.1458856672350544
sg15
g196
sbs(I2
I17824
tp200
g0
(g9
g2
Ntp201
Rp202
(dp203
g13
I01
sg14
F-0.045064287318610646
sg15
g200
sbs(I20165
I14134
tp204
g0
(g9
g2
Ntp205
Rp206
(dp207
g13
I01
sg14
F0.1780338686328938
sg15
g204
sbs(I-2
I8121
tp208
g0
(g9
g2
Ntp209
Rp210
(dp211
g13
I00
sg14
F-1.17284865598117
sg15
g208
sbs(I-4
I9348
tp212
g0
(g9
g2
Ntp213
Rp214
(dp215
g13
I01
sg14
F2.7191026078563802
sg15
g212
sbs(I17520
I4991
tp216
g0
(g9
g2
Ntp217
Rp218
(dp219
g13
I00
sg14
F-1.064500019196489
sg15
g216
sbs(I8121
I12818
tp220
g0
(g9
g2
Ntp221
Rp222
(dp223
g13
I01
sg14
F0.34390313363619696
sg15
g220
sbs(I-1
I14164
tp224
g0
(g9
g2
Ntp225
Rp226
(dp227
g13
I01
sg14
F-1.166022184384334
sg15
g224
sbs(I4566
I4335
tp228
g0
(g9
g2
Ntp229
Rp230
(dp231
g13
I00
sg14
F-1.1730397689409982
sg15
g228
sbs(I13114
I4991
tp232
g0
(g9
g2
Ntp233
Rp234
(dp235
g13
I01
sg14
F0.8453942326251065
sg15
g232
sbs(I8121
I21467
tp236
g0
(g9
g2
Ntp237
Rp238
(dp239
g13
I01
sg14
F2.857703538572494
sg15
g236
sbs(I11548
I0
tp240
g0
(g9
g2
Ntp241
Rp242
(dp243
g13
I00
sg14
F-0.7420513447429393
sg15
g240
sbs(I16712
I2
tp244
g0
(g9
g2
Ntp245
Rp246
(dp247
g13
I00
sg14
F1.1572853106162744
sg15
g244
sbs(I-2
I9348
tp248
g0
(g9
g2
Ntp249
Rp250
(dp251
g13
I00
sg14
F0.4771570802128413
sg15
g248
sbs(I8121
I7913
tp252
g0
(g9
g2
Ntp253
Rp254
(dp255
g13
I01
sg14
F-0.22890752826756086
sg15
g252
sbs(I14618
I13236
tp256
g0
(g9
g2
Ntp257
Rp258
(dp259
g13
I00
sg14
F1.1517217391139867
sg15
g256
sbs(I20877
I9348
tp260
g0
(g9
g2
Ntp261
Rp262
(dp263
g13
I01
sg14
F0.38053288222245335
sg15
g260
sbs(I20788
I13236
tp264
g0
(g9
g2
Ntp265
Rp266
(dp267
g13
I01
sg14
F-0.5867091170775738
sg15
g264
sbs(I-3
I7370
tp268
g0
(g9
g2
Ntp269
Rp270
(dp271
g13
I00
sg14
F0.5554590789180072
sg15
g268
sbs(I7537
I14618
tp272
g0
(g9
g2
Ntp273
Rp274
(dp275
g13
I00
sg14
F1.4814858856692228
sg15
g272
sbs(I0
I7913
tp276
g0
(g9
g2
Ntp277
Rp278
(dp279
g13
I01
sg14
F-0.09238087793575506
sg15
g276
sbs(I14412
I9079
tp280
g0
(g9
g2
Ntp281
Rp282
(dp283
g13
I00
sg14
F0.8102141799928481
sg15
g280
sbs(I19746
I9348
tp284
g0
(g9
g2
Ntp285
Rp286
(dp287
g13
I01
sg14
F-1.3207047338945415
sg15
g284
sbs(I2
I14490
tp288
g0
(g9
g2
Ntp289
Rp290
(dp291
g13
I01
sg14
F0.4761982218069408
sg15
g288
sbs(I9962
I7537
tp292
g0
(g9
g2
Ntp293
Rp294
(dp295
g13
I00
sg14
F1.9420448240340804
sg15
g292
sbs(I8611
I14134
tp296
g0
(g9
g2
Ntp297
Rp298
(dp299
g13
I01
sg14
F-1.4968692282023506
sg15
g296
sbs(I21467
I15961
tp300
g0
(g9
g2
Ntp301
Rp302
(dp303
g13
I01
sg14
F-2.8304438096553652
sg15
g300
sbs(I15961
I15788
tp304
g0
(g9
g2
Ntp305
Rp306
(dp307
g13
I00
sg14
F-2.7875453448029552
sg15
g304
sbs(I4991
I14134
tp308
g0
(g9
g2
Ntp309
Rp310
(dp311
g13
I01
sg14
F0.4465928298771613
sg15
g308
sbs(I8611
I3
tp312
g0
(g9
g2
Ntp313
Rp314
(dp315
g13
I01
sg14
F2.3267576014236035
sg15
g312
sbs(I12448
I20788
tp316
g0
(g9
g2
Ntp317
Rp318
(dp319
g13
I01
sg14
F-0.5182770333682732
sg15
g316
sbs(I20491
I14490
tp320
g0
(g9
g2
Ntp321
Rp322
(dp323
g13
I01
sg14
F-3.107897997911641
sg15
g320
sbs(I17151
I2
tp324
g0
(g9
g2
Ntp325
Rp326
(dp327
g13
I00
sg14
F-3.1674662713805857
sg15
g324
sbs(I6682
I2
tp328
g0
(g9
g2
Ntp329
Rp330
(dp331
g13
I00
sg14
F-3.2285369666354318
sg15
g328
sbs(I20266
I9348
tp332
g0
(g9
g2
Ntp333
Rp334
(dp335
g13
I01
sg14
F0.7173334413596897
sg15
g332
sbs(I-1
I3
tp336
g0
(g9
g2
Ntp337
Rp338
(dp339
g13
I00
sg14
F0.2020848875550476
sg15
g336
sbs(I12617
I22243
tp340
g0
(g9
g2
Ntp341
Rp342
(dp343
g13
I01
sg14
F1.2317786789499714
sg15
g340
sbs(I-2
I7370
tp344
g0
(g9
g2
Ntp345
Rp346
(dp347
g13
I00
sg14
F1.2782790615659654
sg15
g344
sbs(I-2
I20639
tp348
g0
(g9
g2
Ntp349
Rp350
(dp351
g13
I01
sg14
F-0.040538940680350966
sg15
g348
sbs(I-4
I16313
tp352
g0
(g9
g2
Ntp353
Rp354
(dp355
g13
I00
sg14
F-2.3540787742207616
sg15
g352
sbs(I12448
I14618
tp356
g0
(g9
g2
Ntp357
Rp358
(dp359
g13
I00
sg14
F0.8739606057282572
sg15
g356
sbs(I19746
I20425
tp360
g0
(g9
g2
Ntp361
Rp362
(dp363
g13
I01
sg14
F1.4272857677012418
sg15
g360
sbs(I1
I12617
tp364
g0
(g9
g2
Ntp365
Rp366
(dp367
g13
I00
sg14
F-1.9064066010020684
sg15
g364
sbs(I12912
I21363
tp368
g0
(g9
g2
Ntp369
Rp370
(dp371
g13
I01
sg14
F1.6090081549843076
sg15
g368
sbs(I12448
I2
tp372
g0
(g9
g2
Ntp373
Rp374
(dp375
g13
I01
sg14
F1.0627257658956004
sg15
g372
sbs(I19044
I12448
tp376
g0
(g9
g2
Ntp377
Rp378
(dp379
g13
I01
sg14
F0.8190546236466646
sg15
g376
sbs(I12818
I4335
tp380
g0
(g9
g2
Ntp381
Rp382
(dp383
g13
I01
sg14
F-1.562884560843163
sg15
g380
sbs(I-3
I16073
tp384
g0
(g9
g2
Ntp385
Rp386
(dp387
g13
I01
sg14
F-2.2853721546113657
sg15
g384
sbs(I7913
I16712
tp388
g0
(g9
g2
Ntp389
Rp390
(dp391
g13
I00
sg14
F2.0607881141890037
sg15
g388
sbs(I4335
I21920
tp392
g0
(g9
g2
Ntp393
Rp394
(dp395
g13
I01
sg14
F0.027629633365304662
sg15
g392
sbs(I8121
I15961
tp396
g0
(g9
g2
Ntp397
Rp398
(dp399
g13
I00
sg14
F-1.140428904307813
sg15
g396
sbs(I-4
I3
tp400
g0
(g9
g2
Ntp401
Rp402
(dp403
g13
I00
sg14
F-0.5563370507552701
sg15
g400
sbs(I21137
I2
tp404
g0
(g9
g2
Ntp405
Rp406
(dp407
g13
I01
sg14
F1.1888865431821436
sg15
g404
sbs(I16313
I19746
tp408
g0
(g9
g2
Ntp409
Rp410
(dp411
g13
I01
sg14
F2.519648133428754
sg15
g408
sbs(I22189
I13236
tp412
g0
(g9
g2
Ntp413
Rp414
(dp415
g13
I01
sg14
F-0.15235114455275045
sg15
g412
sbs(I12818
I15201
tp416
g0
(g9
g2
Ntp417
Rp418
(dp419
g13
I01
sg14
F0.2970171742576591
sg15
g416
sbs(I19767
I4991
tp420
g0
(g9
g2
Ntp421
Rp422
(dp423
g13
I01
sg14
F0.4389686310653156
sg15
g420
sbs(I12617
I14164
tp424
g0
(g9
g2
Ntp425
Rp426
(dp427
g13
I00
sg14
F-1.0084157974235761
sg15
g424
sbs(I7913
I2
tp428
g0
(g9
g2
Ntp429
Rp430
(dp431
g13
I00
sg14
F2.1219514878145107
sg15
g428
sbs(I17151
I19187
tp432
g0
(g9
g2
Ntp433
Rp434
(dp435
g13
I00
sg14
F-0.8430866425391939
sg15
g432
sbs(I8121
I15788
tp436
g0
(g9
g2
Ntp437
Rp438
(dp439
g13
I00
sg14
F1.4068933366640082
sg15
g436
sbs(I19746
I20877
tp440
g0
(g9
g2
Ntp441
Rp442
(dp443
g13
I00
sg14
F-1.088506476640788
sg15
g440
sbs(I14618
I9348
tp444
g0
(g9
g2
Ntp445
Rp446
(dp447
g13
I01
sg14
F0.3247111427381292
sg15
g444
sbs(I18916
I3
tp448
g0
(g9
g2
Ntp449
Rp450
(dp451
g13
I01
sg14
F1.9406951675841637
sg15
g448
sbs(I20425
I9348
tp452
g0
(g9
g2
Ntp453
Rp454
(dp455
g13
I01
sg14
F-1.5285201880421513
sg15
g452
sbs(I-2
I20952
tp456
g0
(g9
g2
Ntp457
Rp458
(dp459
g13
I01
sg14
F0.06766418698574883
sg15
g456
sbs(I6682
I15577
tp460
g0
(g9
g2
Ntp461
Rp462
(dp463
g13
I00
sg14
F0.7629719647160698
sg15
g460
sbs(I19044
I7913
tp464
g0
(g9
g2
Ntp465
Rp466
(dp467
g13
I01
sg14
F2.0128784771257275
sg15
g464
sbs(I14164
I8611
tp468
g0
(g9
g2
Ntp469
Rp470
(dp471
g13
I00
sg14
F-0.6962360228858819
sg15
g468
sbs(I0
I13236
tp472
g0
(g9
g2
Ntp473
Rp474
(dp475
g13
I00
sg14
F-2.8692355949519435
sg15
g472
sbs(I12710
I17520
tp476
g0
(g9
g2
Ntp477
Rp478
(dp479
g13
I00
sg14
F-2.2307271820144687
sg15
g476
sbs(I3
I19187
tp480
g0
(g9
g2
Ntp481
Rp482
(dp483
g13
I01
sg14
F-1.6775228267090596
sg15
g480
sbssS'nodes'
p484
(dp485
I0
g0
(cneat.genes
DefaultNodeGene
p486
g2
Ntp487
Rp488
(dp489
S'activation'
p490
S'sigmoid'
p491
sS'bias'
p492
F1.322306756909847
sS'response'
p493
F1.0
sg15
I0
sS'aggregation'
p494
S'sum'
p495
sbsI1
g0
(g486
g2
Ntp496
Rp497
(dp498
g490
g491
sg492
F-0.2900473201556024
sg493
F1.0
sg15
I1
sg494
g495
sbsI2
g0
(g486
g2
Ntp499
Rp500
(dp501
g490
g491
sg492
F1.5127281760090336
sg493
F1.0
sg15
I2
sg494
g495
sbsI3
g0
(g486
g2
Ntp502
Rp503
(dp504
g490
g491
sg492
F0.9725231045299846
sg493
F1.0
sg15
I3
sg494
g495
sbsI9348
g0
(g486
g2
Ntp505
Rp506
(dp507
g490
g491
sg492
F0.07081681349932036
sg493
F1.0
sg15
I9348
sg494
g495
sbsI19463
g0
(g486
g2
Ntp508
Rp509
(dp510
g490
g491
sg492
F1.8648338322578344
sg493
F1.0
sg15
I19463
sg494
g495
sbsI20491
g0
(g486
g2
Ntp511
Rp512
(dp513
g490
g491
sg492
F0.8324814925234344
sg493
F1.0
sg15
I20491
sg494
g495
sbsI20877
g0
(g486
g2
Ntp514
Rp515
(dp516
g490
g491
sg492
F0.320647900335541
sg493
F1.0
sg15
I20877
sg494
g495
sbsI21137
g0
(g486
g2
Ntp517
Rp518
(dp519
g490
g491
sg492
F-0.2767399500933328
sg493
F1.0
sg15
I21137
sg494
g495
sbsI12818
g0
(g486
g2
Ntp520
Rp521
(dp522
g490
g491
sg492
F0.9562186991502981
sg493
F1.0
sg15
I12818
sg494
g495
sbsI15507
g0
(g486
g2
Ntp523
Rp524
(dp525
g490
g491
sg492
F1.6054945336235344
sg493
F1.0
sg15
I15507
sg494
g495
sbsI15961
g0
(g486
g2
Ntp526
Rp527
(dp528
g490
g491
sg492
F0.10540853542664552
sg493
F1.0
sg15
I15961
sg494
g495
sbsI6682
g0
(g486
g2
Ntp529
Rp530
(dp531
g490
g491
sg492
F0.4221380417271061
sg493
F1.0
sg15
I6682
sg494
g495
sbsI11548
g0
(g486
g2
Ntp532
Rp533
(dp534
g490
g491
sg492
F0.5720611099628985
sg493
F1.0
sg15
I11548
sg494
g495
sbsI14490
g0
(g486
g2
Ntp535
Rp536
(dp537
g490
g491
sg492
F0.8779977642621228
sg493
F1.0
sg15
I14490
sg494
g495
sbsI20639
g0
(g486
g2
Ntp538
Rp539
(dp540
g490
g491
sg492
F3.629204145255743
sg493
F1.0
sg15
I20639
sg494
g495
sbsI12448
g0
(g486
g2
Ntp541
Rp542
(dp543
g490
g491
sg492
F0.22446365321081574
sg493
F1.0
sg15
I12448
sg494
g495
sbsI12912
g0
(g486
g2
Ntp544
Rp545
(dp546
g490
g491
sg492
F-0.913590159084968
sg493
F1.0
sg15
I12912
sg494
g495
sbsI19746
g0
(g486
g2
Ntp547
Rp548
(dp549
g490
g491
sg492
F-1.9039350033499183
sg493
F1.0
sg15
I19746
sg494
g495
sbsI8611
g0
(g486
g2
Ntp550
Rp551
(dp552
g490
g491
sg492
F0.5017780207632861
sg493
F1.0
sg15
I8611
sg494
g495
sbsI12710
g0
(g486
g2
Ntp553
Rp554
(dp555
g490
g491
sg492
F1.69276156926408
sg493
F1.0
sg15
I12710
sg494
g495
sbsI5543
g0
(g486
g2
Ntp556
Rp557
(dp558
g490
g491
sg492
F-1.4934510364294946
sg493
F1.0
sg15
I5543
sg494
g495
sbsI15900
g0
(g486
g2
Ntp559
Rp560
(dp561
g490
g491
sg492
F-1.5577797026300229
sg493
F1.0
sg15
I15900
sg494
g495
sbsI20266
g0
(g486
g2
Ntp562
Rp563
(dp564
g490
g491
sg492
F0.5547114234602942
sg493
F1.0
sg15
I20266
sg494
g495
sbsI15788
g0
(g486
g2
Ntp565
Rp566
(dp567
g490
g491
sg492
F-1.602022765105377
sg493
F1.0
sg15
I15788
sg494
g495
sbsI22189
g0
(g486
g2
Ntp568
Rp569
(dp570
g490
g491
sg492
F0.6695933225876709
sg493
F1.0
sg15
I22189
sg494
g495
sbsI19187
g0
(g486
g2
Ntp571
Rp572
(dp573
g490
g491
sg492
F-0.649022860414604
sg493
F1.0
sg15
I19187
sg494
g495
sbsI20788
g0
(g486
g2
Ntp574
Rp575
(dp576
g490
g491
sg492
F1.0959696198363076
sg493
F1.0
sg15
I20788
sg494
g495
sbsI14134
g0
(g486
g2
Ntp577
Rp578
(dp579
g490
g491
sg492
F0.622415331148285
sg493
F1.0
sg15
I14134
sg494
g495
sbsI16073
g0
(g486
g2
Ntp580
Rp581
(dp582
g490
g491
sg492
F0.1948038738295576
sg493
F1.0
sg15
I16073
sg494
g495
sbsI16313
g0
(g486
g2
Ntp583
Rp584
(dp585
g490
g491
sg492
F0.6079606928244643
sg493
F1.0
sg15
I16313
sg494
g495
sbsI13114
g0
(g486
g2
Ntp586
Rp587
(dp588
g490
g491
sg492
F-5.844272021458373
sg493
F1.0
sg15
I13114
sg494
g495
sbsI13236
g0
(g486
g2
Ntp589
Rp590
(dp591
g490
g491
sg492
F1.771085615017072
sg493
F1.0
sg15
I13236
sg494
g495
sbsI17824
g0
(g486
g2
Ntp592
Rp593
(dp594
g490
g491
sg492
F1.9875011480116966
sg493
F1.0
sg15
I17824
sg494
g495
sbsI20165
g0
(g486
g2
Ntp595
Rp596
(dp597
g490
g491
sg492
F2.7708692011090053
sg493
F1.0
sg15
I20165
sg494
g495
sbsI16712
g0
(g486
g2
Ntp598
Rp599
(dp600
g490
g491
sg492
F-0.8043964643681965
sg493
F1.0
sg15
I16712
sg494
g495
sbsI12617
g0
(g486
g2
Ntp601
Rp602
(dp603
g490
g491
sg492
F0.22073866456452268
sg493
F1.0
sg15
I12617
sg494
g495
sbsI7370
g0
(g486
g2
Ntp604
Rp605
(dp606
g490
g491
sg492
F-0.8768052948410797
sg493
F1.0
sg15
I7370
sg494
g495
sbsI19767
g0
(g486
g2
Ntp607
Rp608
(dp609
g490
g491
sg492
F-1.0919260824387513
sg493
F1.0
sg15
I19767
sg494
g495
sbsI14412
g0
(g486
g2
Ntp610
Rp611
(dp612
g490
g491
sg492
F2.5134896474203146
sg493
F1.0
sg15
I14412
sg494
g495
sbsI11085
g0
(g486
g2
Ntp613
Rp614
(dp615
g490
g491
sg492
F-1.085911410163357
sg493
F1.0
sg15
I11085
sg494
g495
sbsI19875
g0
(g486
g2
Ntp616
Rp617
(dp618
g490
g491
sg492
F0.5866898878486924
sg493
F1.0
sg15
I19875
sg494
g495
sbsI14164
g0
(g486
g2
Ntp619
Rp620
(dp621
g490
g491
sg492
F1.6406908195472945
sg493
F1.0
sg15
I14164
sg494
g495
sbsI21920
g0
(g486
g2
Ntp622
Rp623
(dp624
g490
g491
sg492
F-1.5901856253982742
sg493
F1.0
sg15
I21920
sg494
g495
sbsI4566
g0
(g486
g2
Ntp625
Rp626
(dp627
g490
g491
sg492
F-3.2890504543938297
sg493
F1.0
sg15
I4566
sg494
g495
sbsI8121
g0
(g486
g2
Ntp628
Rp629
(dp630
g490
g491
sg492
F0.044438094971316226
sg493
F1.0
sg15
I8121
sg494
g495
sbsI20952
g0
(g486
g2
Ntp631
Rp632
(dp633
g490
g491
sg492
F-2.0946310041358576
sg493
F1.0
sg15
I20952
sg494
g495
sbsI15577
g0
(g486
g2
Ntp634
Rp635
(dp636
g490
g491
sg492
F-4.859766723642746
sg493
F1.0
sg15
I15577
sg494
g495
sbsI14618
g0
(g486
g2
Ntp637
Rp638
(dp639
g490
g491
sg492
F-1.4891957644549807
sg493
F1.0
sg15
I14618
sg494
g495
sbsI21467
g0
(g486
g2
Ntp640
Rp641
(dp642
g490
g491
sg492
F-0.7072078770311303
sg493
F1.0
sg15
I21467
sg494
g495
sbsI15201
g0
(g486
g2
Ntp643
Rp644
(dp645
g490
g491
sg492
F-0.9731879986990826
sg493
F1.0
sg15
I15201
sg494
g495
sbsI22243
g0
(g486
g2
Ntp646
Rp647
(dp648
g490
g491
sg492
F0.6668503712554357
sg493
F1.0
sg15
I22243
sg494
g495
sbsI18916
g0
(g486
g2
Ntp649
Rp650
(dp651
g490
g491
sg492
F1.1656426250782228
sg493
F1.0
sg15
I18916
sg494
g495
sbsI19044
g0
(g486
g2
Ntp652
Rp653
(dp654
g490
g491
sg492
F2.828482002640233
sg493
F1.0
sg15
I19044
sg494
g495
sbsI7913
g0
(g486
g2
Ntp655
Rp656
(dp657
g490
g491
sg492
F0.4638042393755406
sg493
F1.0
sg15
I7913
sg494
g495
sbsI9962
g0
(g486
g2
Ntp658
Rp659
(dp660
g490
g491
sg492
F2.619950851304133
sg493
F1.0
sg15
I9962
sg494
g495
sbsI20425
g0
(g486
g2
Ntp661
Rp662
(dp663
g490
g491
sg492
F-2.1123450679943256
sg493
F1.0
sg15
I20425
sg494
g495
sbsI4335
g0
(g486
g2
Ntp664
Rp665
(dp666
g490
g491
sg492
F0.11678528843533936
sg493
F1.0
sg15
I4335
sg494
g495
sbsI17520
g0
(g486
g2
Ntp667
Rp668
(dp669
g490
g491
sg492
F-0.04618944164096511
sg493
F1.0
sg15
I17520
sg494
g495
sbsI7537
g0
(g486
g2
Ntp670
Rp671
(dp672
g490
g491
sg492
F-1.6076474597300683
sg493
F1.0
sg15
I7537
sg494
g495
sbsI21363
g0
(g486
g2
Ntp673
Rp674
(dp675
g490
g491
sg492
F-2.4407959583407637
sg493
F1.0
sg15
I21363
sg494
g495
sbsI8835
g0
(g486
g2
Ntp676
Rp677
(dp678
g490
g491
sg492
F-1.7366741930944516
sg493
F1.0
sg15
I8835
sg494
g495
sbsI9079
g0
(g486
g2
Ntp679
Rp680
(dp681
g490
g491
sg492
F-2.7513332615669417
sg493
F1.0
sg15
I9079
sg494
g495
sbsI17151
g0
(g486
g2
Ntp682
Rp683
(dp684
g490
g491
sg492
F5.286408659737877
sg493
F1.0
sg15
I17151
sg494
g495
sbsI4991
g0
(g486
g2
Ntp685
Rp686
(dp687
g490
g491
sg492
F0.9696958563125633
sg493
F1.0
sg15
I4991
sg494
g495
sbssg15
I66794
sS'fitness'
p688
F99.99342929541628
sb.