ccopy_reg
_reconstructor
p0
(cneat.genome
DefaultGenome
p1
c__builtin__
object
p2
Ntp3
Rp4
(dp5
S'connections'
p6
(dp7
(I12710
I15507
tp8
g0
(cneat.genes
DefaultConnectionGene
p9
g2
Ntp10
Rp11
(dp12
S'enabled'
p13
I00
sS'weight'
p14
F-3.4250282980627915
sS'key'
p15
g8
sbs(I16073
I12448
tp16
g0
(g9
g2
Ntp17
Rp18
(dp19
g13
I01
sg14
F0.990843325900803
sg15
g16
sbs(I-2
I0
tp20
g0
(g9
g2
Ntp21
Rp22
(dp23
g13
I01
sg14
F1.3833944299286824
sg15
g20
sbs(I-3
I12448
tp24
g0
(g9
g2
Ntp25
Rp26
(dp27
g13
I01
sg14
F0.5503861692047911
sg15
g24
sbs(I6682
I4991
tp28
g0
(g9
g2
Ntp29
Rp30
(dp31
g13
I00
sg14
F-0.23859971059964025
sg15
g28
sbs(I4566
I16073
tp32
g0
(g9
g2
Ntp33
Rp34
(dp35
g13
I01
sg14
F-0.10581828712511887
sg15
g32
sbs(I0
I8835
tp36
g0
(g9
g2
Ntp37
Rp38
(dp39
g13
I01
sg14
F-1.170327007521755
sg15
g36
sbs(I1
I8121
tp40
g0
(g9
g2
Ntp41
Rp42
(dp43
g13
I01
sg14
F-1.8425204420576722
sg15
g40
sbs(I-2
I4335
tp44
g0
(g9
g2
Ntp45
Rp46
(dp47
g13
I00
sg14
F2.190455543658679
sg15
g44
sbs(I4335
I19767
tp48
g0
(g9
g2
Ntp49
Rp50
(dp51
g13
I01
sg14
F0.009696717328908366
sg15
g48
sbs(I-2
I8121
tp52
g0
(g9
g2
Ntp53
Rp54
(dp55
g13
I00
sg14
F0.19314710295062232
sg15
g52
sbs(I4335
I3
tp56
g0
(g9
g2
Ntp57
Rp58
(dp59
g13
I00
sg14
F-2.1933391231252495
sg15
g56
sbs(I9962
I15507
tp60
g0
(g9
g2
Ntp61
Rp62
(dp63
g13
I01
sg14
F-0.9923791150286428
sg15
g60
sbs(I5543
I9962
tp64
g0
(g9
g2
Ntp65
Rp66
(dp67
g13
I01
sg14
F2.404611333715424
sg15
g64
sbs(I4991
I3
tp68
g0
(g9
g2
Ntp69
Rp70
(dp71
g13
I00
sg14
F2.07229855713974
sg15
g68
sbs(I20877
I9348
tp72
g0
(g9
g2
Ntp73
Rp74
(dp75
g13
I01
sg14
F0.25023071609911307
sg15
g72
sbs(I-2
I11085
tp76
g0
(g9
g2
Ntp77
Rp78
(dp79
g13
I01
sg14
F1.5935083786616613
sg15
g76
sbs(I19463
I12448
tp80
g0
(g9
g2
Ntp81
Rp82
(dp83
g13
I00
sg14
F-1.0473438489148816
sg15
g80
sbs(I16313
I9348
tp84
g0
(g9
g2
Ntp85
Rp86
(dp87
g13
I01
sg14
F0.630336915356485
sg15
g84
sbs(I13114
I4566
tp88
g0
(g9
g2
Ntp89
Rp90
(dp91
g13
I01
sg14
F0.4989898406825106
sg15
g88
sbs(I4335
I4991
tp92
g0
(g9
g2
Ntp93
Rp94
(dp95
g13
I00
sg14
F0.18407387202885034
sg15
g92
sbs(I-3
I4566
tp96
g0
(g9
g2
Ntp97
Rp98
(dp99
g13
I00
sg14
F-0.7278670439449417
sg15
g96
sbs(I19875
I19187
tp100
g0
(g9
g2
Ntp101
Rp102
(dp103
g13
I01
sg14
F0.45325813788794056
sg15
g100
sbs(I20952
I0
tp104
g0
(g9
g2
Ntp105
Rp106
(dp107
g13
I01
sg14
F-0.776865223692701
sg15
g104
sbs(I-1
I12710
tp108
g0
(g9
g2
Ntp109
Rp110
(dp111
g13
I01
sg14
F3.2387300125419975
sg15
g108
sbs(I14134
I15788
tp112
g0
(g9
g2
Ntp113
Rp114
(dp115
g13
I01
sg14
F0.8255524796762382
sg15
g112
sbs(I2
I20491
tp116
g0
(g9
g2
Ntp117
Rp118
(dp119
g13
I01
sg14
F-0.19148544093813355
sg15
g116
sbs(I12912
I4335
tp120
g0
(g9
g2
Ntp121
Rp122
(dp123
g13
I00
sg14
F-3.5308670241090585
sg15
g120
sbs(I14134
I9962
tp124
g0
(g9
g2
Ntp125
Rp126
(dp127
g13
I01
sg14
F-4.630252975485287
sg15
g124
sbs(I-1
I8611
tp128
g0
(g9
g2
Ntp129
Rp130
(dp131
g13
I00
sg14
F-0.2879824533462393
sg15
g128
sbs(I4991
I7537
tp132
g0
(g9
g2
Ntp133
Rp134
(dp135
g13
I00
sg14
F-0.6445929019386262
sg15
g132
sbs(I21363
I4335
tp136
g0
(g9
g2
Ntp137
Rp138
(dp139
g13
I01
sg14
F-0.3865561751225036
sg15
g136
sbs(I16712
I21137
tp140
g0
(g9
g2
Ntp141
Rp142
(dp143
g13
I01
sg14
F-0.8705959268693783
sg15
g140
sbs(I12710
I7537
tp144
g0
(g9
g2
Ntp145
Rp146
(dp147
g13
I00
sg14
F0.40470264299276654
sg15
g144
sbs(I-3
I19463
tp148
g0
(g9
g2
Ntp149
Rp150
(dp151
g13
I00
sg14
F1.5569810209487214
sg15
g148
sbs(I7913
I8835
tp152
g0
(g9
g2
Ntp153
Rp154
(dp155
g13
I01
sg14
F0.30534492475476077
sg15
g152
sbs(I-1
I7537
tp156
g0
(g9
g2
Ntp157
Rp158
(dp159
g13
I00
sg14
F0.2293991902037201
sg15
g156
sbs(I15201
I17151
tp160
g0
(g9
g2
Ntp161
Rp162
(dp163
g13
I00
sg14
F4.535908152370433
sg15
g160
sbs(I9962
I15900
tp164
g0
(g9
g2
Ntp165
Rp166
(dp167
g13
I00
sg14
F2.754303470999249
sg15
g164
sbs(I4991
I20165
tp168
g0
(g9
g2
Ntp169
Rp170
(dp171
g13
I01
sg14
F-0.9234412047081434
sg15
g168
sbs(I12448
I13236
tp172
g0
(g9
g2
Ntp173
Rp174
(dp175
g13
I01
sg14
F-0.17152721446257346
sg15
g172
sbs(I20639
I9348
tp176
g0
(g9
g2
Ntp177
Rp178
(dp179
g13
I01
sg14
F0.7672997625814305
sg15
g176
sbs(I-2
I2
tp180
g0
(g9
g2
Ntp181
Rp182
(dp183
g13
I01
sg14
F0.47530430376026295
sg15
g180
sbs(I2
I17824
tp184
g0
(g9
g2
Ntp185
Rp186
(dp187
g13
I01
sg14
F0.5391849187073006
sg15
g184
sbs(I20165
I14134
tp188
g0
(g9
g2
Ntp189
Rp190
(dp191
g13
I01
sg14
F-0.32904837047026353
sg15
g188
sbs(I-2
I16313
tp192
g0
(g9
g2
Ntp193
Rp194
(dp195
g13
I01
sg14
F-0.4928140138002108
sg15
g192
sbs(I-4
I9348
tp196
g0
(g9
g2
Ntp197
Rp198
(dp199
g13
I01
sg14
F0.29570817857505594
sg15
g196
sbs(I8611
I14134
tp200
g0
(g9
g2
Ntp201
Rp202
(dp203
g13
I01
sg14
F-3.7129303791065746
sg15
g200
sbs(I8121
I12818
tp204
g0
(g9
g2
Ntp205
Rp206
(dp207
g13
I01
sg14
F2.260588563854998
sg15
g204
sbs(I-1
I14164
tp208
g0
(g9
g2
Ntp209
Rp210
(dp211
g13
I00
sg14
F-1.050194194301682
sg15
g208
sbs(I4566
I4335
tp212
g0
(g9
g2
Ntp213
Rp214
(dp215
g13
I00
sg14
F-3.3112670601611174
sg15
g212
sbs(I13114
I4991
tp216
g0
(g9
g2
Ntp217
Rp218
(dp219
g13
I01
sg14
F-1.6531371352851048
sg15
g216
sbs(I8121
I21467
tp220
g0
(g9
g2
Ntp221
Rp222
(dp223
g13
I01
sg14
F0.8776255544593028
sg15
g220
sbs(I11548
I0
tp224
g0
(g9
g2
Ntp225
Rp226
(dp227
g13
I01
sg14
F0.6898831319263802
sg15
g224
sbs(I16712
I2
tp228
g0
(g9
g2
Ntp229
Rp230
(dp231
g13
I00
sg14
F-0.9327238654922756
sg15
g228
sbs(I-2
I9348
tp232
g0
(g9
g2
Ntp233
Rp234
(dp235
g13
I00
sg14
F1.834113688351963
sg15
g232
sbs(I8121
I7913
tp236
g0
(g9
g2
Ntp237
Rp238
(dp239
g13
I01
sg14
F-1.758044720113042
sg15
g236
sbs(I14618
I13236
tp240
g0
(g9
g2
Ntp241
Rp242
(dp243
g13
I00
sg14
F-1.2677255963159357
sg15
g240
sbs(I0
I19187
tp244
g0
(g9
g2
Ntp245
Rp246
(dp247
g13
I01
sg14
F-0.3656234611027881
sg15
g244
sbs(I20788
I13236
tp248
g0
(g9
g2
Ntp249
Rp250
(dp251
g13
I01
sg14
F-4.057707411079788
sg15
g248
sbs(I-3
I7370
tp252
g0
(g9
g2
Ntp253
Rp254
(dp255
g13
I00
sg14
F0.20550598402930143
sg15
g252
sbs(I7537
I14618
tp256
g0
(g9
g2
Ntp257
Rp258
(dp259
g13
I00
sg14
F-0.49387316890967337
sg15
g256
sbs(I14412
I9079
tp260
g0
(g9
g2
Ntp261
Rp262
(dp263
g13
I00
sg14
F-4.164983903183233
sg15
g260
sbs(I19746
I9348
tp264
g0
(g9
g2
Ntp265
Rp266
(dp267
g13
I00
sg14
F-4.396189244311437
sg15
g264
sbs(I2
I14490
tp268
g0
(g9
g2
Ntp269
Rp270
(dp271
g13
I01
sg14
F1.138085577924746
sg15
g268
sbs(I19746
I20425
tp272
g0
(g9
g2
Ntp273
Rp274
(dp275
g13
I01
sg14
F0.3231884645855323
sg15
g272
sbs(I17520
I4991
tp276
g0
(g9
g2
Ntp277
Rp278
(dp279
g13
I01
sg14
F-0.5672356015280928
sg15
g276
sbs(I21467
I15961
tp280
g0
(g9
g2
Ntp281
Rp282
(dp283
g13
I01
sg14
F0.5427269060785971
sg15
g280
sbs(I15961
I15788
tp284
g0
(g9
g2
Ntp285
Rp286
(dp287
g13
I01
sg14
F0.05603627926971175
sg15
g284
sbs(I-2
I20952
tp288
g0
(g9
g2
Ntp289
Rp290
(dp291
g13
I01
sg14
F1.5126550718239749
sg15
g288
sbs(I4991
I14134
tp292
g0
(g9
g2
Ntp293
Rp294
(dp295
g13
I01
sg14
F2.100631228764975
sg15
g292
sbs(I8611
I3
tp296
g0
(g9
g2
Ntp297
Rp298
(dp299
g13
I01
sg14
F0.1050621414550286
sg15
g296
sbs(I12448
I20788
tp300
g0
(g9
g2
Ntp301
Rp302
(dp303
g13
I01
sg14
F-1.1715310252243327
sg15
g300
sbs(I18916
I3
tp304
g0
(g9
g2
Ntp305
Rp306
(dp307
g13
I01
sg14
F1.315889489898666
sg15
g304
sbs(I20491
I14490
tp308
g0
(g9
g2
Ntp309
Rp310
(dp311
g13
I01
sg14
F1.7279553988950205
sg15
g308
sbs(I17151
I2
tp312
g0
(g9
g2
Ntp313
Rp314
(dp315
g13
I00
sg14
F3.878754421397722
sg15
g312
sbs(I6682
I2
tp316
g0
(g9
g2
Ntp317
Rp318
(dp319
g13
I00
sg14
F3.02738134277381
sg15
g316
sbs(I20266
I9348
tp320
g0
(g9
g2
Ntp321
Rp322
(dp323
g13
I01
sg14
F0.15257169726207342
sg15
g320
sbs(I-1
I3
tp324
g0
(g9
g2
Ntp325
Rp326
(dp327
g13
I00
sg14
F-0.7641890506287536
sg15
g324
sbs(I-2
I7370
tp328
g0
(g9
g2
Ntp329
Rp330
(dp331
g13
I00
sg14
F0.8935644411104771
sg15
g328
sbs(I-2
I20639
tp332
g0
(g9
g2
Ntp333
Rp334
(dp335
g13
I01
sg14
F-0.18943101961405232
sg15
g332
sbs(I-4
I16313
tp336
g0
(g9
g2
Ntp337
Rp338
(dp339
g13
I01
sg14
F-0.21660983540364023
sg15
g336
sbs(I9079
I20165
tp340
g0
(g9
g2
Ntp341
Rp342
(dp343
g13
I01
sg14
F-0.3558939745380831
sg15
g340
sbs(I12448
I14618
tp344
g0
(g9
g2
Ntp345
Rp346
(dp347
g13
I00
sg14
F3.0247385824273048
sg15
g344
sbs(I9962
I7537
tp348
g0
(g9
g2
Ntp349
Rp350
(dp351
g13
I00
sg14
F0.14794205507313188
sg15
g348
sbs(I1
I12617
tp352
g0
(g9
g2
Ntp353
Rp354
(dp355
g13
I00
sg14
F-2.2561617563412772
sg15
g352
sbs(I12912
I21363
tp356
g0
(g9
g2
Ntp357
Rp358
(dp359
g13
I01
sg14
F0.9954249255458647
sg15
g356
sbs(I12448
I2
tp360
g0
(g9
g2
Ntp361
Rp362
(dp363
g13
I00
sg14
F-2.3393314389813753
sg15
g360
sbs(I19044
I12448
tp364
g0
(g9
g2
Ntp365
Rp366
(dp367
g13
I01
sg14
F1.521411765128277
sg15
g364
sbs(I12818
I4335
tp368
g0
(g9
g2
Ntp369
Rp370
(dp371
g13
I01
sg14
F-1.5342380750794997
sg15
g368
sbs(I-3
I16073
tp372
g0
(g9
g2
Ntp373
Rp374
(dp375
g13
I01
sg14
F-1.349561898199612
sg15
g372
sbs(I7913
I16712
tp376
g0
(g9
g2
Ntp377
Rp378
(dp379
g13
I00
sg14
F-0.8776185772148708
sg15
g376
sbs(I4335
I17824
tp380
g0
(g9
g2
Ntp381
Rp382
(dp383
g13
I00
sg14
F-1.1784410338540334
sg15
g380
sbs(I8121
I15961
tp384
g0
(g9
g2
Ntp385
Rp386
(dp387
g13
I00
sg14
F-1.7939919073526496
sg15
g384
sbs(I-4
I3
tp388
g0
(g9
g2
Ntp389
Rp390
(dp391
g13
I00
sg14
F-0.38239102041967543
sg15
g388
sbs(I21137
I2
tp392
g0
(g9
g2
Ntp393
Rp394
(dp395
g13
I01
sg14
F0.4093885351548498
sg15
g392
sbs(I16313
I19746
tp396
g0
(g9
g2
Ntp397
Rp398
(dp399
g13
I01
sg14
F-2.261497302394787
sg15
g396
sbs(I12818
I15201
tp400
g0
(g9
g2
Ntp401
Rp402
(dp403
g13
I01
sg14
F1.7676339877985248
sg15
g400
sbs(I19767
I4991
tp404
g0
(g9
g2
Ntp405
Rp406
(dp407
g13
I01
sg14
F-0.6641248266915407
sg15
g404
sbs(I12617
I14164
tp408
g0
(g9
g2
Ntp409
Rp410
(dp411
g13
I00
sg14
F-0.8172068064555873
sg15
g408
sbs(I7913
I2
tp412
g0
(g9
g2
Ntp413
Rp414
(dp415
g13
I00
sg14
F-1.5307842159564622
sg15
g412
sbs(I17151
I19187
tp416
g0
(g9
g2
Ntp417
Rp418
(dp419
g13
I00
sg14
F-0.9414426573902689
sg15
g416
sbs(I8121
I15788
tp420
g0
(g9
g2
Ntp421
Rp422
(dp423
g13
I00
sg14
F-3.8148320651368612
sg15
g420
sbs(I19746
I20877
tp424
g0
(g9
g2
Ntp425
Rp426
(dp427
g13
I00
sg14
F-0.8752949568038819
sg15
g424
sbs(I14618
I9348
tp428
g0
(g9
g2
Ntp429
Rp430
(dp431
g13
I01
sg14
F1.6628949496636247
sg15
g428
sbs(I20425
I9348
tp432
g0
(g9
g2
Ntp433
Rp434
(dp435
g13
I01
sg14
F0.2202437363208369
sg15
g432
sbs(I7537
I21137
tp436
g0
(g9
g2
Ntp437
Rp438
(dp439
g13
I01
sg14
F1.8636295283909567
sg15
g436
sbs(I6682
I15577
tp440
g0
(g9
g2
Ntp441
Rp442
(dp443
g13
I01
sg14
F-0.6561426505896799
sg15
g440
sbs(I19044
I7913
tp444
g0
(g9
g2
Ntp445
Rp446
(dp447
g13
I01
sg14
F0.5363029232530099
sg15
g444
sbs(I14164
I8611
tp448
g0
(g9
g2
Ntp449
Rp450
(dp451
g13
I00
sg14
F-0.9649421817754127
sg15
g448
sbs(I0
I13236
tp452
g0
(g9
g2
Ntp453
Rp454
(dp455
g13
I00
sg14
F-1.4790187505586503
sg15
g452
sbs(I12710
I17520
tp456
g0
(g9
g2
Ntp457
Rp458
(dp459
g13
I00
sg14
F-0.07107136876450859
sg15
g456
sbs(I18916
I0
tp460
g0
(g9
g2
Ntp461
Rp462
(dp463
g13
I01
sg14
F-0.20558487262425335
sg15
g460
sbssS'nodes'
p464
(dp465
I0
g0
(cneat.genes
DefaultNodeGene
p466
g2
Ntp467
Rp468
(dp469
S'activation'
p470
S'sigmoid'
p471
sS'bias'
p472
F-0.3565746244231841
sS'response'
p473
F1.0
sg15
I0
sS'aggregation'
p474
S'sum'
p475
sbsI1
g0
(g466
g2
Ntp476
Rp477
(dp478
g470
g471
sg472
F0.6988978337824725
sg473
F1.0
sg15
I1
sg474
g475
sbsI2
g0
(g466
g2
Ntp479
Rp480
(dp481
g470
g471
sg472
F2.3812165979126116
sg473
F1.0
sg15
I2
sg474
g475
sbsI3
g0
(g466
g2
Ntp482
Rp483
(dp484
g470
g471
sg472
F0.8722608286344994
sg473
F1.0
sg15
I3
sg474
g475
sbsI9348
g0
(g466
g2
Ntp485
Rp486
(dp487
g470
g471
sg472
F0.9498171690943771
sg473
F1.0
sg15
I9348
sg474
g475
sbsI19463
g0
(g466
g2
Ntp488
Rp489
(dp490
g470
g471
sg472
F-1.5730370035873014
sg473
F1.0
sg15
I19463
sg474
g475
sbsI20491
g0
(g466
g2
Ntp491
Rp492
(dp493
g470
g471
sg472
F-0.19458898429309368
sg473
F1.0
sg15
I20491
sg474
g475
sbsI20877
g0
(g466
g2
Ntp494
Rp495
(dp496
g470
g471
sg472
F0.30949379199321236
sg473
F1.0
sg15
I20877
sg474
g475
sbsI21137
g0
(g466
g2
Ntp497
Rp498
(dp499
g470
g471
sg472
F0.17661029326818317
sg473
F1.0
sg15
I21137
sg474
g475
sbsI12818
g0
(g466
g2
Ntp500
Rp501
(dp502
g470
g471
sg472
F1.41623523434382
sg473
F1.0
sg15
I12818
sg474
g475
sbsI15507
g0
(g466
g2
Ntp503
Rp504
(dp505
g470
g471
sg472
F-0.8808999869490521
sg473
F1.0
sg15
I15507
sg474
g475
sbsI15577
g0
(g466
g2
Ntp506
Rp507
(dp508
g470
g471
sg472
F-1.0437117496605794
sg473
F1.0
sg15
I15577
sg474
g475
sbsI6682
g0
(g466
g2
Ntp509
Rp510
(dp511
g470
g471
sg472
F-1.3747246872588619
sg473
F1.0
sg15
I6682
sg474
g475
sbsI11548
g0
(g466
g2
Ntp512
Rp513
(dp514
g470
g471
sg472
F0.8381942824320431
sg473
F1.0
sg15
I11548
sg474
g475
sbsI14490
g0
(g466
g2
Ntp515
Rp516
(dp517
g470
g471
sg472
F1.3698626024047464
sg473
F1.0
sg15
I14490
sg474
g475
sbsI20639
g0
(g466
g2
Ntp518
Rp519
(dp520
g470
g471
sg472
F2.4861100811247945
sg473
F1.0
sg15
I20639
sg474
g475
sbsI12448
g0
(g466
g2
Ntp521
Rp522
(dp523
g470
g471
sg472
F-2.507622503044318
sg473
F1.0
sg15
I12448
sg474
g475
sbsI17520
g0
(g466
g2
Ntp524
Rp525
(dp526
g470
g471
sg472
F-1.4613052137892688
sg473
F1.0
sg15
I17520
sg474
g475
sbsI19746
g0
(g466
g2
Ntp527
Rp528
(dp529
g470
g471
sg472
F-0.8192230776522627
sg473
F1.0
sg15
I19746
sg474
g475
sbsI8611
g0
(g466
g2
Ntp530
Rp531
(dp532
g470
g471
sg472
F1.5689518130465485
sg473
F1.0
sg15
I8611
sg474
g475
sbsI12710
g0
(g466
g2
Ntp533
Rp534
(dp535
g470
g471
sg472
F3.6757457075425863
sg473
F1.0
sg15
I12710
sg474
g475
sbsI5543
g0
(g466
g2
Ntp536
Rp537
(dp538
g470
g471
sg472
F0.41327803824223586
sg473
F1.0
sg15
I5543
sg474
g475
sbsI15900
g0
(g466
g2
Ntp539
Rp540
(dp541
g470
g471
sg472
F-2.0607954454919297
sg473
F1.0
sg15
I15900
sg474
g475
sbsI20266
g0
(g466
g2
Ntp542
Rp543
(dp544
g470
g471
sg472
F-1.2458714843581549
sg473
F1.0
sg15
I20266
sg474
g475
sbsI15788
g0
(g466
g2
Ntp545
Rp546
(dp547
g470
g471
sg472
F0.5717685456263032
sg473
F1.0
sg15
I15788
sg474
g475
sbsI21363
g0
(g466
g2
Ntp548
Rp549
(dp550
g470
g471
sg472
F-2.447182025638767
sg473
F1.0
sg15
I21363
sg474
g475
sbsI20788
g0
(g466
g2
Ntp551
Rp552
(dp553
g470
g471
sg472
F1.6861839059869586
sg473
F1.0
sg15
I20788
sg474
g475
sbsI14134
g0
(g466
g2
Ntp554
Rp555
(dp556
g470
g471
sg472
F0.4154486393049662
sg473
F1.0
sg15
I14134
sg474
g475
sbsI12617
g0
(g466
g2
Ntp557
Rp558
(dp559
g470
g471
sg472
F-0.7051075079920193
sg473
F1.0
sg15
I12617
sg474
g475
sbsI16313
g0
(g466
g2
Ntp560
Rp561
(dp562
g470
g471
sg472
F-0.14187530605929605
sg473
F1.0
sg15
I16313
sg474
g475
sbsI13114
g0
(g466
g2
Ntp563
Rp564
(dp565
g470
g471
sg472
F-1.0983192550183163
sg473
F1.0
sg15
I13114
sg474
g475
sbsI13236
g0
(g466
g2
Ntp566
Rp567
(dp568
g470
g471
sg472
F0.3295569130389046
sg473
F1.0
sg15
I13236
sg474
g475
sbsI17824
g0
(g466
g2
Ntp569
Rp570
(dp571
g470
g471
sg472
F0.5818152247862423
sg473
F1.0
sg15
I17824
sg474
g475
sbsI20165
g0
(g466
g2
Ntp572
Rp573
(dp574
g470
g471
sg472
F-1.4757985702165888
sg473
F1.0
sg15
I20165
sg474
g475
sbsI16712
g0
(g466
g2
Ntp575
Rp576
(dp577
g470
g471
sg472
F1.2288244661229695
sg473
F1.0
sg15
I16712
sg474
g475
sbsI16073
g0
(g466
g2
Ntp578
Rp579
(dp580
g470
g471
sg472
F0.07044393209336014
sg473
F1.0
sg15
I16073
sg474
g475
sbsI7370
g0
(g466
g2
Ntp581
Rp582
(dp583
g470
g471
sg472
F0.512336293404288
sg473
F1.0
sg15
I7370
sg474
g475
sbsI19767
g0
(g466
g2
Ntp584
Rp585
(dp586
g470
g471
sg472
F3.3360825229793667
sg473
F1.0
sg15
I19767
sg474
g475
sbsI14412
g0
(g466
g2
Ntp587
Rp588
(dp589
g470
g471
sg472
F0.9834838250084246
sg473
F1.0
sg15
I14412
sg474
g475
sbsI11085
g0
(g466
g2
Ntp590
Rp591
(dp592
g470
g471
sg472
F-0.004719058913859736
sg473
F1.0
sg15
I11085
sg474
g475
sbsI19875
g0
(g466
g2
Ntp593
Rp594
(dp595
g470
g471
sg472
F2.0536227702292207
sg473
F1.0
sg15
I19875
sg474
g475
sbsI14164
g0
(g466
g2
Ntp596
Rp597
(dp598
g470
g471
sg472
F1.9908121856508716
sg473
F1.0
sg15
I14164
sg474
g475
sbsI4566
g0
(g466
g2
Ntp599
Rp600
(dp601
g470
g471
sg472
F-1.6088539360761243
sg473
F1.0
sg15
I4566
sg474
g475
sbsI8121
g0
(g466
g2
Ntp602
Rp603
(dp604
g470
g471
sg472
F-1.1191936352918113
sg473
F1.0
sg15
I8121
sg474
g475
sbsI20952
g0
(g466
g2
Ntp605
Rp606
(dp607
g470
g471
sg472
F-1.651501759432836
sg473
F1.0
sg15
I20952
sg474
g475
sbsI15961
g0
(g466
g2
Ntp608
Rp609
(dp610
g470
g471
sg472
F-0.337763697409796
sg473
F1.0
sg15
I15961
sg474
g475
sbsI14618
g0
(g466
g2
Ntp611
Rp612
(dp613
g470
g471
sg472
F-2.6968912743441944
sg473
F1.0
sg15
I14618
sg474
g475
sbsI21467
g0
(g466
g2
Ntp614
Rp615
(dp616
g470
g471
sg472
F1.5650932631313808
sg473
F1.0
sg15
I21467
sg474
g475
sbsI15201
g0
(g466
g2
Ntp617
Rp618
(dp619
g470
g471
sg472
F-1.0992609517849374
sg473
F1.0
sg15
I15201
sg474
g475
sbsI18916
g0
(g466
g2
Ntp620
Rp621
(dp622
g470
g471
sg472
F0.697910480460651
sg473
F1.0
sg15
I18916
sg474
g475
sbsI19044
g0
(g466
g2
Ntp623
Rp624
(dp625
g470
g471
sg472
F-1.5899508614743236
sg473
F1.0
sg15
I19044
sg474
g475
sbsI7913
g0
(g466
g2
Ntp626
Rp627
(dp628
g470
g471
sg472
F-0.8878965156390702
sg473
F1.0
sg15
I7913
sg474
g475
sbsI9962
g0
(g466
g2
Ntp629
Rp630
(dp631
g470
g471
sg472
F-2.8645002502754857
sg473
F1.0
sg15
I9962
sg474
g475
sbsI20425
g0
(g466
g2
Ntp632
Rp633
(dp634
g470
g471
sg472
F2.146081397076183
sg473
F1.0
sg15
I20425
sg474
g475
sbsI4335
g0
(g466
g2
Ntp635
Rp636
(dp637
g470
g471
sg472
F-1.0960315239792107
sg473
F1.0
sg15
I4335
sg474
g475
sbsI12912
g0
(g466
g2
Ntp638
Rp639
(dp640
g470
g471
sg472
F0.3542109206527068
sg473
F1.0
sg15
I12912
sg474
g475
sbsI7537
g0
(g466
g2
Ntp641
Rp642
(dp643
g470
g471
sg472
F1.8728723722526648
sg473
F1.0
sg15
I7537
sg474
g475
sbsI19187
g0
(g466
g2
Ntp644
Rp645
(dp646
g470
g471
sg472
F2.232041192835525
sg473
F1.0
sg15
I19187
sg474
g475
sbsI8835
g0
(g466
g2
Ntp647
Rp648
(dp649
g470
g471
sg472
F2.396373721145787
sg473
F1.0
sg15
I8835
sg474
g475
sbsI9079
g0
(g466
g2
Ntp650
Rp651
(dp652
g470
g471
sg472
F-0.7156629431349482
sg473
F1.0
sg15
I9079
sg474
g475
sbsI4991
g0
(g466
g2
Ntp653
Rp654
(dp655
g470
g471
sg472
F-1.0943505839185428
sg473
F1.0
sg15
I4991
sg474
g475
sbsI17151
g0
(g466
g2
Ntp656
Rp657
(dp658
g470
g471
sg472
F-2.2988712758848195
sg473
F1.0
sg15
I17151
sg474
g475
sbssg15
I66597
sS'fitness'
p659
F-100.21423771813178
sb.