ccopy_reg
_reconstructor
p0
(cneat.genome
DefaultGenome
p1
c__builtin__
object
p2
Ntp3
Rp4
(dp5
S'connections'
p6
(dp7
(I-2
I3
tp8
g0
(cneat.genes
DefaultConnectionGene
p9
g2
Ntp10
Rp11
(dp12
S'enabled'
p13
I01
sS'weight'
p14
F1.4107803800546967
sS'key'
p15
g8
sbs(I-2
I0
tp16
g0
(g9
g2
Ntp17
Rp18
(dp19
g13
I01
sg14
F2.5583567690719833
sg15
g16
sbs(I-1
I3
tp20
g0
(g9
g2
Ntp21
Rp22
(dp23
g13
I01
sg14
F-0.17387254693287968
sg15
g20
sbs(I-2
I2
tp24
g0
(g9
g2
Ntp25
Rp26
(dp27
g13
I01
sg14
F1.7335318232767905
sg15
g24
sbs(I-3
I0
tp28
g0
(g9
g2
Ntp29
Rp30
(dp31
g13
I01
sg14
F1.682634561379487
sg15
g28
sbs(I-3
I1
tp32
g0
(g9
g2
Ntp33
Rp34
(dp35
g13
I01
sg14
F1.0703766080192796
sg15
g32
sbs(I-3
I2
tp36
g0
(g9
g2
Ntp37
Rp38
(dp39
g13
I01
sg14
F-1.003893706677901
sg15
g36
sbs(I-1
I0
tp40
g0
(g9
g2
Ntp41
Rp42
(dp43
g13
I01
sg14
F0.3422842103618682
sg15
g40
sbssS'nodes'
p44
(dp45
I0
g0
(cneat.genes
DefaultNodeGene
p46
g2
Ntp47
Rp48
(dp49
S'activation'
p50
S'sigmoid'
p51
sS'bias'
p52
F-0.16732670060962027
sS'response'
p53
F1.0
sg15
I0
sS'aggregation'
p54
S'sum'
p55
sbsI1
g0
(g46
g2
Ntp56
Rp57
(dp58
g50
g51
sg52
F-0.438546046651942
sg53
F1.0
sg15
I1
sg54
g55
sbsI2
g0
(g46
g2
Ntp59
Rp60
(dp61
g50
g51
sg52
F-1.13938128841641
sg53
F1.0
sg15
I2
sg54
g55
sbsI3
g0
(g46
g2
Ntp62
Rp63
(dp64
g50
g51
sg52
F0.18355722154446352
sg53
F1.0
sg15
I3
sg54
g55
sbssg15
I1
sS'fitness'
p65
F29.9
sb.