ccopy_reg
_reconstructor
p0
(cneat.genome
DefaultGenome
p1
c__builtin__
object
p2
Ntp3
Rp4
(dp5
S'connections'
p6
(dp7
(I7393
I6581
tp8
g0
(cneat.genes
DefaultConnectionGene
p9
g2
Ntp10
Rp11
(dp12
S'enabled'
p13
I01
sS'weight'
p14
F1.2357484423509741
sS'key'
p15
g8
sbs(I-3
I4453
tp16
g0
(g9
g2
Ntp17
Rp18
(dp19
g13
I00
sg14
F0.8470398077708123
sg15
g16
sbs(I7578
I3418
tp20
g0
(g9
g2
Ntp21
Rp22
(dp23
g13
I01
sg14
F2.7897173143943848
sg15
g20
sbs(I3
I8545
tp24
g0
(g9
g2
Ntp25
Rp26
(dp27
g13
I00
sg14
F-1.7130507369449526
sg15
g24
sbs(I8023
I7240
tp28
g0
(g9
g2
Ntp29
Rp30
(dp31
g13
I01
sg14
F0.9008335949176174
sg15
g28
sbs(I-4
I2870
tp32
g0
(g9
g2
Ntp33
Rp34
(dp35
g13
I01
sg14
F-4.685180722759388
sg15
g32
sbs(I6163
I0
tp36
g0
(g9
g2
Ntp37
Rp38
(dp39
g13
I01
sg14
F0.287665771833838
sg15
g36
sbs(I2870
I8873
tp40
g0
(g9
g2
Ntp41
Rp42
(dp43
g13
I01
sg14
F0.4972983148761582
sg15
g40
sbs(I6998
I4082
tp44
g0
(g9
g2
Ntp45
Rp46
(dp47
g13
I00
sg14
F2.115370272250796
sg15
g44
sbs(I4453
I0
tp48
g0
(g9
g2
Ntp49
Rp50
(dp51
g13
I01
sg14
F1.1689939680720056
sg15
g48
sbs(I6998
I7435
tp52
g0
(g9
g2
Ntp53
Rp54
(dp55
g13
I01
sg14
F1.79332284502134
sg15
g52
sbs(I5661
I4082
tp56
g0
(g9
g2
Ntp57
Rp58
(dp59
g13
I01
sg14
F-0.7646778413753897
sg15
g56
sbs(I7435
I4082
tp60
g0
(g9
g2
Ntp61
Rp62
(dp63
g13
I00
sg14
F3.7210071317009374
sg15
g60
sbs(I0
I7240
tp64
g0
(g9
g2
Ntp65
Rp66
(dp67
g13
I01
sg14
F0.4689389863624782
sg15
g64
sbs(I2870
I1
tp68
g0
(g9
g2
Ntp69
Rp70
(dp71
g13
I01
sg14
F-3.0801141743625218
sg15
g68
sbs(I0
I8023
tp72
g0
(g9
g2
Ntp73
Rp74
(dp75
g13
I01
sg14
F-2.8612380135895847
sg15
g72
sbs(I2
I7578
tp76
g0
(g9
g2
Ntp77
Rp78
(dp79
g13
I01
sg14
F0.2011637232625725
sg15
g76
sbs(I1153
I8706
tp80
g0
(g9
g2
Ntp81
Rp82
(dp83
g13
I01
sg14
F-1.0445711707937337
sg15
g80
sbs(I9279
I9222
tp84
g0
(g9
g2
Ntp85
Rp86
(dp87
g13
I01
sg14
F-0.20911596754035755
sg15
g84
sbs(I8706
I6163
tp88
g0
(g9
g2
Ntp89
Rp90
(dp91
g13
I01
sg14
F2.80895240727294
sg15
g88
sbs(I8873
I1
tp92
g0
(g9
g2
Ntp93
Rp94
(dp95
g13
I01
sg14
F1.614262327984843
sg15
g92
sbs(I9338
I7393
tp96
g0
(g9
g2
Ntp97
Rp98
(dp99
g13
I01
sg14
F1.017069728647623
sg15
g96
sbs(I1
I9338
tp100
g0
(g9
g2
Ntp101
Rp102
(dp103
g13
I01
sg14
F-2.0485639838845
sg15
g100
sbs(I0
I7150
tp104
g0
(g9
g2
Ntp105
Rp106
(dp107
g13
I00
sg14
F0.7606645142911631
sg15
g104
sbs(I2118
I1153
tp108
g0
(g9
g2
Ntp109
Rp110
(dp111
g13
I01
sg14
F-1.6690560091044333
sg15
g108
sbs(I7240
I7150
tp112
g0
(g9
g2
Ntp113
Rp114
(dp115
g13
I00
sg14
F1.2864871284293695
sg15
g112
sbs(I-3
I3661
tp116
g0
(g9
g2
Ntp117
Rp118
(dp119
g13
I01
sg14
F-1.2042022683132925
sg15
g116
sbs(I8419
I1328
tp120
g0
(g9
g2
Ntp121
Rp122
(dp123
g13
I01
sg14
F-0.24627994939913472
sg15
g120
sbs(I3418
I1328
tp124
g0
(g9
g2
Ntp125
Rp126
(dp127
g13
I00
sg14
F-8.4074675803919
sg15
g124
sbs(I6614
I1
tp128
g0
(g9
g2
Ntp129
Rp130
(dp131
g13
I00
sg14
F1.1750846511172168
sg15
g128
sbs(I3418
I9382
tp132
g0
(g9
g2
Ntp133
Rp134
(dp135
g13
I01
sg14
F0.28823399603146294
sg15
g132
sbs(I9382
I1328
tp136
g0
(g9
g2
Ntp137
Rp138
(dp139
g13
I01
sg14
F0.856352348774994
sg15
g136
sbs(I1153
I2
tp140
g0
(g9
g2
Ntp141
Rp142
(dp143
g13
I00
sg14
F-0.5875844573344534
sg15
g140
sbs(I6253
I2870
tp144
g0
(g9
g2
Ntp145
Rp146
(dp147
g13
I00
sg14
F-1.6353176642943121
sg15
g144
sbs(I7435
I1328
tp148
g0
(g9
g2
Ntp149
Rp150
(dp151
g13
I01
sg14
F0.15188482111926027
sg15
g148
sbs(I3028
I9428
tp152
g0
(g9
g2
Ntp153
Rp154
(dp155
g13
I01
sg14
F-0.15014990931778416
sg15
g152
sbs(I1153
I6582
tp156
g0
(g9
g2
Ntp157
Rp158
(dp159
g13
I00
sg14
F0.04175836995257143
sg15
g156
sbs(I6279
I1
tp160
g0
(g9
g2
Ntp161
Rp162
(dp163
g13
I00
sg14
F1.3546923656858296
sg15
g160
sbs(I6581
I6998
tp164
g0
(g9
g2
Ntp165
Rp166
(dp167
g13
I01
sg14
F1.80339269394073
sg15
g164
sbs(I1153
I1
tp168
g0
(g9
g2
Ntp169
Rp170
(dp171
g13
I00
sg14
F-0.5038476444720357
sg15
g168
sbs(I8301
I1
tp172
g0
(g9
g2
Ntp173
Rp174
(dp175
g13
I01
sg14
F0.13992127059086365
sg15
g172
sbs(I-3
I6859
tp176
g0
(g9
g2
Ntp177
Rp178
(dp179
g13
I00
sg14
F-1.570010313877674
sg15
g176
sbs(I9506
I6859
tp180
g0
(g9
g2
Ntp181
Rp182
(dp183
g13
I01
sg14
F-1.230914889873298
sg15
g180
sbs(I4453
I8301
tp184
g0
(g9
g2
Ntp185
Rp186
(dp187
g13
I01
sg14
F-0.055618244441479225
sg15
g184
sbs(I3028
I7595
tp188
g0
(g9
g2
Ntp189
Rp190
(dp191
g13
I00
sg14
F-0.9331626483663923
sg15
g188
sbs(I3
I6859
tp192
g0
(g9
g2
Ntp193
Rp194
(dp195
g13
I01
sg14
F-0.4902877798854363
sg15
g192
sbs(I7897
I8557
tp196
g0
(g9
g2
Ntp197
Rp198
(dp199
g13
I01
sg14
F-1.3646613419900757
sg15
g196
sbs(I1153
I6163
tp200
g0
(g9
g2
Ntp201
Rp202
(dp203
g13
I01
sg14
F-2.001616198429921
sg15
g200
sbs(I-3
I9506
tp204
g0
(g9
g2
Ntp205
Rp206
(dp207
g13
I01
sg14
F1.0
sg15
g204
sbs(I9428
I7595
tp208
g0
(g9
g2
Ntp209
Rp210
(dp211
g13
I01
sg14
F0.04584523070772173
sg15
g208
sbs(I2870
I7150
tp212
g0
(g9
g2
Ntp213
Rp214
(dp215
g13
I01
sg14
F1.2294977424844378
sg15
g212
sbs(I4453
I6614
tp216
g0
(g9
g2
Ntp217
Rp218
(dp219
g13
I01
sg14
F-1.2406420955890882
sg15
g216
sbs(I1
I7393
tp220
g0
(g9
g2
Ntp221
Rp222
(dp223
g13
I00
sg14
F1.7736943052838827
sg15
g220
sbs(I-3
I1328
tp224
g0
(g9
g2
Ntp225
Rp226
(dp227
g13
I00
sg14
F4.197838426819966
sg15
g224
sbs(I7393
I9279
tp228
g0
(g9
g2
Ntp229
Rp230
(dp231
g13
I01
sg14
F-0.7654464801398274
sg15
g228
sbs(I1
I6581
tp232
g0
(g9
g2
Ntp233
Rp234
(dp235
g13
I01
sg14
F-3.584055404860875
sg15
g232
sbs(I4453
I2903
tp236
g0
(g9
g2
Ntp237
Rp238
(dp239
g13
I01
sg14
F-1.408459705557016
sg15
g236
sbs(I2870
I2903
tp240
g0
(g9
g2
Ntp241
Rp242
(dp243
g13
I01
sg14
F-1.301505735482483
sg15
g240
sbs(I8942
I4453
tp244
g0
(g9
g2
Ntp245
Rp246
(dp247
g13
I00
sg14
F1.2600111965564706
sg15
g244
sbs(I1153
I4453
tp248
g0
(g9
g2
Ntp249
Rp250
(dp251
g13
I00
sg14
F-0.14537738976815157
sg15
g248
sbs(I8545
I3661
tp252
g0
(g9
g2
Ntp253
Rp254
(dp255
g13
I01
sg14
F-1.4361204011951947
sg15
g252
sbs(I7595
I4453
tp256
g0
(g9
g2
Ntp257
Rp258
(dp259
g13
I01
sg14
F4.04316686276546
sg15
g256
sbs(I8557
I7578
tp260
g0
(g9
g2
Ntp261
Rp262
(dp263
g13
I01
sg14
F1.1185986985142395
sg15
g260
sbs(I9222
I6581
tp264
g0
(g9
g2
Ntp265
Rp266
(dp267
g13
I01
sg14
F0.17850738686427373
sg15
g264
sbs(I3028
I0
tp268
g0
(g9
g2
Ntp269
Rp270
(dp271
g13
I01
sg14
F0.03643850784267333
sg15
g268
sbs(I7897
I7578
tp272
g0
(g9
g2
Ntp273
Rp274
(dp275
g13
I00
sg14
F2.3924215435108227
sg15
g272
sbs(I2903
I7150
tp276
g0
(g9
g2
Ntp277
Rp278
(dp279
g13
I01
sg14
F-0.17370427778822928
sg15
g276
sbs(I7393
I9222
tp280
g0
(g9
g2
Ntp281
Rp282
(dp283
g13
I00
sg14
F1.20774117106088
sg15
g280
sbs(I7513
I7393
tp284
g0
(g9
g2
Ntp285
Rp286
(dp287
g13
I00
sg14
F-1.4018700799584936
sg15
g284
sbs(I4453
I1
tp288
g0
(g9
g2
Ntp289
Rp290
(dp291
g13
I00
sg14
F-0.11958886519485545
sg15
g288
sbs(I3
I9093
tp292
g0
(g9
g2
Ntp293
Rp294
(dp295
g13
I01
sg14
F-0.7569258398085328
sg15
g292
sbs(I9093
I3661
tp296
g0
(g9
g2
Ntp297
Rp298
(dp299
g13
I01
sg14
F-0.8717980284489294
sg15
g296
sbssS'nodes'
p300
(dp301
I0
g0
(cneat.genes
DefaultNodeGene
p302
g2
Ntp303
Rp304
(dp305
S'activation'
p306
S'sigmoid'
p307
sS'bias'
p308
F0.0019875084398457837
sS'response'
p309
F1.0
sg15
I0
sS'aggregation'
p310
S'sum'
p311
sbsI1
g0
(g302
g2
Ntp312
Rp313
(dp314
g306
g307
sg308
F-0.9283051930183834
sg309
F1.0
sg15
I1
sg310
g311
sbsI2
g0
(g302
g2
Ntp315
Rp316
(dp317
g306
g307
sg308
F-1.274783181121652
sg309
F1.0
sg15
I2
sg310
g311
sbsI3
g0
(g302
g2
Ntp318
Rp319
(dp320
g306
g307
sg308
F-1.6706406954480464
sg309
F1.0
sg15
I3
sg310
g311
sbsI9093
g0
(g302
g2
Ntp321
Rp322
(dp323
g306
g307
sg308
F0.19264747247361352
sg309
F1.0
sg15
I9093
sg310
g311
sbsI9222
g0
(g302
g2
Ntp324
Rp325
(dp326
g306
g307
sg308
F-0.5971935507930906
sg309
F1.0
sg15
I9222
sg310
g311
sbsI1153
g0
(g302
g2
Ntp327
Rp328
(dp329
g306
g307
sg308
F-0.31298613463051556
sg309
F1.0
sg15
I1153
sg310
g311
sbsI7435
g0
(g302
g2
Ntp330
Rp331
(dp332
g306
g307
sg308
F-2.5792402825932452
sg309
F1.0
sg15
I7435
sg310
g311
sbsI8706
g0
(g302
g2
Ntp333
Rp334
(dp335
g306
g307
sg308
F1.290864691706144
sg309
F1.0
sg15
I8706
sg310
g311
sbsI8301
g0
(g302
g2
Ntp336
Rp337
(dp338
g306
g307
sg308
F1.1020757579822564
sg309
F1.0
sg15
I8301
sg310
g311
sbsI2903
g0
(g302
g2
Ntp339
Rp340
(dp341
g306
g307
sg308
F3.8755023339222685
sg309
F1.0
sg15
I2903
sg310
g311
sbsI6163
g0
(g302
g2
Ntp342
Rp343
(dp344
g306
g307
sg308
F-1.35459919728449
sg309
F1.0
sg15
I6163
sg310
g311
sbsI8942
g0
(g302
g2
Ntp345
Rp346
(dp347
g306
g307
sg308
F-0.5132717349180211
sg309
F1.0
sg15
I8942
sg310
g311
sbsI6422
g0
(g302
g2
Ntp348
Rp349
(dp350
g306
g307
sg308
F0.6939151432642345
sg309
F1.0
sg15
I6422
sg310
g311
sbsI7513
g0
(g302
g2
Ntp351
Rp352
(dp353
g306
g307
sg308
F-0.9282852582807666
sg309
F1.0
sg15
I7513
sg310
g311
sbsI7578
g0
(g302
g2
Ntp354
Rp355
(dp356
g306
g307
sg308
F0.12297395347293638
sg309
F1.0
sg15
I7578
sg310
g311
sbsI5661
g0
(g302
g2
Ntp357
Rp358
(dp359
g306
g307
sg308
F-2.105980638492312
sg309
F1.0
sg15
I5661
sg310
g311
sbsI9506
g0
(g302
g2
Ntp360
Rp361
(dp362
g306
g307
sg308
F-0.31987371413269294
sg309
F1.0
sg15
I9506
sg310
g311
sbsI9382
g0
(g302
g2
Ntp363
Rp364
(dp365
g306
g307
sg308
F0.5303765427655579
sg309
F1.0
sg15
I9382
sg310
g311
sbsI8873
g0
(g302
g2
Ntp366
Rp367
(dp368
g306
g307
sg308
F-0.4348629514446141
sg309
F1.0
sg15
I8873
sg310
g311
sbsI6279
g0
(g302
g2
Ntp369
Rp370
(dp371
g306
g307
sg308
F0.4393380304437524
sg309
F1.0
sg15
I6279
sg310
g311
sbsI1328
g0
(g302
g2
Ntp372
Rp373
(dp374
g306
g307
sg308
F0.9013947424509379
sg309
F1.0
sg15
I1328
sg310
g311
sbsI6581
g0
(g302
g2
Ntp375
Rp376
(dp377
g306
g307
sg308
F-1.5510458330652646
sg309
F1.0
sg15
I6581
sg310
g311
sbsI6582
g0
(g302
g2
Ntp378
Rp379
(dp380
g306
g307
sg308
F2.1382460709968467
sg309
F1.0
sg15
I6582
sg310
g311
sbsI9279
g0
(g302
g2
Ntp381
Rp382
(dp383
g306
g307
sg308
F0.3173785758269767
sg309
F1.0
sg15
I9279
sg310
g311
sbsI2870
g0
(g302
g2
Ntp384
Rp385
(dp386
g306
g307
sg308
F-0.6981509650650687
sg309
F1.0
sg15
I2870
sg310
g311
sbsI2118
g0
(g302
g2
Ntp387
Rp388
(dp389
g306
g307
sg308
F-0.05876055620799092
sg309
F1.0
sg15
I2118
sg310
g311
sbsI8545
g0
(g302
g2
Ntp390
Rp391
(dp392
g306
g307
sg308
F-0.40419919255417386
sg309
F1.0
sg15
I8545
sg310
g311
sbsI7240
g0
(g302
g2
Ntp393
Rp394
(dp395
g306
g307
sg308
F-0.43076974888687775
sg309
F1.0
sg15
I7240
sg310
g311
sbsI6859
g0
(g302
g2
Ntp396
Rp397
(dp398
g306
g307
sg308
F-1.556086145912557
sg309
F1.0
sg15
I6859
sg310
g311
sbsI3661
g0
(g302
g2
Ntp399
Rp400
(dp401
g306
g307
sg308
F-0.6909743573488385
sg309
F1.0
sg15
I3661
sg310
g311
sbsI6253
g0
(g302
g2
Ntp402
Rp403
(dp404
g306
g307
sg308
F-0.2945216193412672
sg309
F1.0
sg15
I6253
sg310
g311
sbsI3028
g0
(g302
g2
Ntp405
Rp406
(dp407
g306
g307
sg308
F0.5548698883242118
sg309
F1.0
sg15
I3028
sg310
g311
sbsI6998
g0
(g302
g2
Ntp408
Rp409
(dp410
g306
g307
sg308
F0.09266774105207637
sg309
F1.0
sg15
I6998
sg310
g311
sbsI8023
g0
(g302
g2
Ntp411
Rp412
(dp413
g306
g307
sg308
F0.4044898227097965
sg309
F1.0
sg15
I8023
sg310
g311
sbsI7897
g0
(g302
g2
Ntp414
Rp415
(dp416
g306
g307
sg308
F0.8283678183579856
sg309
F1.0
sg15
I7897
sg310
g311
sbsI3418
g0
(g302
g2
Ntp417
Rp418
(dp419
g306
g307
sg308
F0.4572510811400835
sg309
F1.0
sg15
I3418
sg310
g311
sbsI3194
g0
(g302
g2
Ntp420
Rp421
(dp422
g306
g307
sg308
F0.08640198058745918
sg309
F1.0
sg15
I3194
sg310
g311
sbsI7393
g0
(g302
g2
Ntp423
Rp424
(dp425
g306
g307
sg308
F1.8173571542311424
sg309
F1.0
sg15
I7393
sg310
g311
sbsI8419
g0
(g302
g2
Ntp426
Rp427
(dp428
g306
g307
sg308
F-2.018951474088022
sg309
F1.0
sg15
I8419
sg310
g311
sbsI4453
g0
(g302
g2
Ntp429
Rp430
(dp431
g306
g307
sg308
F-1.7163538552452047
sg309
F1.0
sg15
I4453
sg310
g311
sbsI6614
g0
(g302
g2
Ntp432
Rp433
(dp434
g306
g307
sg308
F-0.27980087355483907
sg309
F1.0
sg15
I6614
sg310
g311
sbsI8557
g0
(g302
g2
Ntp435
Rp436
(dp437
g306
g307
sg308
F-0.8163251786306072
sg309
F1.0
sg15
I8557
sg310
g311
sbsI7150
g0
(g302
g2
Ntp438
Rp439
(dp440
g306
g307
sg308
F0.32601280139672817
sg309
F1.0
sg15
I7150
sg310
g311
sbsI4082
g0
(g302
g2
Ntp441
Rp442
(dp443
g306
g307
sg308
F-0.32000745630062577
sg309
F1.0
sg15
I4082
sg310
g311
sbsI6005
g0
(g302
g2
Ntp444
Rp445
(dp446
g306
g307
sg308
F1.5538045789121733
sg309
F1.0
sg15
I6005
sg310
g311
sbsI9428
g0
(g302
g2
Ntp447
Rp448
(dp449
g306
g307
sg308
F1.6569955837965362
sg309
F1.0
sg15
I9428
sg310
g311
sbsI9338
g0
(g302
g2
Ntp450
Rp451
(dp452
g306
g307
sg308
F0.40482852333242425
sg309
F1.0
sg15
I9338
sg310
g311
sbsI7595
g0
(g302
g2
Ntp453
Rp454
(dp455
g306
g307
sg308
F0.12132197688190673
sg309
F1.0
sg15
I7595
sg310
g311
sbssg15
I28751
sS'fitness'
p456
F99.96456018607905
sb.