ccopy_reg
_reconstructor
p0
(cneat.genome
DefaultGenome
p1
c__builtin__
object
p2
Ntp3
Rp4
(dp5
S'connections'
p6
(dp7
(I7393
I6581
tp8
g0
(cneat.genes
DefaultConnectionGene
p9
g2
Ntp10
Rp11
(dp12
S'enabled'
p13
I01
sS'weight'
p14
F1.6859811705685976
sS'key'
p15
g8
sbs(I3
I3661
tp16
g0
(g9
g2
Ntp17
Rp18
(dp19
g13
I00
sg14
F-1.2544414550379848
sg15
g16
sbs(I3
I8545
tp20
g0
(g9
g2
Ntp21
Rp22
(dp23
g13
I01
sg14
F-1.2636315213072211
sg15
g20
sbs(I8023
I7240
tp24
g0
(g9
g2
Ntp25
Rp26
(dp27
g13
I01
sg14
F-0.39317204931963246
sg15
g24
sbs(I-4
I2870
tp28
g0
(g9
g2
Ntp29
Rp30
(dp31
g13
I01
sg14
F1.6238213637712986
sg15
g28
sbs(I1153
I8706
tp32
g0
(g9
g2
Ntp33
Rp34
(dp35
g13
I01
sg14
F-0.5366868441390362
sg15
g32
sbs(I6163
I0
tp36
g0
(g9
g2
Ntp37
Rp38
(dp39
g13
I00
sg14
F-0.997780385245977
sg15
g36
sbs(I2870
I8873
tp40
g0
(g9
g2
Ntp41
Rp42
(dp43
g13
I01
sg14
F-1.1437306180648839
sg15
g40
sbs(I9222
I6581
tp44
g0
(g9
g2
Ntp45
Rp46
(dp47
g13
I01
sg14
F-1.3234870045312837
sg15
g44
sbs(I4453
I0
tp48
g0
(g9
g2
Ntp49
Rp50
(dp51
g13
I01
sg14
F1.5718658312898166
sg15
g48
sbs(I1153
I6582
tp52
g0
(g9
g2
Ntp53
Rp54
(dp55
g13
I00
sg14
F-1.5630045674865405
sg15
g52
sbs(I7435
I4082
tp56
g0
(g9
g2
Ntp57
Rp58
(dp59
g13
I00
sg14
F1.8317749649652721
sg15
g56
sbs(I0
I7240
tp60
g0
(g9
g2
Ntp61
Rp62
(dp63
g13
I01
sg14
F0.8408266567978392
sg15
g60
sbs(I2870
I1
tp64
g0
(g9
g2
Ntp65
Rp66
(dp67
g13
I01
sg14
F2.4927272772098057
sg15
g64
sbs(I0
I8023
tp68
g0
(g9
g2
Ntp69
Rp70
(dp71
g13
I01
sg14
F0.09350389061204045
sg15
g68
sbs(I2
I7578
tp72
g0
(g9
g2
Ntp73
Rp74
(dp75
g13
I01
sg14
F-1.2196017621058253
sg15
g72
sbs(I7435
I1328
tp76
g0
(g9
g2
Ntp77
Rp78
(dp79
g13
I01
sg14
F4.729375820287006
sg15
g76
sbs(I9279
I9222
tp80
g0
(g9
g2
Ntp81
Rp82
(dp83
g13
I01
sg14
F2.436188806636395
sg15
g80
sbs(I8706
I6163
tp84
g0
(g9
g2
Ntp85
Rp86
(dp87
g13
I01
sg14
F1.5726184513554762
sg15
g84
sbs(I8873
I1
tp88
g0
(g9
g2
Ntp89
Rp90
(dp91
g13
I01
sg14
F-0.27151670567270103
sg15
g88
sbs(I0
I7150
tp92
g0
(g9
g2
Ntp93
Rp94
(dp95
g13
I00
sg14
F-0.16968163579067547
sg15
g92
sbs(I2118
I1153
tp96
g0
(g9
g2
Ntp97
Rp98
(dp99
g13
I01
sg14
F-1.1492174609842418
sg15
g96
sbs(I7578
I3418
tp100
g0
(g9
g2
Ntp101
Rp102
(dp103
g13
I01
sg14
F0.3489908284101206
sg15
g100
sbs(I2903
I7150
tp104
g0
(g9
g2
Ntp105
Rp106
(dp107
g13
I01
sg14
F-0.8585447140596572
sg15
g104
sbs(I-3
I3661
tp108
g0
(g9
g2
Ntp109
Rp110
(dp111
g13
I00
sg14
F-0.7499765846919441
sg15
g108
sbs(I8419
I1328
tp112
g0
(g9
g2
Ntp113
Rp114
(dp115
g13
I01
sg14
F0.3381187726093582
sg15
g112
sbs(I3418
I1328
tp116
g0
(g9
g2
Ntp117
Rp118
(dp119
g13
I01
sg14
F-8.009056958619631
sg15
g116
sbs(I6614
I1
tp120
g0
(g9
g2
Ntp121
Rp122
(dp123
g13
I00
sg14
F0.4940365771862417
sg15
g120
sbs(I4453
I2903
tp124
g0
(g9
g2
Ntp125
Rp126
(dp127
g13
I01
sg14
F-0.15291700535724162
sg15
g124
sbs(I-3
I4453
tp128
g0
(g9
g2
Ntp129
Rp130
(dp131
g13
I01
sg14
F0.20882036194299575
sg15
g128
sbs(I1153
I2
tp132
g0
(g9
g2
Ntp133
Rp134
(dp135
g13
I00
sg14
F0.3719815414339527
sg15
g132
sbs(I6253
I2870
tp136
g0
(g9
g2
Ntp137
Rp138
(dp139
g13
I00
sg14
F0.08908109058655336
sg15
g136
sbs(I7240
I7150
tp140
g0
(g9
g2
Ntp141
Rp142
(dp143
g13
I00
sg14
F2.7347955299192406
sg15
g140
sbs(I4453
I8228
tp144
g0
(g9
g2
Ntp145
Rp146
(dp147
g13
I01
sg14
F-2.481266438634237
sg15
g144
sbs(I5661
I4082
tp148
g0
(g9
g2
Ntp149
Rp150
(dp151
g13
I01
sg14
F1.8765719562384167
sg15
g148
sbs(I6279
I1
tp152
g0
(g9
g2
Ntp153
Rp154
(dp155
g13
I00
sg14
F0.6726299539029579
sg15
g152
sbs(I1153
I1
tp156
g0
(g9
g2
Ntp157
Rp158
(dp159
g13
I00
sg14
F0.63110510490615
sg15
g156
sbs(I3
I6859
tp160
g0
(g9
g2
Ntp161
Rp162
(dp163
g13
I01
sg14
F1.5144325595074992
sg15
g160
sbs(I3028
I7595
tp164
g0
(g9
g2
Ntp165
Rp166
(dp167
g13
I01
sg14
F0.6958111237140443
sg15
g164
sbs(I9093
I3661
tp168
g0
(g9
g2
Ntp169
Rp170
(dp171
g13
I01
sg14
F0.19125080424568303
sg15
g168
sbs(I7897
I8557
tp172
g0
(g9
g2
Ntp173
Rp174
(dp175
g13
I01
sg14
F-0.15661039451283454
sg15
g172
sbs(I1153
I6163
tp176
g0
(g9
g2
Ntp177
Rp178
(dp179
g13
I01
sg14
F-2.8178136955898268
sg15
g176
sbs(I2870
I7150
tp180
g0
(g9
g2
Ntp181
Rp182
(dp183
g13
I00
sg14
F-0.8553749606828079
sg15
g180
sbs(I4453
I6614
tp184
g0
(g9
g2
Ntp185
Rp186
(dp187
g13
I01
sg14
F0.45247405020113346
sg15
g184
sbs(I1
I7393
tp188
g0
(g9
g2
Ntp189
Rp190
(dp191
g13
I01
sg14
F-0.139420835475915
sg15
g188
sbs(I-3
I1328
tp192
g0
(g9
g2
Ntp193
Rp194
(dp195
g13
I00
sg14
F2.081301656942445
sg15
g192
sbs(I7393
I9279
tp196
g0
(g9
g2
Ntp197
Rp198
(dp199
g13
I01
sg14
F0.13219995729159226
sg15
g196
sbs(I1
I6581
tp200
g0
(g9
g2
Ntp201
Rp202
(dp203
g13
I01
sg14
F-2.003198571450769
sg15
g200
sbs(I3028
I0
tp204
g0
(g9
g2
Ntp205
Rp206
(dp207
g13
I01
sg14
F0.743477989566858
sg15
g204
sbs(I2870
I2903
tp208
g0
(g9
g2
Ntp209
Rp210
(dp211
g13
I01
sg14
F2.7488584457918273
sg15
g208
sbs(I8942
I4453
tp212
g0
(g9
g2
Ntp213
Rp214
(dp215
g13
I00
sg14
F-0.35957744432101224
sg15
g212
sbs(I1153
I4453
tp216
g0
(g9
g2
Ntp217
Rp218
(dp219
g13
I00
sg14
F1.4405793145652914
sg15
g216
sbs(I8545
I3661
tp220
g0
(g9
g2
Ntp221
Rp222
(dp223
g13
I01
sg14
F-0.2543619036939192
sg15
g220
sbs(I7595
I4453
tp224
g0
(g9
g2
Ntp225
Rp226
(dp227
g13
I01
sg14
F0.7347415555350043
sg15
g224
sbs(I8557
I7578
tp228
g0
(g9
g2
Ntp229
Rp230
(dp231
g13
I01
sg14
F0.33638027664473874
sg15
g228
sbs(I4453
I8301
tp232
g0
(g9
g2
Ntp233
Rp234
(dp235
g13
I01
sg14
F0.13857293130882525
sg15
g232
sbs(I-3
I6859
tp236
g0
(g9
g2
Ntp237
Rp238
(dp239
g13
I01
sg14
F0.7181882247304245
sg15
g236
sbs(I7897
I7578
tp240
g0
(g9
g2
Ntp241
Rp242
(dp243
g13
I00
sg14
F0.34463882604981533
sg15
g240
sbs(I8301
I1
tp244
g0
(g9
g2
Ntp245
Rp246
(dp247
g13
I01
sg14
F0.4626307047058722
sg15
g244
sbs(I7393
I9222
tp248
g0
(g9
g2
Ntp249
Rp250
(dp251
g13
I00
sg14
F2.9222310994247507
sg15
g248
sbs(I8228
I6614
tp252
g0
(g9
g2
Ntp253
Rp254
(dp255
g13
I00
sg14
F-0.6814404997900098
sg15
g252
sbs(I4453
I1
tp256
g0
(g9
g2
Ntp257
Rp258
(dp259
g13
I00
sg14
F0.3918069657335181
sg15
g256
sbs(I3
I9093
tp260
g0
(g9
g2
Ntp261
Rp262
(dp263
g13
I01
sg14
F-0.5334935593555321
sg15
g260
sbs(I7513
I7393
tp264
g0
(g9
g2
Ntp265
Rp266
(dp267
g13
I00
sg14
F3.3976699643099506
sg15
g264
sbssS'nodes'
p268
(dp269
I0
g0
(cneat.genes
DefaultNodeGene
p270
g2
Ntp271
Rp272
(dp273
S'activation'
p274
S'sigmoid'
p275
sS'bias'
p276
F-0.5927189081898424
sS'response'
p277
F1.0
sg15
I0
sS'aggregation'
p278
S'sum'
p279
sbsI1
g0
(g270
g2
Ntp280
Rp281
(dp282
g274
g275
sg276
F-2.090335582659062
sg277
F1.0
sg15
I1
sg278
g279
sbsI2
g0
(g270
g2
Ntp283
Rp284
(dp285
g274
g275
sg276
F0.05594590718748316
sg277
F1.0
sg15
I2
sg278
g279
sbsI3
g0
(g270
g2
Ntp286
Rp287
(dp288
g274
g275
sg276
F-0.10658050011030454
sg277
F1.0
sg15
I3
sg278
g279
sbsI9093
g0
(g270
g2
Ntp289
Rp290
(dp291
g274
g275
sg276
F-4.4780513608097925
sg277
F1.0
sg15
I9093
sg278
g279
sbsI9222
g0
(g270
g2
Ntp292
Rp293
(dp294
g274
g275
sg276
F-0.5352640302520745
sg277
F1.0
sg15
I9222
sg278
g279
sbsI1153
g0
(g270
g2
Ntp295
Rp296
(dp297
g274
g275
sg276
F2.3296106235077225
sg277
F1.0
sg15
I1153
sg278
g279
sbsI7435
g0
(g270
g2
Ntp298
Rp299
(dp300
g274
g275
sg276
F0.3576813359306193
sg277
F1.0
sg15
I7435
sg278
g279
sbsI8706
g0
(g270
g2
Ntp301
Rp302
(dp303
g274
g275
sg276
F0.3701114363981124
sg277
F1.0
sg15
I8706
sg278
g279
sbsI6253
g0
(g270
g2
Ntp304
Rp305
(dp306
g274
g275
sg276
F-0.8947301039894089
sg277
F1.0
sg15
I6253
sg278
g279
sbsI6163
g0
(g270
g2
Ntp307
Rp308
(dp309
g274
g275
sg276
F-3.0278050654687667
sg277
F1.0
sg15
I6163
sg278
g279
sbsI7150
g0
(g270
g2
Ntp310
Rp311
(dp312
g274
g275
sg276
F0.9238049827503895
sg277
F1.0
sg15
I7150
sg278
g279
sbsI6422
g0
(g270
g2
Ntp313
Rp314
(dp315
g274
g275
sg276
F1.0162122388676906
sg277
F1.0
sg15
I6422
sg278
g279
sbsI7897
g0
(g270
g2
Ntp316
Rp317
(dp318
g274
g275
sg276
F1.8800070508123559
sg277
F1.0
sg15
I7897
sg278
g279
sbsI7578
g0
(g270
g2
Ntp319
Rp320
(dp321
g274
g275
sg276
F-0.29093473691294147
sg277
F1.0
sg15
I7578
sg278
g279
sbsI5661
g0
(g270
g2
Ntp322
Rp323
(dp324
g274
g275
sg276
F-1.4426051293653968
sg277
F1.0
sg15
I5661
sg278
g279
sbsI8228
g0
(g270
g2
Ntp325
Rp326
(dp327
g274
g275
sg276
F0.5628424729447321
sg277
F1.0
sg15
I8228
sg278
g279
sbsI8873
g0
(g270
g2
Ntp328
Rp329
(dp330
g274
g275
sg276
F0.4003447215228244
sg277
F1.0
sg15
I8873
sg278
g279
sbsI6279
g0
(g270
g2
Ntp331
Rp332
(dp333
g274
g275
sg276
F-1.80296919379347
sg277
F1.0
sg15
I6279
sg278
g279
sbsI1328
g0
(g270
g2
Ntp334
Rp335
(dp336
g274
g275
sg276
F0.8772429481700091
sg277
F1.0
sg15
I1328
sg278
g279
sbsI8023
g0
(g270
g2
Ntp337
Rp338
(dp339
g274
g275
sg276
F0.5275620791343866
sg277
F1.0
sg15
I8023
sg278
g279
sbsI6581
g0
(g270
g2
Ntp340
Rp341
(dp342
g274
g275
sg276
F0.7498843313092116
sg277
F1.0
sg15
I6581
sg278
g279
sbsI6582
g0
(g270
g2
Ntp343
Rp344
(dp345
g274
g275
sg276
F1.3491607091647564
sg277
F1.0
sg15
I6582
sg278
g279
sbsI8557
g0
(g270
g2
Ntp346
Rp347
(dp348
g274
g275
sg276
F0.5400210983139968
sg277
F1.0
sg15
I8557
sg278
g279
sbsI9279
g0
(g270
g2
Ntp349
Rp350
(dp351
g274
g275
sg276
F-1.201424592782199
sg277
F1.0
sg15
I9279
sg278
g279
sbsI2870
g0
(g270
g2
Ntp352
Rp353
(dp354
g274
g275
sg276
F-3.050883203078189
sg277
F1.0
sg15
I2870
sg278
g279
sbsI2118
g0
(g270
g2
Ntp355
Rp356
(dp357
g274
g275
sg276
F-0.5654302152633014
sg277
F1.0
sg15
I2118
sg278
g279
sbsI7393
g0
(g270
g2
Ntp358
Rp359
(dp360
g274
g275
sg276
F1.637790078073725
sg277
F1.0
sg15
I7393
sg278
g279
sbsI7240
g0
(g270
g2
Ntp361
Rp362
(dp363
g274
g275
sg276
F3.268569033473168
sg277
F1.0
sg15
I7240
sg278
g279
sbsI6859
g0
(g270
g2
Ntp364
Rp365
(dp366
g274
g275
sg276
F-0.6771509287956536
sg277
F1.0
sg15
I6859
sg278
g279
sbsI3661
g0
(g270
g2
Ntp367
Rp368
(dp369
g274
g275
sg276
F3.362964521222854
sg277
F1.0
sg15
I3661
sg278
g279
sbsI3028
g0
(g270
g2
Ntp370
Rp371
(dp372
g274
g275
sg276
F0.5179839103672144
sg277
F1.0
sg15
I3028
sg278
g279
sbsI2903
g0
(g270
g2
Ntp373
Rp374
(dp375
g274
g275
sg276
F-1.2002953168035129
sg277
F1.0
sg15
I2903
sg278
g279
sbsI7513
g0
(g270
g2
Ntp376
Rp377
(dp378
g274
g275
sg276
F0.5451656153182102
sg277
F1.0
sg15
I7513
sg278
g279
sbsI3418
g0
(g270
g2
Ntp379
Rp380
(dp381
g274
g275
sg276
F1.675936174273805
sg277
F1.0
sg15
I3418
sg278
g279
sbsI8545
g0
(g270
g2
Ntp382
Rp383
(dp384
g274
g275
sg276
F-1.471262008311307
sg277
F1.0
sg15
I8545
sg278
g279
sbsI8419
g0
(g270
g2
Ntp385
Rp386
(dp387
g274
g275
sg276
F0.10390170238778487
sg277
F1.0
sg15
I8419
sg278
g279
sbsI4453
g0
(g270
g2
Ntp388
Rp389
(dp390
g274
g275
sg276
F1.1563453371585215
sg277
F1.0
sg15
I4453
sg278
g279
sbsI6614
g0
(g270
g2
Ntp391
Rp392
(dp393
g274
g275
sg276
F0.04050957168663066
sg277
F1.0
sg15
I6614
sg278
g279
sbsI8301
g0
(g270
g2
Ntp394
Rp395
(dp396
g274
g275
sg276
F0.8876502440402938
sg277
F1.0
sg15
I8301
sg278
g279
sbsI8942
g0
(g270
g2
Ntp397
Rp398
(dp399
g274
g275
sg276
F-2.1170884447578966
sg277
F1.0
sg15
I8942
sg278
g279
sbsI4082
g0
(g270
g2
Ntp400
Rp401
(dp402
g274
g275
sg276
F-0.62312741946093
sg277
F1.0
sg15
I4082
sg278
g279
sbsI6005
g0
(g270
g2
Ntp403
Rp404
(dp405
g274
g275
sg276
F0.9964890266690061
sg277
F1.0
sg15
I6005
sg278
g279
sbsI3194
g0
(g270
g2
Ntp406
Rp407
(dp408
g274
g275
sg276
F0.9352113859847881
sg277
F1.0
sg15
I3194
sg278
g279
sbsI7595
g0
(g270
g2
Ntp409
Rp410
(dp411
g274
g275
sg276
F2.673180192344796
sg277
F1.0
sg15
I7595
sg278
g279
sbssg15
I28220
sS'fitness'
p412
F99.97175330831173
sb.