ccopy_reg
_reconstructor
p0
(cneat.genome
DefaultGenome
p1
c__builtin__
object
p2
Ntp3
Rp4
(dp5
S'connections'
p6
(dp7
(I3378
I3
tp8
g0
(cneat.genes
DefaultConnectionGene
p9
g2
Ntp10
Rp11
(dp12
S'enabled'
p13
I00
sS'weight'
p14
F-1.338241689343878
sS'key'
p15
g8
sbs(I3125
I8470
tp16
g0
(g9
g2
Ntp17
Rp18
(dp19
g13
I01
sg14
F0.18199677498365008
sg15
g16
sbs(I3778
I8264
tp20
g0
(g9
g2
Ntp21
Rp22
(dp23
g13
I01
sg14
F-0.35551019984648535
sg15
g20
sbs(I5280
I3378
tp24
g0
(g9
g2
Ntp25
Rp26
(dp27
g13
I01
sg14
F1.8863059822107129
sg15
g24
sbs(I3665
I3125
tp28
g0
(g9
g2
Ntp29
Rp30
(dp31
g13
I00
sg14
F-0.7297308517800933
sg15
g28
sbs(I3778
I9164
tp32
g0
(g9
g2
Ntp33
Rp34
(dp35
g13
I01
sg14
F1.9574532597913448
sg15
g32
sbs(I-4
I7323
tp36
g0
(g9
g2
Ntp37
Rp38
(dp39
g13
I00
sg14
F-0.27228314704322576
sg15
g36
sbs(I3665
I6126
tp40
g0
(g9
g2
Ntp41
Rp42
(dp43
g13
I00
sg14
F0.26005505644643
sg15
g40
sbs(I4833
I6401
tp44
g0
(g9
g2
Ntp45
Rp46
(dp47
g13
I00
sg14
F-0.6121093519939791
sg15
g44
sbs(I-3
I4976
tp48
g0
(g9
g2
Ntp49
Rp50
(dp51
g13
I00
sg14
F0.5925058652097357
sg15
g48
sbs(I-2
I6529
tp52
g0
(g9
g2
Ntp53
Rp54
(dp55
g13
I01
sg14
F0.22086560047988987
sg15
g52
sbs(I-3
I3378
tp56
g0
(g9
g2
Ntp57
Rp58
(dp59
g13
I00
sg14
F-0.44601348426467696
sg15
g56
sbs(I3125
I9365
tp60
g0
(g9
g2
Ntp61
Rp62
(dp63
g13
I01
sg14
F1.6750491735000885
sg15
g60
sbs(I3778
I6883
tp64
g0
(g9
g2
Ntp65
Rp66
(dp67
g13
I00
sg14
F-1.823042825610634
sg15
g64
sbs(I9365
I1541
tp68
g0
(g9
g2
Ntp69
Rp70
(dp71
g13
I01
sg14
F0.2304116890236897
sg15
g68
sbs(I8470
I9382
tp72
g0
(g9
g2
Ntp73
Rp74
(dp75
g13
I01
sg14
F1.5585462755588333
sg15
g72
sbs(I1541
I3
tp76
g0
(g9
g2
Ntp77
Rp78
(dp79
g13
I00
sg14
F0.3710380332283601
sg15
g76
sbs(I7323
I8882
tp80
g0
(g9
g2
Ntp81
Rp82
(dp83
g13
I01
sg14
F-0.6076746830843133
sg15
g80
sbs(I1010
I5774
tp84
g0
(g9
g2
Ntp85
Rp86
(dp87
g13
I00
sg14
F0.583199184625156
sg15
g84
sbs(I1976
I1541
tp88
g0
(g9
g2
Ntp89
Rp90
(dp91
g13
I01
sg14
F3.2759857504554954
sg15
g88
sbs(I3233
I4708
tp92
g0
(g9
g2
Ntp93
Rp94
(dp95
g13
I01
sg14
F0.9105542188182965
sg15
g92
sbs(I4021
I6215
tp96
g0
(g9
g2
Ntp97
Rp98
(dp99
g13
I00
sg14
F-0.9213105351220505
sg15
g96
sbs(I8882
I6883
tp100
g0
(g9
g2
Ntp101
Rp102
(dp103
g13
I01
sg14
F1.7602719694033193
sg15
g100
sbs(I6401
I7001
tp104
g0
(g9
g2
Ntp105
Rp106
(dp107
g13
I01
sg14
F-2.5090539170828428
sg15
g104
sbs(I4549
I6215
tp108
g0
(g9
g2
Ntp109
Rp110
(dp111
g13
I00
sg14
F-3.0374290466148266
sg15
g108
sbs(I8146
I4730
tp112
g0
(g9
g2
Ntp113
Rp114
(dp115
g13
I01
sg14
F2.4928363284700934
sg15
g112
sbs(I1
I4549
tp116
g0
(g9
g2
Ntp117
Rp118
(dp119
g13
I00
sg14
F-2.5775028847407557
sg15
g116
sbs(I4549
I7612
tp120
g0
(g9
g2
Ntp121
Rp122
(dp123
g13
I00
sg14
F2.0453607361092634
sg15
g120
sbs(I9164
I8264
tp124
g0
(g9
g2
Ntp125
Rp126
(dp127
g13
I01
sg14
F1.4488513424508094
sg15
g124
sbs(I6762
I1976
tp128
g0
(g9
g2
Ntp129
Rp130
(dp131
g13
I00
sg14
F1.0917938226809358
sg15
g128
sbs(I7323
I6883
tp132
g0
(g9
g2
Ntp133
Rp134
(dp135
g13
I00
sg14
F-0.5980218946845706
sg15
g132
sbs(I3378
I0
tp136
g0
(g9
g2
Ntp137
Rp138
(dp139
g13
I01
sg14
F0.9468758261991382
sg15
g136
sbs(I7655
I4730
tp140
g0
(g9
g2
Ntp141
Rp142
(dp143
g13
I01
sg14
F-0.7882847497004555
sg15
g140
sbs(I3378
I3778
tp144
g0
(g9
g2
Ntp145
Rp146
(dp147
g13
I00
sg14
F-1.5751490710512337
sg15
g144
sbs(I9555
I6215
tp148
g0
(g9
g2
Ntp149
Rp150
(dp151
g13
I01
sg14
F-1.7039606968007885
sg15
g148
sbs(I3233
I4976
tp152
g0
(g9
g2
Ntp153
Rp154
(dp155
g13
I01
sg14
F-0.7045465504209265
sg15
g152
sbs(I3233
I6126
tp156
g0
(g9
g2
Ntp157
Rp158
(dp159
g13
I01
sg14
F-0.4012098962483518
sg15
g156
sbs(I1010
I8935
tp160
g0
(g9
g2
Ntp161
Rp162
(dp163
g13
I00
sg14
F0.3193873415313249
sg15
g160
sbs(I864
I6699
tp164
g0
(g9
g2
Ntp165
Rp166
(dp167
g13
I00
sg14
F2.0530550590452985
sg15
g164
sbs(I3233
I8980
tp168
g0
(g9
g2
Ntp169
Rp170
(dp171
g13
I01
sg14
F2.138284097638433
sg15
g168
sbs(I2
I4730
tp172
g0
(g9
g2
Ntp173
Rp174
(dp175
g13
I00
sg14
F-1.439768045514516
sg15
g172
sbs(I3125
I8558
tp176
g0
(g9
g2
Ntp177
Rp178
(dp179
g13
I00
sg14
F-2.864567366012632
sg15
g176
sbs(I4425
I864
tp180
g0
(g9
g2
Ntp181
Rp182
(dp183
g13
I01
sg14
F-0.8371310798314461
sg15
g180
sbs(I8512
I7001
tp184
g0
(g9
g2
Ntp185
Rp186
(dp187
g13
I00
sg14
F-1.0154918200632976
sg15
g184
sbs(I864
I6126
tp188
g0
(g9
g2
Ntp189
Rp190
(dp191
g13
I01
sg14
F2.697439458203849
sg15
g188
sbs(I7323
I3378
tp192
g0
(g9
g2
Ntp193
Rp194
(dp195
g13
I00
sg14
F1.2245050650485156
sg15
g192
sbs(I6457
I0
tp196
g0
(g9
g2
Ntp197
Rp198
(dp199
g13
I01
sg14
F-2.269672315566692
sg15
g196
sbs(I4976
I5280
tp200
g0
(g9
g2
Ntp201
Rp202
(dp203
g13
I00
sg14
F-0.22686391060863886
sg15
g200
sbs(I4425
I7655
tp204
g0
(g9
g2
Ntp205
Rp206
(dp207
g13
I01
sg14
F-2.1784980777016316
sg15
g204
sbs(I4021
I6457
tp208
g0
(g9
g2
Ntp209
Rp210
(dp211
g13
I00
sg14
F0.8426180779152169
sg15
g208
sbs(I8470
I1541
tp212
g0
(g9
g2
Ntp213
Rp214
(dp215
g13
I00
sg14
F-0.003083918860419571
sg15
g212
sbs(I8935
I4549
tp216
g0
(g9
g2
Ntp217
Rp218
(dp219
g13
I00
sg14
F0.619080450584501
sg15
g216
sbs(I6457
I3
tp220
g0
(g9
g2
Ntp221
Rp222
(dp223
g13
I01
sg14
F1.5180477325367971
sg15
g220
sbs(I3778
I4730
tp224
g0
(g9
g2
Ntp225
Rp226
(dp227
g13
I00
sg14
F-1.3646589313393407
sg15
g224
sbs(I-4
I2
tp228
g0
(g9
g2
Ntp229
Rp230
(dp231
g13
I00
sg14
F1.4157047628225223
sg15
g228
sbs(I8512
I4708
tp232
g0
(g9
g2
Ntp233
Rp234
(dp235
g13
I01
sg14
F-1.224446869531112
sg15
g232
sbs(I4976
I1976
tp236
g0
(g9
g2
Ntp237
Rp238
(dp239
g13
I01
sg14
F-0.6589019987105755
sg15
g236
sbs(I1010
I3233
tp240
g0
(g9
g2
Ntp241
Rp242
(dp243
g13
I01
sg14
F-3.3854698781799115
sg15
g240
sbs(I6883
I1976
tp244
g0
(g9
g2
Ntp245
Rp246
(dp247
g13
I01
sg14
F-0.3851778463128963
sg15
g244
sbs(I7655
I864
tp248
g0
(g9
g2
Ntp249
Rp250
(dp251
g13
I01
sg14
F1.0991507684972541
sg15
g248
sbs(I2
I4833
tp252
g0
(g9
g2
Ntp253
Rp254
(dp255
g13
I00
sg14
F0.05213536250908246
sg15
g252
sbs(I7749
I8512
tp256
g0
(g9
g2
Ntp257
Rp258
(dp259
g13
I01
sg14
F0.019154947519678944
sg15
g256
sbs(I4976
I6350
tp260
g0
(g9
g2
Ntp261
Rp262
(dp263
g13
I01
sg14
F-2.1457170478513525
sg15
g260
sbs(I8980
I6126
tp264
g0
(g9
g2
Ntp265
Rp266
(dp267
g13
I01
sg14
F1.7327612842503164
sg15
g264
sbs(I4708
I7612
tp268
g0
(g9
g2
Ntp269
Rp270
(dp271
g13
I00
sg14
F0.9089145224194393
sg15
g268
sbs(I1010
I4549
tp272
g0
(g9
g2
Ntp273
Rp274
(dp275
g13
I00
sg14
F0.5900324525450131
sg15
g272
sbs(I-4
I9435
tp276
g0
(g9
g2
Ntp277
Rp278
(dp279
g13
I01
sg14
F1.681470496813755
sg15
g276
sbs(I3378
I8863
tp280
g0
(g9
g2
Ntp281
Rp282
(dp283
g13
I01
sg14
F-0.6688194525153938
sg15
g280
sbs(I-1
I4708
tp284
g0
(g9
g2
Ntp285
Rp286
(dp287
g13
I01
sg14
F1.3493702266043814
sg15
g284
sbs(I4730
I7730
tp288
g0
(g9
g2
Ntp289
Rp290
(dp291
g13
I01
sg14
F-0.07901266901986903
sg15
g288
sbs(I8264
I6883
tp292
g0
(g9
g2
Ntp293
Rp294
(dp295
g13
I01
sg14
F1.1871663475407486
sg15
g292
sbs(I1010
I6350
tp296
g0
(g9
g2
Ntp297
Rp298
(dp299
g13
I01
sg14
F0.16559353088345308
sg15
g296
sbs(I4021
I6557
tp300
g0
(g9
g2
Ntp301
Rp302
(dp303
g13
I00
sg14
F3.026460096035354
sg15
g300
sbs(I-1
I3378
tp304
g0
(g9
g2
Ntp305
Rp306
(dp307
g13
I00
sg14
F4.368181988254171
sg15
g304
sbs(I4021
I9555
tp308
g0
(g9
g2
Ntp309
Rp310
(dp311
g13
I01
sg14
F1.1579848752062893
sg15
g308
sbs(I9435
I7323
tp312
g0
(g9
g2
Ntp313
Rp314
(dp315
g13
I01
sg14
F1.1086597091531043
sg15
g312
sbs(I2
I4708
tp316
g0
(g9
g2
Ntp317
Rp318
(dp319
g13
I01
sg14
F-4.027564995023593
sg15
g316
sbs(I7749
I7001
tp320
g0
(g9
g2
Ntp321
Rp322
(dp323
g13
I01
sg14
F1.2196783534453837
sg15
g320
sbs(I6699
I7284
tp324
g0
(g9
g2
Ntp325
Rp326
(dp327
g13
I01
sg14
F1.8015158232290112
sg15
g324
sbs(I7612
I6215
tp328
g0
(g9
g2
Ntp329
Rp330
(dp331
g13
I00
sg14
F1.6278869476686482
sg15
g328
sbs(I8146
I3683
tp332
g0
(g9
g2
Ntp333
Rp334
(dp335
g13
I01
sg14
F-0.061426308197307114
sg15
g332
sbs(I3125
I1541
tp336
g0
(g9
g2
Ntp337
Rp338
(dp339
g13
I00
sg14
F3.263713179129014
sg15
g336
sbs(I864
I3
tp340
g0
(g9
g2
Ntp341
Rp342
(dp343
g13
I01
sg14
F2.5886129878627857
sg15
g340
sbs(I-2
I864
tp344
g0
(g9
g2
Ntp345
Rp346
(dp347
g13
I01
sg14
F-0.33633119079408225
sg15
g344
sbs(I7284
I3
tp348
g0
(g9
g2
Ntp349
Rp350
(dp351
g13
I00
sg14
F0.1707515048037288
sg15
g348
sbs(I1541
I5774
tp352
g0
(g9
g2
Ntp353
Rp354
(dp355
g13
I00
sg14
F0.24414376249161315
sg15
g352
sbs(I9454
I4833
tp356
g0
(g9
g2
Ntp357
Rp358
(dp359
g13
I01
sg14
F-0.5099295952102484
sg15
g356
sbs(I6350
I864
tp360
g0
(g9
g2
Ntp361
Rp362
(dp363
g13
I01
sg14
F0.5839957096818013
sg15
g360
sbs(I6126
I3125
tp364
g0
(g9
g2
Ntp365
Rp366
(dp367
g13
I01
sg14
F1.3685865966425639
sg15
g364
sbs(I6529
I864
tp368
g0
(g9
g2
Ntp369
Rp370
(dp371
g13
I00
sg14
F0.00572240901638673
sg15
g368
sbs(I2
I9454
tp372
g0
(g9
g2
Ntp373
Rp374
(dp375
g13
I01
sg14
F2.6586071095245263
sg15
g372
sbs(I9382
I1541
tp376
g0
(g9
g2
Ntp377
Rp378
(dp379
g13
I01
sg14
F-3.9491325600896774
sg15
g376
sbssS'nodes'
p380
(dp381
I0
g0
(cneat.genes
DefaultNodeGene
p382
g2
Ntp383
Rp384
(dp385
S'activation'
p386
S'sigmoid'
p387
sS'bias'
p388
F1.8900408135982985
sS'response'
p389
F1.0
sg15
I0
sS'aggregation'
p390
S'sum'
p391
sbsI1
g0
(g382
g2
Ntp392
Rp393
(dp394
g386
g387
sg388
F0.044008290878723044
sg389
F1.0
sg15
I1
sg390
g391
sbsI2
g0
(g382
g2
Ntp395
Rp396
(dp397
g386
g387
sg388
F0.2333967934530642
sg389
F1.0
sg15
I2
sg390
g391
sbsI3
g0
(g382
g2
Ntp398
Rp399
(dp400
g386
g387
sg388
F-0.6402893657065869
sg389
F1.0
sg15
I3
sg390
g391
sbsI1541
g0
(g382
g2
Ntp401
Rp402
(dp403
g386
g387
sg388
F0.6069870145301896
sg389
F1.0
sg15
I1541
sg390
g391
sbsI6529
g0
(g382
g2
Ntp404
Rp405
(dp406
g386
g387
sg388
F-0.24290308628773422
sg389
F1.0
sg15
I6529
sg390
g391
sbsI5774
g0
(g382
g2
Ntp407
Rp408
(dp409
g386
g387
sg388
F0.037992982371614026
sg389
F1.0
sg15
I5774
sg390
g391
sbsI8980
g0
(g382
g2
Ntp410
Rp411
(dp412
g386
g387
sg388
F-1.5860376071894455
sg389
F1.0
sg15
I8980
sg390
g391
sbsI9454
g0
(g382
g2
Ntp413
Rp414
(dp415
g386
g387
sg388
F0.5932041496389305
sg389
F1.0
sg15
I9454
sg390
g391
sbsI8470
g0
(g382
g2
Ntp416
Rp417
(dp418
g386
g387
sg388
F1.1411848206077984
sg389
F1.0
sg15
I8470
sg390
g391
sbsI7323
g0
(g382
g2
Ntp419
Rp420
(dp421
g386
g387
sg388
F-2.9743708919525025
sg389
F1.0
sg15
I7323
sg390
g391
sbsI6557
g0
(g382
g2
Ntp422
Rp423
(dp424
g386
g387
sg388
F2.634661887703607
sg389
F1.0
sg15
I6557
sg390
g391
sbsI8863
g0
(g382
g2
Ntp425
Rp426
(dp427
g386
g387
sg388
F0.20353553683854203
sg389
F1.0
sg15
I8863
sg390
g391
sbsI5280
g0
(g382
g2
Ntp428
Rp429
(dp430
g386
g387
sg388
F-1.2377605599989838
sg389
F1.0
sg15
I5280
sg390
g391
sbsI3233
g0
(g382
g2
Ntp431
Rp432
(dp433
g386
g387
sg388
F-0.035317891516339406
sg389
F1.0
sg15
I3233
sg390
g391
sbsI9382
g0
(g382
g2
Ntp434
Rp435
(dp436
g386
g387
sg388
F-0.8930463080872165
sg389
F1.0
sg15
I9382
sg390
g391
sbsI6699
g0
(g382
g2
Ntp437
Rp438
(dp439
g386
g387
sg388
F-2.1460045251695115
sg389
F1.0
sg15
I6699
sg390
g391
sbsI7730
g0
(g382
g2
Ntp440
Rp441
(dp442
g386
g387
sg388
F2.570013371401184
sg389
F1.0
sg15
I7730
sg390
g391
sbsI3378
g0
(g382
g2
Ntp443
Rp444
(dp445
g386
g387
sg388
F1.2082038011719554
sg389
F1.0
sg15
I3378
sg390
g391
sbsI3125
g0
(g382
g2
Ntp446
Rp447
(dp448
g386
g387
sg388
F1.040955616096761
sg389
F1.0
sg15
I3125
sg390
g391
sbsI1976
g0
(g382
g2
Ntp449
Rp450
(dp451
g386
g387
sg388
F1.1886590847976468
sg389
F1.0
sg15
I1976
sg390
g391
sbsI6457
g0
(g382
g2
Ntp452
Rp453
(dp454
g386
g387
sg388
F-1.175417490117063
sg389
F1.0
sg15
I6457
sg390
g391
sbsI7612
g0
(g382
g2
Ntp455
Rp456
(dp457
g386
g387
sg388
F1.2478619563989182
sg389
F1.0
sg15
I7612
sg390
g391
sbsI4021
g0
(g382
g2
Ntp458
Rp459
(dp460
g386
g387
sg388
F-1.2568570146399
sg389
F1.0
sg15
I4021
sg390
g391
sbsI8512
g0
(g382
g2
Ntp461
Rp462
(dp463
g386
g387
sg388
F0.7031715583071421
sg389
F1.0
sg15
I8512
sg390
g391
sbsI3778
g0
(g382
g2
Ntp464
Rp465
(dp466
g386
g387
sg388
F2.1450043777207464
sg389
F1.0
sg15
I3778
sg390
g391
sbsI4549
g0
(g382
g2
Ntp467
Rp468
(dp469
g386
g387
sg388
F1.6441298340568882
sg389
F1.0
sg15
I4549
sg390
g391
sbsI6215
g0
(g382
g2
Ntp470
Rp471
(dp472
g386
g387
sg388
F0.6924108060362306
sg389
F1.0
sg15
I6215
sg390
g391
sbsI8264
g0
(g382
g2
Ntp473
Rp474
(dp475
g386
g387
sg388
F-2.5335648674134292
sg389
F1.0
sg15
I8264
sg390
g391
sbsI4425
g0
(g382
g2
Ntp476
Rp477
(dp478
g386
g387
sg388
F-0.5942362266421852
sg389
F1.0
sg15
I4425
sg390
g391
sbsI9164
g0
(g382
g2
Ntp479
Rp480
(dp481
g386
g387
sg388
F-1.0395239935878178
sg389
F1.0
sg15
I9164
sg390
g391
sbsI7749
g0
(g382
g2
Ntp482
Rp483
(dp484
g386
g387
sg388
F2.240142945483468
sg389
F1.0
sg15
I7749
sg390
g391
sbsI3665
g0
(g382
g2
Ntp485
Rp486
(dp487
g386
g387
sg388
F-0.43084306654288096
sg389
F1.0
sg15
I3665
sg390
g391
sbsI8146
g0
(g382
g2
Ntp488
Rp489
(dp490
g386
g387
sg388
F0.22612315455459298
sg389
F1.0
sg15
I8146
sg390
g391
sbsI6883
g0
(g382
g2
Ntp491
Rp492
(dp493
g386
g387
sg388
F2.785624884297801
sg389
F1.0
sg15
I6883
sg390
g391
sbsI6350
g0
(g382
g2
Ntp494
Rp495
(dp496
g386
g387
sg388
F-1.7419212925809044
sg389
F1.0
sg15
I6350
sg390
g391
sbsI7001
g0
(g382
g2
Ntp497
Rp498
(dp499
g386
g387
sg388
F-2.343403911686398
sg389
F1.0
sg15
I7001
sg390
g391
sbsI9435
g0
(g382
g2
Ntp500
Rp501
(dp502
g386
g387
sg388
F-0.8470101942779766
sg389
F1.0
sg15
I9435
sg390
g391
sbsI864
g0
(g382
g2
Ntp503
Rp504
(dp505
g386
g387
sg388
F0.9911102355733081
sg389
F1.0
sg15
I864
sg390
g391
sbsI4833
g0
(g382
g2
Ntp506
Rp507
(dp508
g386
g387
sg388
F0.5891882165546022
sg389
F1.0
sg15
I4833
sg390
g391
sbsI3683
g0
(g382
g2
Ntp509
Rp510
(dp511
g386
g387
sg388
F-0.055082199421449624
sg389
F1.0
sg15
I3683
sg390
g391
sbsI4708
g0
(g382
g2
Ntp512
Rp513
(dp514
g386
g387
sg388
F-0.2015581920632879
sg389
F1.0
sg15
I4708
sg390
g391
sbsI7655
g0
(g382
g2
Ntp515
Rp516
(dp517
g386
g387
sg388
F-0.8021514269321001
sg389
F1.0
sg15
I7655
sg390
g391
sbsI6762
g0
(g382
g2
Ntp518
Rp519
(dp520
g386
g387
sg388
F0.6084836094733426
sg389
F1.0
sg15
I6762
sg390
g391
sbsI8935
g0
(g382
g2
Ntp521
Rp522
(dp523
g386
g387
sg388
F-1.8155098903745093
sg389
F1.0
sg15
I8935
sg390
g391
sbsI6401
g0
(g382
g2
Ntp524
Rp525
(dp526
g386
g387
sg388
F-0.8932349939512245
sg389
F1.0
sg15
I6401
sg390
g391
sbsI6126
g0
(g382
g2
Ntp527
Rp528
(dp529
g386
g387
sg388
F2.421476856443422
sg389
F1.0
sg15
I6126
sg390
g391
sbsI4976
g0
(g382
g2
Ntp530
Rp531
(dp532
g386
g387
sg388
F-0.012491402727957682
sg389
F1.0
sg15
I4976
sg390
g391
sbsI1010
g0
(g382
g2
Ntp533
Rp534
(dp535
g386
g387
sg388
F1.1850417836416876
sg389
F1.0
sg15
I1010
sg390
g391
sbsI9555
g0
(g382
g2
Ntp536
Rp537
(dp538
g386
g387
sg388
F-0.026141455312488075
sg389
F1.0
sg15
I9555
sg390
g391
sbsI7284
g0
(g382
g2
Ntp539
Rp540
(dp541
g386
g387
sg388
F0.32405240685837206
sg389
F1.0
sg15
I7284
sg390
g391
sbsI8558
g0
(g382
g2
Ntp542
Rp543
(dp544
g386
g387
sg388
F0.4616960871886617
sg389
F1.0
sg15
I8558
sg390
g391
sbsI8882
g0
(g382
g2
Ntp545
Rp546
(dp547
g386
g387
sg388
F-6.900121152843479
sg389
F1.0
sg15
I8882
sg390
g391
sbsI4730
g0
(g382
g2
Ntp548
Rp549
(dp550
g386
g387
sg388
F1.586648782940634
sg389
F1.0
sg15
I4730
sg390
g391
sbsI9365
g0
(g382
g2
Ntp551
Rp552
(dp553
g386
g387
sg388
F1.7459871201808992
sg389
F1.0
sg15
I9365
sg390
g391
sbssg15
I28732
sS'fitness'
p554
F-101.75994744373807
sb.