ccopy_reg
_reconstructor
p0
(cneat.genome
DefaultGenome
p1
c__builtin__
object
p2
Ntp3
Rp4
(dp5
S'connections'
p6
(dp7
(I3378
I3
tp8
g0
(cneat.genes
DefaultConnectionGene
p9
g2
Ntp10
Rp11
(dp12
S'enabled'
p13
I00
sS'weight'
p14
F-1.0581902853831107
sS'key'
p15
g8
sbs(I3125
I8470
tp16
g0
(g9
g2
Ntp17
Rp18
(dp19
g13
I01
sg14
F-1.6374154057477184
sg15
g16
sbs(I9353
I8470
tp20
g0
(g9
g2
Ntp21
Rp22
(dp23
g13
I01
sg14
F0.8265932904803983
sg15
g20
sbs(I5280
I3378
tp24
g0
(g9
g2
Ntp25
Rp26
(dp27
g13
I01
sg14
F1.3567653769528627
sg15
g24
sbs(I-4
I7323
tp28
g0
(g9
g2
Ntp29
Rp30
(dp31
g13
I00
sg14
F-0.3403811761615093
sg15
g28
sbs(I4833
I6401
tp32
g0
(g9
g2
Ntp33
Rp34
(dp35
g13
I00
sg14
F-0.16027451720956834
sg15
g32
sbs(I-3
I4976
tp36
g0
(g9
g2
Ntp37
Rp38
(dp39
g13
I00
sg14
F1.608751554909892
sg15
g36
sbs(I-2
I6529
tp40
g0
(g9
g2
Ntp41
Rp42
(dp43
g13
I00
sg14
F-1.1700756830105286
sg15
g40
sbs(I-3
I3378
tp44
g0
(g9
g2
Ntp45
Rp46
(dp47
g13
I00
sg14
F1.2558217269203813
sg15
g44
sbs(I7749
I7001
tp48
g0
(g9
g2
Ntp49
Rp50
(dp51
g13
I01
sg14
F-0.5555634349438747
sg15
g48
sbs(I4976
I9192
tp52
g0
(g9
g2
Ntp53
Rp54
(dp55
g13
I01
sg14
F-0.6716446835315959
sg15
g52
sbs(I3778
I6883
tp56
g0
(g9
g2
Ntp57
Rp58
(dp59
g13
I01
sg14
F-4.3887335795771225
sg15
g56
sbs(I6457
I3585
tp60
g0
(g9
g2
Ntp61
Rp62
(dp63
g13
I00
sg14
F-0.11330494674311109
sg15
g60
sbs(I1541
I3
tp64
g0
(g9
g2
Ntp65
Rp66
(dp67
g13
I00
sg14
F-2.4617529223688037
sg15
g64
sbs(I7323
I8882
tp68
g0
(g9
g2
Ntp69
Rp70
(dp71
g13
I01
sg14
F0.7266921207534264
sg15
g68
sbs(I1976
I1541
tp72
g0
(g9
g2
Ntp73
Rp74
(dp75
g13
I01
sg14
F-1.3494059133158096
sg15
g72
sbs(I3233
I4708
tp76
g0
(g9
g2
Ntp77
Rp78
(dp79
g13
I01
sg14
F-1.7959922769985706
sg15
g76
sbs(I571
I9515
tp80
g0
(g9
g2
Ntp81
Rp82
(dp83
g13
I01
sg14
F2.331343033089126
sg15
g80
sbs(I4021
I6215
tp84
g0
(g9
g2
Ntp85
Rp86
(dp87
g13
I00
sg14
F-1.9372708051883945
sg15
g84
sbs(I4549
I9442
tp88
g0
(g9
g2
Ntp89
Rp90
(dp91
g13
I01
sg14
F1.8722254590801746
sg15
g88
sbs(I8882
I6883
tp92
g0
(g9
g2
Ntp93
Rp94
(dp95
g13
I01
sg14
F0.08197287295560751
sg15
g92
sbs(I6401
I7001
tp96
g0
(g9
g2
Ntp97
Rp98
(dp99
g13
I00
sg14
F0.20403325975500824
sg15
g96
sbs(I4549
I6215
tp100
g0
(g9
g2
Ntp101
Rp102
(dp103
g13
I00
sg14
F0.22999598403265797
sg15
g100
sbs(I8146
I4730
tp104
g0
(g9
g2
Ntp105
Rp106
(dp107
g13
I01
sg14
F0.4049577372198371
sg15
g104
sbs(I1
I4549
tp108
g0
(g9
g2
Ntp109
Rp110
(dp111
g13
I00
sg14
F0.3522354763557579
sg15
g108
sbs(I4549
I7612
tp112
g0
(g9
g2
Ntp113
Rp114
(dp115
g13
I01
sg14
F0.665017042516042
sg15
g112
sbs(I2
I4708
tp116
g0
(g9
g2
Ntp117
Rp118
(dp119
g13
I01
sg14
F-1.9178279738331705
sg15
g116
sbs(I6762
I1976
tp120
g0
(g9
g2
Ntp121
Rp122
(dp123
g13
I00
sg14
F-0.12177560012230715
sg15
g120
sbs(I7323
I6883
tp124
g0
(g9
g2
Ntp125
Rp126
(dp127
g13
I00
sg14
F0.6025747968722548
sg15
g124
sbs(I3378
I0
tp128
g0
(g9
g2
Ntp129
Rp130
(dp131
g13
I01
sg14
F1.160655389298035
sg15
g128
sbs(I7655
I4730
tp132
g0
(g9
g2
Ntp133
Rp134
(dp135
g13
I01
sg14
F1.0748022768879124
sg15
g132
sbs(I3378
I3778
tp136
g0
(g9
g2
Ntp137
Rp138
(dp139
g13
I00
sg14
F1.1065602697501133
sg15
g136
sbs(I3233
I4976
tp140
g0
(g9
g2
Ntp141
Rp142
(dp143
g13
I01
sg14
F-2.068565492299343
sg15
g140
sbs(I3233
I6126
tp144
g0
(g9
g2
Ntp145
Rp146
(dp147
g13
I00
sg14
F-5.22037812109013
sg15
g144
sbs(I8512
I7001
tp148
g0
(g9
g2
Ntp149
Rp150
(dp151
g13
I00
sg14
F0.8712958179287356
sg15
g148
sbs(I864
I6699
tp152
g0
(g9
g2
Ntp153
Rp154
(dp155
g13
I00
sg14
F-0.24923224403656302
sg15
g152
sbs(I7730
I8882
tp156
g0
(g9
g2
Ntp157
Rp158
(dp159
g13
I01
sg14
F1.7615006064659604
sg15
g156
sbs(I3233
I8980
tp160
g0
(g9
g2
Ntp161
Rp162
(dp163
g13
I01
sg14
F1.4133594619331473
sg15
g160
sbs(I2
I4730
tp164
g0
(g9
g2
Ntp165
Rp166
(dp167
g13
I00
sg14
F0.5995425789517799
sg15
g164
sbs(I3125
I8558
tp168
g0
(g9
g2
Ntp169
Rp170
(dp171
g13
I00
sg14
F1.1194549697776155
sg15
g168
sbs(I6883
I1976
tp172
g0
(g9
g2
Ntp173
Rp174
(dp175
g13
I01
sg14
F1.0530197086187756
sg15
g172
sbs(I4425
I864
tp176
g0
(g9
g2
Ntp177
Rp178
(dp179
g13
I01
sg14
F1.0412974186089143
sg15
g176
sbs(I7730
I5551
tp180
g0
(g9
g2
Ntp181
Rp182
(dp183
g13
I01
sg14
F1.8900845062784617
sg15
g180
sbs(I864
I6126
tp184
g0
(g9
g2
Ntp185
Rp186
(dp187
g13
I01
sg14
F1.6167671997524264
sg15
g184
sbs(I7323
I3378
tp188
g0
(g9
g2
Ntp189
Rp190
(dp191
g13
I01
sg14
F-0.9419131036059836
sg15
g188
sbs(I9192
I5280
tp192
g0
(g9
g2
Ntp193
Rp194
(dp195
g13
I01
sg14
F2.431795480422645
sg15
g192
sbs(I5960
I3
tp196
g0
(g9
g2
Ntp197
Rp198
(dp199
g13
I00
sg14
F1.496158924169555
sg15
g196
sbs(I8863
I571
tp200
g0
(g9
g2
Ntp201
Rp202
(dp203
g13
I01
sg14
F-0.4973049363679864
sg15
g200
sbs(I6457
I0
tp204
g0
(g9
g2
Ntp205
Rp206
(dp207
g13
I00
sg14
F1.6856853841315331
sg15
g204
sbs(I4976
I5280
tp208
g0
(g9
g2
Ntp209
Rp210
(dp211
g13
I00
sg14
F3.052439647248361
sg15
g208
sbs(I2
I5551
tp212
g0
(g9
g2
Ntp213
Rp214
(dp215
g13
I01
sg14
F1.0322137777690576
sg15
g212
sbs(I6699
I9587
tp216
g0
(g9
g2
Ntp217
Rp218
(dp219
g13
I01
sg14
F1.0
sg15
g216
sbs(I4425
I7655
tp220
g0
(g9
g2
Ntp221
Rp222
(dp223
g13
I01
sg14
F-0.9055493362501538
sg15
g220
sbs(I4021
I6457
tp224
g0
(g9
g2
Ntp225
Rp226
(dp227
g13
I00
sg14
F1.9233185589881558
sg15
g224
sbs(I4730
I571
tp228
g0
(g9
g2
Ntp229
Rp230
(dp231
g13
I01
sg14
F-1.077699013719347
sg15
g228
sbs(I3378
I571
tp232
g0
(g9
g2
Ntp233
Rp234
(dp235
g13
I01
sg14
F0.8212572355516178
sg15
g232
sbs(I4549
I7284
tp236
g0
(g9
g2
Ntp237
Rp238
(dp239
g13
I01
sg14
F0.8492216724199014
sg15
g236
sbs(I8470
I1541
tp240
g0
(g9
g2
Ntp241
Rp242
(dp243
g13
I00
sg14
F-0.06726048836162518
sg15
g240
sbs(I6557
I3585
tp244
g0
(g9
g2
Ntp245
Rp246
(dp247
g13
I01
sg14
F-2.4413635102293436
sg15
g244
sbs(I8935
I4549
tp248
g0
(g9
g2
Ntp249
Rp250
(dp251
g13
I01
sg14
F2.073470627970778
sg15
g248
sbs(I6457
I3
tp252
g0
(g9
g2
Ntp253
Rp254
(dp255
g13
I00
sg14
F0.9283202514550455
sg15
g252
sbs(I3778
I4730
tp256
g0
(g9
g2
Ntp257
Rp258
(dp259
g13
I01
sg14
F0.6760564604891377
sg15
g256
sbs(I6215
I3585
tp260
g0
(g9
g2
Ntp261
Rp262
(dp263
g13
I00
sg14
F0.8837378461460553
sg15
g260
sbs(I571
I1976
tp264
g0
(g9
g2
Ntp265
Rp266
(dp267
g13
I00
sg14
F0.838153644641216
sg15
g264
sbs(I-4
I2
tp268
g0
(g9
g2
Ntp269
Rp270
(dp271
g13
I01
sg14
F0.3068043131032634
sg15
g268
sbs(I9304
I2
tp272
g0
(g9
g2
Ntp273
Rp274
(dp275
g13
I01
sg14
F0.5960884510769958
sg15
g272
sbs(I8512
I4708
tp276
g0
(g9
g2
Ntp277
Rp278
(dp279
g13
I01
sg14
F0.983193768227072
sg15
g276
sbs(I7001
I5960
tp280
g0
(g9
g2
Ntp281
Rp282
(dp283
g13
I00
sg14
F2.573109029060804
sg15
g280
sbs(I4976
I1976
tp284
g0
(g9
g2
Ntp285
Rp286
(dp287
g13
I01
sg14
F0.36996119954563184
sg15
g284
sbs(I4730
I5551
tp288
g0
(g9
g2
Ntp289
Rp290
(dp291
g13
I01
sg14
F2.657581974860599
sg15
g288
sbs(I7655
I864
tp292
g0
(g9
g2
Ntp293
Rp294
(dp295
g13
I00
sg14
F1.3034687654116988
sg15
g292
sbs(I9442
I8863
tp296
g0
(g9
g2
Ntp297
Rp298
(dp299
g13
I01
sg14
F-3.494174198863966
sg15
g296
sbs(I2
I4833
tp300
g0
(g9
g2
Ntp301
Rp302
(dp303
g13
I01
sg14
F-0.28684090524412864
sg15
g300
sbs(I4976
I5551
tp304
g0
(g9
g2
Ntp305
Rp306
(dp307
g13
I01
sg14
F0.8795629191561104
sg15
g304
sbs(I8980
I6126
tp308
g0
(g9
g2
Ntp309
Rp310
(dp311
g13
I01
sg14
F-2.6210081937008476
sg15
g308
sbs(I4549
I8863
tp312
g0
(g9
g2
Ntp313
Rp314
(dp315
g13
I00
sg14
F-0.49836298925705336
sg15
g312
sbs(I7749
I8512
tp316
g0
(g9
g2
Ntp317
Rp318
(dp319
g13
I01
sg14
F2.6295784231512074
sg15
g316
sbs(I3378
I8863
tp320
g0
(g9
g2
Ntp321
Rp322
(dp323
g13
I00
sg14
F-1.31486129821003
sg15
g320
sbs(I9587
I7284
tp324
g0
(g9
g2
Ntp325
Rp326
(dp327
g13
I01
sg14
F-0.9378085482318173
sg15
g324
sbs(I4730
I7730
tp328
g0
(g9
g2
Ntp329
Rp330
(dp331
g13
I01
sg14
F1.9334796620591839
sg15
g328
sbs(I571
I3585
tp332
g0
(g9
g2
Ntp333
Rp334
(dp335
g13
I00
sg14
F-3.1779850008073174
sg15
g332
sbs(I4549
I9497
tp336
g0
(g9
g2
Ntp337
Rp338
(dp339
g13
I01
sg14
F0.36296276729742954
sg15
g336
sbs(I9497
I8863
tp340
g0
(g9
g2
Ntp341
Rp342
(dp343
g13
I01
sg14
F-1.3925627437064945
sg15
g340
sbs(I7001
I4549
tp344
g0
(g9
g2
Ntp345
Rp346
(dp347
g13
I01
sg14
F1.2828541456431528
sg15
g344
sbs(I4021
I3585
tp348
g0
(g9
g2
Ntp349
Rp350
(dp351
g13
I00
sg14
F-2.2893088310420704
sg15
g348
sbs(I4021
I6557
tp352
g0
(g9
g2
Ntp353
Rp354
(dp355
g13
I00
sg14
F1.5287625321850171
sg15
g352
sbs(I4708
I7612
tp356
g0
(g9
g2
Ntp357
Rp358
(dp359
g13
I00
sg14
F-0.3274132039449841
sg15
g356
sbs(I-1
I3378
tp360
g0
(g9
g2
Ntp361
Rp362
(dp363
g13
I00
sg14
F0.7475838812689903
sg15
g360
sbs(I571
I3
tp364
g0
(g9
g2
Ntp365
Rp366
(dp367
g13
I00
sg14
F1.4276847222694764
sg15
g364
sbs(I3125
I9353
tp368
g0
(g9
g2
Ntp369
Rp370
(dp371
g13
I01
sg14
F-2.4345260249486795
sg15
g368
sbs(I6699
I7284
tp372
g0
(g9
g2
Ntp373
Rp374
(dp375
g13
I00
sg14
F-1.9205582352400972
sg15
g372
sbs(I7612
I6215
tp376
g0
(g9
g2
Ntp377
Rp378
(dp379
g13
I00
sg14
F1.958673627719694
sg15
g376
sbs(I9515
I3585
tp380
g0
(g9
g2
Ntp381
Rp382
(dp383
g13
I01
sg14
F1.6371306470111535
sg15
g380
sbs(I3125
I1541
tp384
g0
(g9
g2
Ntp385
Rp386
(dp387
g13
I00
sg14
F-0.09169508820671934
sg15
g384
sbs(I571
I1541
tp388
g0
(g9
g2
Ntp389
Rp390
(dp391
g13
I01
sg14
F0.5054140849842086
sg15
g388
sbs(I-2
I864
tp392
g0
(g9
g2
Ntp393
Rp394
(dp395
g13
I01
sg14
F-1.3025556146423063
sg15
g392
sbs(I7284
I3
tp396
g0
(g9
g2
Ntp397
Rp398
(dp399
g13
I00
sg14
F0.5589750470603261
sg15
g396
sbs(I1541
I5774
tp400
g0
(g9
g2
Ntp401
Rp402
(dp403
g13
I00
sg14
F0.670540926330806
sg15
g400
sbs(I6350
I864
tp404
g0
(g9
g2
Ntp405
Rp406
(dp407
g13
I01
sg14
F-3.7549147215348206
sg15
g404
sbs(I864
I3
tp408
g0
(g9
g2
Ntp409
Rp410
(dp411
g13
I01
sg14
F-0.4569541128052612
sg15
g408
sbs(I-4
I9304
tp412
g0
(g9
g2
Ntp413
Rp414
(dp415
g13
I00
sg14
F-0.3282106282105823
sg15
g412
sbssS'nodes'
p416
(dp417
I0
g0
(cneat.genes
DefaultNodeGene
p418
g2
Ntp419
Rp420
(dp421
S'activation'
p422
S'sigmoid'
p423
sS'bias'
p424
F-2.2261942814367943
sS'response'
p425
F1.0
sg15
I0
sS'aggregation'
p426
S'sum'
p427
sbsI1
g0
(g418
g2
Ntp428
Rp429
(dp430
g422
g423
sg424
F0.9989345711906497
sg425
F1.0
sg15
I1
sg426
g427
sbsI2
g0
(g418
g2
Ntp431
Rp432
(dp433
g422
g423
sg424
F-0.5465502413023907
sg425
F1.0
sg15
I2
sg426
g427
sbsI3
g0
(g418
g2
Ntp434
Rp435
(dp436
g422
g423
sg424
F-6.085167794045619
sg425
F1.0
sg15
I3
sg426
g427
sbsI1541
g0
(g418
g2
Ntp437
Rp438
(dp439
g422
g423
sg424
F1.066306664914307
sg425
F1.0
sg15
I1541
sg426
g427
sbsI3585
g0
(g418
g2
Ntp440
Rp441
(dp442
g422
g423
sg424
F-3.1742656274561667
sg425
F1.0
sg15
I3585
sg426
g427
sbsI9353
g0
(g418
g2
Ntp443
Rp444
(dp445
g422
g423
sg424
F0.3252612960003015
sg425
F1.0
sg15
I9353
sg426
g427
sbsI5774
g0
(g418
g2
Ntp446
Rp447
(dp448
g422
g423
sg424
F-0.36390223853210696
sg425
F1.0
sg15
I5774
sg426
g427
sbsI8980
g0
(g418
g2
Ntp449
Rp450
(dp451
g422
g423
sg424
F0.5626112545535648
sg425
F1.0
sg15
I8980
sg426
g427
sbsI8558
g0
(g418
g2
Ntp452
Rp453
(dp454
g422
g423
sg424
F0.693509735640516
sg425
F1.0
sg15
I8558
sg426
g427
sbsI8470
g0
(g418
g2
Ntp455
Rp456
(dp457
g422
g423
sg424
F2.3683814270533703
sg425
F1.0
sg15
I8470
sg426
g427
sbsI9497
g0
(g418
g2
Ntp458
Rp459
(dp460
g422
g423
sg424
F0.6354920448366983
sg425
F1.0
sg15
I9497
sg426
g427
sbsI7323
g0
(g418
g2
Ntp461
Rp462
(dp463
g422
g423
sg424
F1.298557557906063
sg425
F1.0
sg15
I7323
sg426
g427
sbsI6557
g0
(g418
g2
Ntp464
Rp465
(dp466
g422
g423
sg424
F-1.348230334738202
sg425
F1.0
sg15
I6557
sg426
g427
sbsI8863
g0
(g418
g2
Ntp467
Rp468
(dp469
g422
g423
sg424
F-1.308460426630165
sg425
F1.0
sg15
I8863
sg426
g427
sbsI5280
g0
(g418
g2
Ntp470
Rp471
(dp472
g422
g423
sg424
F-0.9571983089458906
sg425
F1.0
sg15
I5280
sg426
g427
sbsI3233
g0
(g418
g2
Ntp473
Rp474
(dp475
g422
g423
sg424
F-1.4952793671911881
sg425
F1.0
sg15
I3233
sg426
g427
sbsI9515
g0
(g418
g2
Ntp476
Rp477
(dp478
g422
g423
sg424
F-0.32352962896988924
sg425
F1.0
sg15
I9515
sg426
g427
sbsI7730
g0
(g418
g2
Ntp479
Rp480
(dp481
g422
g423
sg424
F2.531596778374913
sg425
F1.0
sg15
I7730
sg426
g427
sbsI5551
g0
(g418
g2
Ntp482
Rp483
(dp484
g422
g423
sg424
F1.072357631113735
sg425
F1.0
sg15
I5551
sg426
g427
sbsI3378
g0
(g418
g2
Ntp485
Rp486
(dp487
g422
g423
sg424
F-1.3322665540497292
sg425
F1.0
sg15
I3378
sg426
g427
sbsI3125
g0
(g418
g2
Ntp488
Rp489
(dp490
g422
g423
sg424
F0.5544166242915953
sg425
F1.0
sg15
I3125
sg426
g427
sbsI6529
g0
(g418
g2
Ntp491
Rp492
(dp493
g422
g423
sg424
F-1.5189620986460752
sg425
F1.0
sg15
I6529
sg426
g427
sbsI1976
g0
(g418
g2
Ntp494
Rp495
(dp496
g422
g423
sg424
F0.8682008613679536
sg425
F1.0
sg15
I1976
sg426
g427
sbsI6457
g0
(g418
g2
Ntp497
Rp498
(dp499
g422
g423
sg424
F0.8282638904914537
sg425
F1.0
sg15
I6457
sg426
g427
sbsI571
g0
(g418
g2
Ntp500
Rp501
(dp502
g422
g423
sg424
F0.5907739590744606
sg425
F1.0
sg15
I571
sg426
g427
sbsI7612
g0
(g418
g2
Ntp503
Rp504
(dp505
g422
g423
sg424
F0.8819854228229707
sg425
F1.0
sg15
I7612
sg426
g427
sbsI4021
g0
(g418
g2
Ntp506
Rp507
(dp508
g422
g423
sg424
F-1.1299987137678884
sg425
F1.0
sg15
I4021
sg426
g427
sbsI8512
g0
(g418
g2
Ntp509
Rp510
(dp511
g422
g423
sg424
F1.4826748013877002
sg425
F1.0
sg15
I8512
sg426
g427
sbsI3778
g0
(g418
g2
Ntp512
Rp513
(dp514
g422
g423
sg424
F0.4740625956929671
sg425
F1.0
sg15
I3778
sg426
g427
sbsI4549
g0
(g418
g2
Ntp515
Rp516
(dp517
g422
g423
sg424
F-0.13330558539672482
sg425
F1.0
sg15
I4549
sg426
g427
sbsI6215
g0
(g418
g2
Ntp518
Rp519
(dp520
g422
g423
sg424
F-0.6008382092053419
sg425
F1.0
sg15
I6215
sg426
g427
sbsI5960
g0
(g418
g2
Ntp521
Rp522
(dp523
g422
g423
sg424
F2.7182056197230784
sg425
F1.0
sg15
I5960
sg426
g427
sbsI4425
g0
(g418
g2
Ntp524
Rp525
(dp526
g422
g423
sg424
F0.07180679431960302
sg425
F1.0
sg15
I4425
sg426
g427
sbsI7749
g0
(g418
g2
Ntp527
Rp528
(dp529
g422
g423
sg424
F0.3185822394588831
sg425
F1.0
sg15
I7749
sg426
g427
sbsI8146
g0
(g418
g2
Ntp530
Rp531
(dp532
g422
g423
sg424
F-0.2314807781825426
sg425
F1.0
sg15
I8146
sg426
g427
sbsI6883
g0
(g418
g2
Ntp533
Rp534
(dp535
g422
g423
sg424
F0.7440807570968182
sg425
F1.0
sg15
I6883
sg426
g427
sbsI6350
g0
(g418
g2
Ntp536
Rp537
(dp538
g422
g423
sg424
F0.8729101872841327
sg425
F1.0
sg15
I6350
sg426
g427
sbsI9304
g0
(g418
g2
Ntp539
Rp540
(dp541
g422
g423
sg424
F2.1042834349171113
sg425
F1.0
sg15
I9304
sg426
g427
sbsI7001
g0
(g418
g2
Ntp542
Rp543
(dp544
g422
g423
sg424
F0.23764492973985987
sg425
F1.0
sg15
I7001
sg426
g427
sbsI864
g0
(g418
g2
Ntp545
Rp546
(dp547
g422
g423
sg424
F-0.18710576239972287
sg425
F1.0
sg15
I864
sg426
g427
sbsI6699
g0
(g418
g2
Ntp548
Rp549
(dp550
g422
g423
sg424
F-1.728275064088434
sg425
F1.0
sg15
I6699
sg426
g427
sbsI9442
g0
(g418
g2
Ntp551
Rp552
(dp553
g422
g423
sg424
F-0.23449619539882216
sg425
F1.0
sg15
I9442
sg426
g427
sbsI3683
g0
(g418
g2
Ntp554
Rp555
(dp556
g422
g423
sg424
F-1.738404233830417
sg425
F1.0
sg15
I3683
sg426
g427
sbsI4708
g0
(g418
g2
Ntp557
Rp558
(dp559
g422
g423
sg424
F-3.971551886384618
sg425
F1.0
sg15
I4708
sg426
g427
sbsI7655
g0
(g418
g2
Ntp560
Rp561
(dp562
g422
g423
sg424
F-0.12851641717820086
sg425
F1.0
sg15
I7655
sg426
g427
sbsI9192
g0
(g418
g2
Ntp563
Rp564
(dp565
g422
g423
sg424
F0.5339556559489312
sg425
F1.0
sg15
I9192
sg426
g427
sbsI6762
g0
(g418
g2
Ntp566
Rp567
(dp568
g422
g423
sg424
F0.47840007375795324
sg425
F1.0
sg15
I6762
sg426
g427
sbsI8935
g0
(g418
g2
Ntp569
Rp570
(dp571
g422
g423
sg424
F2.2073034772054827
sg425
F1.0
sg15
I8935
sg426
g427
sbsI6401
g0
(g418
g2
Ntp572
Rp573
(dp574
g422
g423
sg424
F-0.405544986632386
sg425
F1.0
sg15
I6401
sg426
g427
sbsI6126
g0
(g418
g2
Ntp575
Rp576
(dp577
g422
g423
sg424
F0.5342732280784769
sg425
F1.0
sg15
I6126
sg426
g427
sbsI4976
g0
(g418
g2
Ntp578
Rp579
(dp580
g422
g423
sg424
F2.0586177905988654
sg425
F1.0
sg15
I4976
sg426
g427
sbsI9587
g0
(g418
g2
Ntp581
Rp582
(dp583
g422
g423
sg424
F-0.939730081614478
sg425
F1.0
sg15
I9587
sg426
g427
sbsI7284
g0
(g418
g2
Ntp584
Rp585
(dp586
g422
g423
sg424
F-0.9009419793722715
sg425
F1.0
sg15
I7284
sg426
g427
sbsI8882
g0
(g418
g2
Ntp587
Rp588
(dp589
g422
g423
sg424
F0.3436668581801511
sg425
F1.0
sg15
I8882
sg426
g427
sbsI4730
g0
(g418
g2
Ntp590
Rp591
(dp592
g422
g423
sg424
F-0.8098642348667195
sg425
F1.0
sg15
I4730
sg426
g427
sbsI4833
g0
(g418
g2
Ntp593
Rp594
(dp595
g422
g423
sg424
F-1.3449329701110224
sg425
F1.0
sg15
I4833
sg426
g427
sbssg15
I28830
sS'fitness'
p596
F99.94845818900244
sb.