ccopy_reg
_reconstructor
p0
(cneat.genome
DefaultGenome
p1
c__builtin__
object
p2
Ntp3
Rp4
(dp5
S'connections'
p6
(dp7
(I801
I789
tp8
g0
(cneat.genes
DefaultConnectionGene
p9
g2
Ntp10
Rp11
(dp12
S'enabled'
p13
I01
sS'weight'
p14
F2.0565302819689864
sS'key'
p15
g8
sbs(I-1
I1
tp16
g0
(g9
g2
Ntp17
Rp18
(dp19
g13
I00
sg14
F-1.309426909810693
sg15
g16
sbs(I789
I823
tp20
g0
(g9
g2
Ntp21
Rp22
(dp23
g13
I00
sg14
F1.0641494000692695
sg15
g20
sbs(I-2
I789
tp24
g0
(g9
g2
Ntp25
Rp26
(dp27
g13
I01
sg14
F-2.464492254571391
sg15
g24
sbs(I-2
I3
tp28
g0
(g9
g2
Ntp29
Rp30
(dp31
g13
I00
sg14
F-0.050100412359725954
sg15
g28
sbs(I-2
I1
tp32
g0
(g9
g2
Ntp33
Rp34
(dp35
g13
I01
sg14
F-1.0873666370212316
sg15
g32
sbs(I-2
I2
tp36
g0
(g9
g2
Ntp37
Rp38
(dp39
g13
I00
sg14
F-0.242453422859236
sg15
g36
sbs(I-2
I801
tp40
g0
(g9
g2
Ntp41
Rp42
(dp43
g13
I01
sg14
F-2.4598421639931667
sg15
g40
sbs(I848
I2
tp44
g0
(g9
g2
Ntp45
Rp46
(dp47
g13
I01
sg14
F1.4730577820714423
sg15
g44
sbs(I789
I875
tp48
g0
(g9
g2
Ntp49
Rp50
(dp51
g13
I01
sg14
F1.193109999245528
sg15
g48
sbs(I875
I823
tp52
g0
(g9
g2
Ntp53
Rp54
(dp55
g13
I01
sg14
F1.0844379591148157
sg15
g52
sbs(I734
I2
tp56
g0
(g9
g2
Ntp57
Rp58
(dp59
g13
I01
sg14
F1.5895924231907563
sg15
g56
sbs(I823
I734
tp60
g0
(g9
g2
Ntp61
Rp62
(dp63
g13
I01
sg14
F-0.8427398707958241
sg15
g60
sbs(I-2
I734
tp64
g0
(g9
g2
Ntp65
Rp66
(dp67
g13
I01
sg14
F0.1012646869219449
sg15
g64
sbs(I-2
I848
tp68
g0
(g9
g2
Ntp69
Rp70
(dp71
g13
I01
sg14
F1.087476437795535
sg15
g68
sbssS'nodes'
p72
(dp73
I0
g0
(cneat.genes
DefaultNodeGene
p74
g2
Ntp75
Rp76
(dp77
S'activation'
p78
S'sigmoid'
p79
sS'bias'
p80
F-1.6426365052588183
sS'response'
p81
F1.0
sg15
I0
sS'aggregation'
p82
S'sum'
p83
sbsI1
g0
(g74
g2
Ntp84
Rp85
(dp86
g78
g79
sg80
F4.312237420042258
sg81
F1.0
sg15
I1
sg82
g83
sbsI2
g0
(g74
g2
Ntp87
Rp88
(dp89
g78
g79
sg80
F1.310195858111557
sg81
F1.0
sg15
I2
sg82
g83
sbsI3
g0
(g74
g2
Ntp90
Rp91
(dp92
g78
g79
sg80
F-1.387202978006571
sg81
F1.0
sg15
I3
sg82
g83
sbsI801
g0
(g74
g2
Ntp93
Rp94
(dp95
g78
g79
sg80
F0.5791973762712488
sg81
F1.0
sg15
I801
sg82
g83
sbsI617
g0
(g74
g2
Ntp96
Rp97
(dp98
g78
g79
sg80
F0.07367879743392253
sg81
F1.0
sg15
I617
sg82
g83
sbsI875
g0
(g74
g2
Ntp99
Rp100
(dp101
g78
g79
sg80
F-2.186460377515074
sg81
F1.0
sg15
I875
sg82
g83
sbsI848
g0
(g74
g2
Ntp102
Rp103
(dp104
g78
g79
sg80
F0.44317514777918904
sg81
F1.0
sg15
I848
sg82
g83
sbsI789
g0
(g74
g2
Ntp105
Rp106
(dp107
g78
g79
sg80
F1.5020960451725558
sg81
F1.0
sg15
I789
sg82
g83
sbsI823
g0
(g74
g2
Ntp108
Rp109
(dp110
g78
g79
sg80
F0.296299310596998
sg81
F1.0
sg15
I823
sg82
g83
sbsI734
g0
(g74
g2
Ntp111
Rp112
(dp113
g78
g79
sg80
F2.381365443216776
sg81
F1.0
sg15
I734
sg82
g83
sbssg15
I4579
sS'fitness'
p114
cnumpy.core.multiarray
scalar
p115
(cnumpy
dtype
p116
(S'f8'
p117
I0
I1
tp118
Rp119
(I3
S'<'
p120
NNNI-1
I-1
I0
tp121
bS'\xafn\x0b\xb6}\x16&\xc0'
p122
tp123
Rp124
sb.