ccopy_reg
_reconstructor
p0
(cneat.genome
DefaultGenome
p1
c__builtin__
object
p2
Ntp3
Rp4
(dp5
S'connections'
p6
(dp7
(I1556
I1303
tp8
g0
(cneat.genes
DefaultConnectionGene
p9
g2
Ntp10
Rp11
(dp12
S'enabled'
p13
I01
sS'weight'
p14
F0.053799257685005354
sS'key'
p15
g8
sbs(I-2
I0
tp16
g0
(g9
g2
Ntp17
Rp18
(dp19
g13
I01
sg14
F-4.949114479215172
sg15
g16
sbs(I-1
I3
tp20
g0
(g9
g2
Ntp21
Rp22
(dp23
g13
I01
sg14
F-0.3598387073819056
sg15
g20
sbs(I-2
I1556
tp24
g0
(g9
g2
Ntp25
Rp26
(dp27
g13
I01
sg14
F0.4263066787879791
sg15
g24
sbs(I-2
I2
tp28
g0
(g9
g2
Ntp29
Rp30
(dp31
g13
I01
sg14
F10.49859136216772
sg15
g28
sbs(I-2
I1303
tp32
g0
(g9
g2
Ntp33
Rp34
(dp35
g13
I00
sg14
F0.20625772687684202
sg15
g32
sbs(I1303
I2
tp36
g0
(g9
g2
Ntp37
Rp38
(dp39
g13
I01
sg14
F8.225959098310595
sg15
g36
sbs(I985
I0
tp40
g0
(g9
g2
Ntp41
Rp42
(dp43
g13
I00
sg14
F0.5313917928005916
sg15
g40
sbs(I-1
I985
tp44
g0
(g9
g2
Ntp45
Rp46
(dp47
g13
I01
sg14
F-0.5005837555555952
sg15
g44
sbs(I985
I3
tp48
g0
(g9
g2
Ntp49
Rp50
(dp51
g13
I01
sg14
F1.0413522816658118
sg15
g48
sbssS'nodes'
p52
(dp53
I0
g0
(cneat.genes
DefaultNodeGene
p54
g2
Ntp55
Rp56
(dp57
S'activation'
p58
S'sigmoid'
p59
sS'bias'
p60
F-0.13763137195290315
sS'response'
p61
F1.0
sg15
I0
sS'aggregation'
p62
S'sum'
p63
sbsI1
g0
(g54
g2
Ntp64
Rp65
(dp66
g58
g59
sg60
F0.7075134816835473
sg61
F1.0
sg15
I1
sg62
g63
sbsI2
g0
(g54
g2
Ntp67
Rp68
(dp69
g58
g59
sg60
F0.31976967231771186
sg61
F1.0
sg15
I2
sg62
g63
sbsI3
g0
(g54
g2
Ntp70
Rp71
(dp72
g58
g59
sg60
F-0.4747774697756595
sg61
F1.0
sg15
I3
sg62
g63
sbsI1556
g0
(g54
g2
Ntp73
Rp74
(dp75
g58
g59
sg60
F2.105463721386723
sg61
F1.0
sg15
I1556
sg62
g63
sbsI1303
g0
(g54
g2
Ntp76
Rp77
(dp78
g58
g59
sg60
F-0.35153015557729733
sg61
F1.0
sg15
I1303
sg62
g63
sbsI985
g0
(g54
g2
Ntp79
Rp80
(dp81
g58
g59
sg60
F-0.1736993819158707
sg61
F1.0
sg15
I985
sg62
g63
sbssg15
I4671
sS'fitness'
p82
cnumpy.core.multiarray
scalar
p83
(cnumpy
dtype
p84
(S'f8'
p85
I0
I1
tp86
Rp87
(I3
S'<'
p88
NNNI-1
I-1
I0
tp89
bS'3\xc6/\x87\xe75\xd2\xbf'
p90
tp91
Rp92
sb.