ccopy_reg
_reconstructor
p0
(cneat.genome
DefaultGenome
p1
c__builtin__
object
p2
Ntp3
Rp4
(dp5
S'connections'
p6
(dp7
(I35784
I27801
tp8
g0
(cneat.genes
DefaultConnectionGene
p9
g2
Ntp10
Rp11
(dp12
S'enabled'
p13
I00
sS'weight'
p14
F0.9108484172759164
sS'key'
p15
g8
sbs(I40060
I53759
tp16
g0
(g9
g2
Ntp17
Rp18
(dp19
g13
I00
sg14
F2.6759266734637883
sg15
g16
sbs(I3663
I48696
tp20
g0
(g9
g2
Ntp21
Rp22
(dp23
g13
I01
sg14
F-1.76635020958414
sg15
g20
sbs(I25473
I44524
tp24
g0
(g9
g2
Ntp25
Rp26
(dp27
g13
I01
sg14
F1.1342524562236376
sg15
g24
sbs(I-4
I21181
tp28
g0
(g9
g2
Ntp29
Rp30
(dp31
g13
I01
sg14
F-0.8328912865945961
sg15
g28
sbs(I61683
I58503
tp32
g0
(g9
g2
Ntp33
Rp34
(dp35
g13
I01
sg14
F0.7000345086276462
sg15
g32
sbs(I56126
I38345
tp36
g0
(g9
g2
Ntp37
Rp38
(dp39
g13
I01
sg14
F1.0049884288754782
sg15
g36
sbs(I16460
I11212
tp40
g0
(g9
g2
Ntp41
Rp42
(dp43
g13
I01
sg14
F1.2078249416748528
sg15
g40
sbs(I54480
I34813
tp44
g0
(g9
g2
Ntp45
Rp46
(dp47
g13
I00
sg14
F0.6960051532351389
sg15
g44
sbs(I38345
I42729
tp48
g0
(g9
g2
Ntp49
Rp50
(dp51
g13
I00
sg14
F2.157660136253738
sg15
g48
sbs(I29748
I39563
tp52
g0
(g9
g2
Ntp53
Rp54
(dp55
g13
I01
sg14
F-1.5930716801859213
sg15
g52
sbs(I44524
I47768
tp56
g0
(g9
g2
Ntp57
Rp58
(dp59
g13
I00
sg14
F0.18916550848124142
sg15
g56
sbs(I30660
I15034
tp60
g0
(g9
g2
Ntp61
Rp62
(dp63
g13
I01
sg14
F-1.0343112677269513
sg15
g60
sbs(I31601
I16460
tp64
g0
(g9
g2
Ntp65
Rp66
(dp67
g13
I01
sg14
F0.5537669298959472
sg15
g64
sbs(I11212
I54480
tp68
g0
(g9
g2
Ntp69
Rp70
(dp71
g13
I01
sg14
F1.1721449072593821
sg15
g68
sbs(I0
I36543
tp72
g0
(g9
g2
Ntp73
Rp74
(dp75
g13
I00
sg14
F-0.8603912378017703
sg15
g72
sbs(I29748
I32210
tp76
g0
(g9
g2
Ntp77
Rp78
(dp79
g13
I00
sg14
F-0.3510961521367541
sg15
g76
sbs(I47717
I40060
tp80
g0
(g9
g2
Ntp81
Rp82
(dp83
g13
I01
sg14
F3.5484160010857706
sg15
g80
sbs(I31346
I56126
tp84
g0
(g9
g2
Ntp85
Rp86
(dp87
g13
I00
sg14
F-0.050604391046107366
sg15
g84
sbs(I56645
I34813
tp88
g0
(g9
g2
Ntp89
Rp90
(dp91
g13
I01
sg14
F0.9089271185021246
sg15
g88
sbs(I41191
I53026
tp92
g0
(g9
g2
Ntp93
Rp94
(dp95
g13
I00
sg14
F-1.0725433927258665
sg15
g92
sbs(I57174
I27801
tp96
g0
(g9
g2
Ntp97
Rp98
(dp99
g13
I00
sg14
F2.1360209174346845
sg15
g96
sbs(I48696
I49725
tp100
g0
(g9
g2
Ntp101
Rp102
(dp103
g13
I00
sg14
F3.959370281040156
sg15
g100
sbs(I25306
I15777
tp104
g0
(g9
g2
Ntp105
Rp106
(dp107
g13
I01
sg14
F2.4415843913884485
sg15
g104
sbs(I58146
I42729
tp108
g0
(g9
g2
Ntp109
Rp110
(dp111
g13
I01
sg14
F-0.23090067767000383
sg15
g108
sbs(I27514
I16282
tp112
g0
(g9
g2
Ntp113
Rp114
(dp115
g13
I00
sg14
F-1.0769193468210254
sg15
g112
sbs(I6909
I2334
tp116
g0
(g9
g2
Ntp117
Rp118
(dp119
g13
I01
sg14
F-0.989245745627995
sg15
g116
sbs(I44097
I52589
tp120
g0
(g9
g2
Ntp121
Rp122
(dp123
g13
I01
sg14
F-0.5413940110011185
sg15
g120
sbs(I20353
I61582
tp124
g0
(g9
g2
Ntp125
Rp126
(dp127
g13
I00
sg14
F-0.0684580407765249
sg15
g124
sbs(I38297
I39079
tp128
g0
(g9
g2
Ntp129
Rp130
(dp131
g13
I00
sg14
F0.21747198513523136
sg15
g128
sbs(I33604
I16378
tp132
g0
(g9
g2
Ntp133
Rp134
(dp135
g13
I00
sg14
F-1.4341842925488448
sg15
g132
sbs(I16709
I15034
tp136
g0
(g9
g2
Ntp137
Rp138
(dp139
g13
I01
sg14
F0.9709904975833707
sg15
g136
sbs(I40060
I11534
tp140
g0
(g9
g2
Ntp141
Rp142
(dp143
g13
I00
sg14
F4.545533257256888
sg15
g140
sbs(I59602
I38345
tp144
g0
(g9
g2
Ntp145
Rp146
(dp147
g13
I00
sg14
F-0.026003388758998325
sg15
g144
sbs(I2
I33410
tp148
g0
(g9
g2
Ntp149
Rp150
(dp151
g13
I00
sg14
F-2.930982936711442
sg15
g148
sbs(I51758
I40232
tp152
g0
(g9
g2
Ntp153
Rp154
(dp155
g13
I01
sg14
F4.868823600583005
sg15
g152
sbs(I2334
I11212
tp156
g0
(g9
g2
Ntp157
Rp158
(dp159
g13
I00
sg14
F-2.3209193949331124
sg15
g156
sbs(I33604
I58503
tp160
g0
(g9
g2
Ntp161
Rp162
(dp163
g13
I00
sg14
F4.748454725525733
sg15
g160
sbs(I59811
I1
tp164
g0
(g9
g2
Ntp165
Rp166
(dp167
g13
I01
sg14
F0.6190934225126415
sg15
g164
sbs(I18649
I31601
tp168
g0
(g9
g2
Ntp169
Rp170
(dp171
g13
I00
sg14
F1.7221890030366556
sg15
g168
sbs(I18649
I22308
tp172
g0
(g9
g2
Ntp173
Rp174
(dp175
g13
I01
sg14
F1.765998662536465
sg15
g172
sbs(I36691
I6909
tp176
g0
(g9
g2
Ntp177
Rp178
(dp179
g13
I01
sg14
F2.5544746248807533
sg15
g176
sbs(I38345
I58146
tp180
g0
(g9
g2
Ntp181
Rp182
(dp183
g13
I01
sg14
F-0.10231502980672802
sg15
g180
sbs(I47943
I62811
tp184
g0
(g9
g2
Ntp185
Rp186
(dp187
g13
I01
sg14
F-0.04031907829482939
sg15
g184
sbs(I33169
I17952
tp188
g0
(g9
g2
Ntp189
Rp190
(dp191
g13
I00
sg14
F-0.43299522601713825
sg15
g188
sbs(I27514
I39446
tp192
g0
(g9
g2
Ntp193
Rp194
(dp195
g13
I00
sg14
F-0.3835610827885008
sg15
g192
sbs(I38345
I39446
tp196
g0
(g9
g2
Ntp197
Rp198
(dp199
g13
I00
sg14
F0.9716530948237831
sg15
g196
sbs(I53026
I61044
tp200
g0
(g9
g2
Ntp201
Rp202
(dp203
g13
I00
sg14
F0.7997119380561651
sg15
g200
sbs(I37749
I58056
tp204
g0
(g9
g2
Ntp205
Rp206
(dp207
g13
I00
sg14
F0.8538797933776001
sg15
g204
sbs(I57885
I16502
tp208
g0
(g9
g2
Ntp209
Rp210
(dp211
g13
I01
sg14
F-1.9636553144969053
sg15
g208
sbs(I-3
I1
tp212
g0
(g9
g2
Ntp213
Rp214
(dp215
g13
I01
sg14
F-0.7784032871428673
sg15
g212
sbs(I64622
I44097
tp216
g0
(g9
g2
Ntp217
Rp218
(dp219
g13
I01
sg14
F-0.7653722625483564
sg15
g216
sbs(I41191
I53925
tp220
g0
(g9
g2
Ntp221
Rp222
(dp223
g13
I00
sg14
F1.3154392156254266
sg15
g220
sbs(I22062
I36463
tp224
g0
(g9
g2
Ntp225
Rp226
(dp227
g13
I00
sg14
F-0.10223064136409105
sg15
g224
sbs(I32509
I38297
tp228
g0
(g9
g2
Ntp229
Rp230
(dp231
g13
I00
sg14
F-1.5539165522200973
sg15
g228
sbs(I6909
I13070
tp232
g0
(g9
g2
Ntp233
Rp234
(dp235
g13
I00
sg14
F0.21874559383130282
sg15
g232
sbs(I16378
I34928
tp236
g0
(g9
g2
Ntp237
Rp238
(dp239
g13
I01
sg14
F1.4089905911081855
sg15
g236
sbs(I41191
I57273
tp240
g0
(g9
g2
Ntp241
Rp242
(dp243
g13
I01
sg14
F-0.39470142647846185
sg15
g240
sbs(I2
I57584
tp244
g0
(g9
g2
Ntp245
Rp246
(dp247
g13
I01
sg14
F-0.4390195000174518
sg15
g244
sbs(I45205
I39055
tp248
g0
(g9
g2
Ntp249
Rp250
(dp251
g13
I01
sg14
F0.811157567714567
sg15
g248
sbs(I16709
I25290
tp252
g0
(g9
g2
Ntp253
Rp254
(dp255
g13
I01
sg14
F-2.2216055215020645
sg15
g252
sbs(I53925
I34928
tp256
g0
(g9
g2
Ntp257
Rp258
(dp259
g13
I01
sg14
F-1.7362136229233556
sg15
g256
sbs(I20353
I49527
tp260
g0
(g9
g2
Ntp261
Rp262
(dp263
g13
I00
sg14
F0.5662001060897917
sg15
g260
sbs(I58851
I15777
tp264
g0
(g9
g2
Ntp265
Rp266
(dp267
g13
I00
sg14
F-3.4013011899374415
sg15
g264
sbs(I64054
I40335
tp268
g0
(g9
g2
Ntp269
Rp270
(dp271
g13
I00
sg14
F-1.9015924503898076
sg15
g268
sbs(I39764
I2334
tp272
g0
(g9
g2
Ntp273
Rp274
(dp275
g13
I00
sg14
F-0.8067794111055334
sg15
g272
sbs(I-3
I51403
tp276
g0
(g9
g2
Ntp277
Rp278
(dp279
g13
I00
sg14
F0.8267515825712429
sg15
g276
sbs(I33032
I42729
tp280
g0
(g9
g2
Ntp281
Rp282
(dp283
g13
I00
sg14
F-2.5737426676657282
sg15
g280
sbs(I57808
I42729
tp284
g0
(g9
g2
Ntp285
Rp286
(dp287
g13
I01
sg14
F0.8813774593440351
sg15
g284
sbs(I31601
I45944
tp288
g0
(g9
g2
Ntp289
Rp290
(dp291
g13
I01
sg14
F-1.8086496486751042
sg15
g288
sbs(I47768
I34168
tp292
g0
(g9
g2
Ntp293
Rp294
(dp295
g13
I01
sg14
F-1.2268994540771885
sg15
g292
sbs(I39446
I47943
tp296
g0
(g9
g2
Ntp297
Rp298
(dp299
g13
I00
sg14
F2.229692011643536
sg15
g296
sbs(I21972
I45224
tp300
g0
(g9
g2
Ntp301
Rp302
(dp303
g13
I01
sg14
F0.4320576062065944
sg15
g300
sbs(I17094
I57819
tp304
g0
(g9
g2
Ntp305
Rp306
(dp307
g13
I01
sg14
F-0.14876369767862951
sg15
g304
sbs(I-4
I16282
tp308
g0
(g9
g2
Ntp309
Rp310
(dp311
g13
I00
sg14
F-0.3607997906473105
sg15
g308
sbs(I25306
I36269
tp312
g0
(g9
g2
Ntp313
Rp314
(dp315
g13
I00
sg14
F-0.395235626301492
sg15
g312
sbs(I18649
I57020
tp316
g0
(g9
g2
Ntp317
Rp318
(dp319
g13
I00
sg14
F0.922893569136919
sg15
g316
sbs(I46429
I48379
tp320
g0
(g9
g2
Ntp321
Rp322
(dp323
g13
I01
sg14
F-1.6229443764200397
sg15
g320
sbs(I33604
I34813
tp324
g0
(g9
g2
Ntp325
Rp326
(dp327
g13
I00
sg14
F1.3629992078444984
sg15
g324
sbs(I15069
I46599
tp328
g0
(g9
g2
Ntp329
Rp330
(dp331
g13
I01
sg14
F-3.2021014376604615
sg15
g328
sbs(I54836
I21817
tp332
g0
(g9
g2
Ntp333
Rp334
(dp335
g13
I01
sg14
F1.4317610441723978
sg15
g332
sbs(I31601
I38345
tp336
g0
(g9
g2
Ntp337
Rp338
(dp339
g13
I01
sg14
F-0.43231249193339766
sg15
g336
sbs(I33604
I61683
tp340
g0
(g9
g2
Ntp341
Rp342
(dp343
g13
I01
sg14
F0.6398599976024115
sg15
g340
sbs(I22308
I27880
tp344
g0
(g9
g2
Ntp345
Rp346
(dp347
g13
I00
sg14
F0.7245044825081093
sg15
g344
sbs(I2334
I3
tp348
g0
(g9
g2
Ntp349
Rp350
(dp351
g13
I00
sg14
F3.8533429817864047
sg15
g348
sbs(I45505
I34928
tp352
g0
(g9
g2
Ntp353
Rp354
(dp355
g13
I01
sg14
F-1.0240236827419247
sg15
g352
sbs(I39055
I39446
tp356
g0
(g9
g2
Ntp357
Rp358
(dp359
g13
I01
sg14
F-0.38645828241914715
sg15
g356
sbs(I15069
I39563
tp360
g0
(g9
g2
Ntp361
Rp362
(dp363
g13
I01
sg14
F1.1407831448824837
sg15
g360
sbs(I11212
I16709
tp364
g0
(g9
g2
Ntp365
Rp366
(dp367
g13
I00
sg14
F-1.4593220437508843
sg15
g364
sbs(I54640
I39446
tp368
g0
(g9
g2
Ntp369
Rp370
(dp371
g13
I01
sg14
F1.1856204772547545
sg15
g368
sbs(I63053
I59164
tp372
g0
(g9
g2
Ntp373
Rp374
(dp375
g13
I01
sg14
F0.8918351662263091
sg15
g372
sbs(I0
I16709
tp376
g0
(g9
g2
Ntp377
Rp378
(dp379
g13
I00
sg14
F2.627794901129858
sg15
g376
sbs(I34928
I39764
tp380
g0
(g9
g2
Ntp381
Rp382
(dp383
g13
I01
sg14
F1.7072939559607994
sg15
g380
sbs(I16094
I36463
tp384
g0
(g9
g2
Ntp385
Rp386
(dp387
g13
I00
sg14
F0.4180996983467973
sg15
g384
sbs(I25473
I9214
tp388
g0
(g9
g2
Ntp389
Rp390
(dp391
g13
I00
sg14
F-0.6525335131360565
sg15
g388
sbs(I33604
I6027
tp392
g0
(g9
g2
Ntp393
Rp394
(dp395
g13
I00
sg14
F-3.385173281488029
sg15
g392
sbs(I45224
I9860
tp396
g0
(g9
g2
Ntp397
Rp398
(dp399
g13
I00
sg14
F-2.7838002067166445
sg15
g396
sbs(I-1
I16460
tp400
g0
(g9
g2
Ntp401
Rp402
(dp403
g13
I00
sg14
F0.6569494447440021
sg15
g400
sbs(I-1
I1
tp404
g0
(g9
g2
Ntp405
Rp406
(dp407
g13
I00
sg14
F-3.335768559565389
sg15
g404
sbs(I54115
I56241
tp408
g0
(g9
g2
Ntp409
Rp410
(dp411
g13
I00
sg14
F-2.9988430566718316
sg15
g408
sbs(I-3
I6909
tp412
g0
(g9
g2
Ntp413
Rp414
(dp415
g13
I00
sg14
F-1.0701452873914068
sg15
g412
sbs(I34168
I33255
tp416
g0
(g9
g2
Ntp417
Rp418
(dp419
g13
I01
sg14
F-2.773764180089704
sg15
g416
sbs(I45293
I33604
tp420
g0
(g9
g2
Ntp421
Rp422
(dp423
g13
I01
sg14
F2.126020799847722
sg15
g420
sbs(I-1
I58056
tp424
g0
(g9
g2
Ntp425
Rp426
(dp427
g13
I01
sg14
F-2.574971598592505
sg15
g424
sbs(I54115
I16460
tp428
g0
(g9
g2
Ntp429
Rp430
(dp431
g13
I00
sg14
F1.5412432412684685
sg15
g428
sbs(I34813
I6027
tp432
g0
(g9
g2
Ntp433
Rp434
(dp435
g13
I00
sg14
F2.214080809879688
sg15
g432
sbs(I-3
I30262
tp436
g0
(g9
g2
Ntp437
Rp438
(dp439
g13
I00
sg14
F-1.5445389284784148
sg15
g436
sbs(I39563
I42039
tp440
g0
(g9
g2
Ntp441
Rp442
(dp443
g13
I00
sg14
F0.5278977197716181
sg15
g440
sbs(I16502
I53593
tp444
g0
(g9
g2
Ntp445
Rp446
(dp447
g13
I01
sg14
F-0.8131647495230286
sg15
g444
sbs(I47943
I47717
tp448
g0
(g9
g2
Ntp449
Rp450
(dp451
g13
I00
sg14
F-0.398630411440271
sg15
g448
sbs(I57020
I20353
tp452
g0
(g9
g2
Ntp453
Rp454
(dp455
g13
I01
sg14
F-0.9526639581460494
sg15
g452
sbs(I45505
I46141
tp456
g0
(g9
g2
Ntp457
Rp458
(dp459
g13
I00
sg14
F-1.7734758307470784
sg15
g456
sbs(I36543
I2334
tp460
g0
(g9
g2
Ntp461
Rp462
(dp463
g13
I00
sg14
F1.2495726095606101
sg15
g460
sbs(I28175
I59728
tp464
g0
(g9
g2
Ntp465
Rp466
(dp467
g13
I00
sg14
F-0.17423093768822662
sg15
g464
sbs(I43393
I34305
tp468
g0
(g9
g2
Ntp469
Rp470
(dp471
g13
I01
sg14
F0.766096964579955
sg15
g468
sbs(I63660
I27880
tp472
g0
(g9
g2
Ntp473
Rp474
(dp475
g13
I01
sg14
F-1.4034209547681185
sg15
g472
sbs(I62416
I56241
tp476
g0
(g9
g2
Ntp477
Rp478
(dp479
g13
I01
sg14
F-0.2695244825705939
sg15
g476
sbs(I43393
I47768
tp480
g0
(g9
g2
Ntp481
Rp482
(dp483
g13
I01
sg14
F-1.3751158019147367
sg15
g480
sbs(I21181
I33255
tp484
g0
(g9
g2
Ntp485
Rp486
(dp487
g13
I00
sg14
F2.3721751771690927
sg15
g484
sbs(I62416
I49725
tp488
g0
(g9
g2
Ntp489
Rp490
(dp491
g13
I00
sg14
F1.1304837787499953
sg15
g488
sbs(I40125
I21972
tp492
g0
(g9
g2
Ntp493
Rp494
(dp495
g13
I01
sg14
F0.037371742893956644
sg15
g492
sbs(I39055
I64054
tp496
g0
(g9
g2
Ntp497
Rp498
(dp499
g13
I01
sg14
F1.1263906594790016
sg15
g496
sbs(I47768
I13070
tp500
g0
(g9
g2
Ntp501
Rp502
(dp503
g13
I01
sg14
F0.042707392435123503
sg15
g500
sbs(I18649
I15034
tp504
g0
(g9
g2
Ntp505
Rp506
(dp507
g13
I00
sg14
F-1.8890408431228223
sg15
g504
sbs(I-3
I20353
tp508
g0
(g9
g2
Ntp509
Rp510
(dp511
g13
I00
sg14
F0.9826733248445247
sg15
g508
sbs(I-1
I3
tp512
g0
(g9
g2
Ntp513
Rp514
(dp515
g13
I01
sg14
F-1.8124456575330434
sg15
g512
sbs(I-4
I54836
tp516
g0
(g9
g2
Ntp517
Rp518
(dp519
g13
I00
sg14
F2.5860902756553297
sg15
g516
sbs(I64078
I51023
tp520
g0
(g9
g2
Ntp521
Rp522
(dp523
g13
I00
sg14
F-1.4737177121833613
sg15
g520
sbs(I-3
I45293
tp524
g0
(g9
g2
Ntp525
Rp526
(dp527
g13
I00
sg14
F-0.25165171255910157
sg15
g524
sbs(I54701
I6027
tp528
g0
(g9
g2
Ntp529
Rp530
(dp531
g13
I00
sg14
F-0.4433399277348799
sg15
g528
sbs(I54640
I13070
tp532
g0
(g9
g2
Ntp533
Rp534
(dp535
g13
I01
sg14
F-0.2897409295391292
sg15
g532
sbs(I1228
I46429
tp536
g0
(g9
g2
Ntp537
Rp538
(dp539
g13
I00
sg14
F-1.0937560296761304
sg15
g536
sbs(I34134
I36343
tp540
g0
(g9
g2
Ntp541
Rp542
(dp543
g13
I01
sg14
F0.25635458202858485
sg15
g540
sbs(I3663
I25473
tp544
g0
(g9
g2
Ntp545
Rp546
(dp547
g13
I01
sg14
F1.7151320087245383
sg15
g544
sbs(I61373
I33604
tp548
g0
(g9
g2
Ntp549
Rp550
(dp551
g13
I01
sg14
F3.08687847858186
sg15
g548
sbs(I46141
I34928
tp552
g0
(g9
g2
Ntp553
Rp554
(dp555
g13
I00
sg14
F-1.5370110070182426
sg15
g552
sbs(I51403
I45293
tp556
g0
(g9
g2
Ntp557
Rp558
(dp559
g13
I01
sg14
F1.338481202561639
sg15
g556
sbs(I31601
I63470
tp560
g0
(g9
g2
Ntp561
Rp562
(dp563
g13
I01
sg14
F-2.936725167616341
sg15
g560
sbs(I43393
I34168
tp564
g0
(g9
g2
Ntp565
Rp566
(dp567
g13
I00
sg14
F-1.0147057025530377
sg15
g564
sbs(I21972
I9860
tp568
g0
(g9
g2
Ntp569
Rp570
(dp571
g13
I01
sg14
F2.675979236035849
sg15
g568
sbs(I31601
I15334
tp572
g0
(g9
g2
Ntp573
Rp574
(dp575
g13
I01
sg14
F3.747839050030012
sg15
g572
sbs(I45985
I44524
tp576
g0
(g9
g2
Ntp577
Rp578
(dp579
g13
I01
sg14
F-0.3894361412730566
sg15
g576
sbs(I2334
I64622
tp580
g0
(g9
g2
Ntp581
Rp582
(dp583
g13
I00
sg14
F-0.750955584813938
sg15
g580
sbs(I22308
I15034
tp584
g0
(g9
g2
Ntp585
Rp586
(dp587
g13
I00
sg14
F0.07469355944823117
sg15
g584
sbs(I22308
I52719
tp588
g0
(g9
g2
Ntp589
Rp590
(dp591
g13
I01
sg14
F0.9925659378893619
sg15
g588
sbs(I57819
I11212
tp592
g0
(g9
g2
Ntp593
Rp594
(dp595
g13
I01
sg14
F0.9867958750078281
sg15
g592
sbs(I33617
I15777
tp596
g0
(g9
g2
Ntp597
Rp598
(dp599
g13
I01
sg14
F0.6198659976804894
sg15
g596
sbs(I18649
I55719
tp600
g0
(g9
g2
Ntp601
Rp602
(dp603
g13
I00
sg14
F-1.104652103374539
sg15
g600
sbs(I18649
I62962
tp604
g0
(g9
g2
Ntp605
Rp606
(dp607
g13
I01
sg14
F-0.33731621429369646
sg15
g604
sbs(I26961
I3
tp608
g0
(g9
g2
Ntp609
Rp610
(dp611
g13
I00
sg14
F-3.3275415592977513
sg15
g608
sbs(I28175
I62911
tp612
g0
(g9
g2
Ntp613
Rp614
(dp615
g13
I00
sg14
F-2.859731698924441
sg15
g612
sbs(I21181
I63053
tp616
g0
(g9
g2
Ntp617
Rp618
(dp619
g13
I00
sg14
F-0.13958833623420136
sg15
g616
sbs(I-4
I48379
tp620
g0
(g9
g2
Ntp621
Rp622
(dp623
g13
I01
sg14
F-1.2557661963718731
sg15
g620
sbs(I53593
I44837
tp624
g0
(g9
g2
Ntp625
Rp626
(dp627
g13
I00
sg14
F0.4582485200794231
sg15
g624
sbs(I-1
I52979
tp628
g0
(g9
g2
Ntp629
Rp630
(dp631
g13
I00
sg14
F3.2466615051654415
sg15
g628
sbs(I27514
I32210
tp632
g0
(g9
g2
Ntp633
Rp634
(dp635
g13
I01
sg14
F-0.9600755439489108
sg15
g632
sbs(I22308
I63660
tp636
g0
(g9
g2
Ntp637
Rp638
(dp639
g13
I01
sg14
F-4.72167145017507
sg15
g636
sbs(I54480
I13070
tp640
g0
(g9
g2
Ntp641
Rp642
(dp643
g13
I01
sg14
F-0.12127723723778155
sg15
g640
sbs(I44036
I6909
tp644
g0
(g9
g2
Ntp645
Rp646
(dp647
g13
I01
sg14
F0.5966597259942312
sg15
g644
sbs(I1228
I58146
tp648
g0
(g9
g2
Ntp649
Rp650
(dp651
g13
I01
sg14
F-2.0202111317193596
sg15
g648
sbs(I21181
I40060
tp652
g0
(g9
g2
Ntp653
Rp654
(dp655
g13
I00
sg14
F-3.688197013033229
sg15
g652
sbs(I48379
I6027
tp656
g0
(g9
g2
Ntp657
Rp658
(dp659
g13
I01
sg14
F1.2236338206666093
sg15
g656
sbs(I47717
I21706
tp660
g0
(g9
g2
Ntp661
Rp662
(dp663
g13
I01
sg14
F0.4872342609800058
sg15
g660
sbs(I22308
I25094
tp664
g0
(g9
g2
Ntp665
Rp666
(dp667
g13
I00
sg14
F-0.14728367792966907
sg15
g664
sbs(I18649
I39140
tp668
g0
(g9
g2
Ntp669
Rp670
(dp671
g13
I01
sg14
F-0.7037905438106495
sg15
g668
sbs(I52589
I3
tp672
g0
(g9
g2
Ntp673
Rp674
(dp675
g13
I00
sg14
F-1.5847169427754855
sg15
g672
sbs(I52589
I58958
tp676
g0
(g9
g2
Ntp677
Rp678
(dp679
g13
I01
sg14
F-4.421069861319126
sg15
g676
sbs(I53925
I9860
tp680
g0
(g9
g2
Ntp681
Rp682
(dp683
g13
I01
sg14
F-1.0716496787838068
sg15
g680
sbs(I34168
I22308
tp684
g0
(g9
g2
Ntp685
Rp686
(dp687
g13
I00
sg14
F1.4830613181917718
sg15
g684
sbs(I52812
I41541
tp688
g0
(g9
g2
Ntp689
Rp690
(dp691
g13
I01
sg14
F0.04039985375701996
sg15
g688
sbs(I21181
I1
tp692
g0
(g9
g2
Ntp693
Rp694
(dp695
g13
I01
sg14
F-1.6217972933936402
sg15
g692
sbs(I58503
I41541
tp696
g0
(g9
g2
Ntp697
Rp698
(dp699
g13
I01
sg14
F-1.9327122834561632
sg15
g696
sbs(I11534
I51023
tp700
g0
(g9
g2
Ntp701
Rp702
(dp703
g13
I01
sg14
F2.1253520603205427
sg15
g700
sbs(I38345
I33604
tp704
g0
(g9
g2
Ntp705
Rp706
(dp707
g13
I00
sg14
F0.1326866632037873
sg15
g704
sbs(I57174
I17094
tp708
g0
(g9
g2
Ntp709
Rp710
(dp711
g13
I01
sg14
F0.13196688196865258
sg15
g708
sbs(I15777
I32509
tp712
g0
(g9
g2
Ntp713
Rp714
(dp715
g13
I01
sg14
F-1.4157610620135879
sg15
g712
sbs(I40060
I33255
tp716
g0
(g9
g2
Ntp717
Rp718
(dp719
g13
I00
sg14
F0.0835893975817923
sg15
g716
sbs(I53026
I9860
tp720
g0
(g9
g2
Ntp721
Rp722
(dp723
g13
I00
sg14
F0.46092398082572117
sg15
g720
sbs(I-1
I36269
tp724
g0
(g9
g2
Ntp725
Rp726
(dp727
g13
I00
sg14
F0.7100457458263181
sg15
g724
sbs(I36343
I33604
tp728
g0
(g9
g2
Ntp729
Rp730
(dp731
g13
I01
sg14
F-0.22033662915120467
sg15
g728
sbs(I-1
I1228
tp732
g0
(g9
g2
Ntp733
Rp734
(dp735
g13
I01
sg14
F0.4235129774472961
sg15
g732
sbs(I21181
I59164
tp736
g0
(g9
g2
Ntp737
Rp738
(dp739
g13
I00
sg14
F-0.14493574232072515
sg15
g736
sbs(I55585
I3
tp740
g0
(g9
g2
Ntp741
Rp742
(dp743
g13
I00
sg14
F-0.009342997652380558
sg15
g740
sbs(I1
I1228
tp744
g0
(g9
g2
Ntp745
Rp746
(dp747
g13
I01
sg14
F-1.372424057241677
sg15
g744
sbs(I54115
I62416
tp748
g0
(g9
g2
Ntp749
Rp750
(dp751
g13
I01
sg14
F-0.4593126634404096
sg15
g748
sbs(I39446
I16460
tp752
g0
(g9
g2
Ntp753
Rp754
(dp755
g13
I01
sg14
F-3.9917169416855307
sg15
g752
sbs(I28175
I2334
tp756
g0
(g9
g2
Ntp757
Rp758
(dp759
g13
I01
sg14
F-1.4695721828758999
sg15
g756
sbs(I46141
I53759
tp760
g0
(g9
g2
Ntp761
Rp762
(dp763
g13
I00
sg14
F2.6095280810203816
sg15
g760
sbs(I36343
I35784
tp764
g0
(g9
g2
Ntp765
Rp766
(dp767
g13
I01
sg14
F-2.2146343954091696
sg15
g764
sbs(I25473
I31601
tp768
g0
(g9
g2
Ntp769
Rp770
(dp771
g13
I01
sg14
F-1.5081865029704726
sg15
g768
sbs(I47717
I36691
tp772
g0
(g9
g2
Ntp773
Rp774
(dp775
g13
I00
sg14
F-0.018063539910536282
sg15
g772
sbs(I55719
I22308
tp776
g0
(g9
g2
Ntp777
Rp778
(dp779
g13
I00
sg14
F-0.3204506418910931
sg15
g776
sbs(I38297
I61469
tp780
g0
(g9
g2
Ntp781
Rp782
(dp783
g13
I01
sg14
F4.361464569928756
sg15
g780
sbs(I51023
I6909
tp784
g0
(g9
g2
Ntp785
Rp786
(dp787
g13
I01
sg14
F-0.2519728201626401
sg15
g784
sbs(I57885
I3
tp788
g0
(g9
g2
Ntp789
Rp790
(dp791
g13
I01
sg14
F-1.9416023716740314
sg15
g788
sbs(I58958
I3
tp792
g0
(g9
g2
Ntp793
Rp794
(dp795
g13
I00
sg14
F-0.8423811588508787
sg15
g792
sbs(I63470
I38345
tp796
g0
(g9
g2
Ntp797
Rp798
(dp799
g13
I01
sg14
F-1.7669834624119651
sg15
g796
sbs(I59602
I61514
tp800
g0
(g9
g2
Ntp801
Rp802
(dp803
g13
I01
sg14
F0.01986444711242319
sg15
g800
sbs(I36543
I1
tp804
g0
(g9
g2
Ntp805
Rp806
(dp807
g13
I00
sg14
F-0.40375909698704116
sg15
g804
sbs(I34928
I53094
tp808
g0
(g9
g2
Ntp809
Rp810
(dp811
g13
I00
sg14
F-1.0183231057245032
sg15
g808
sbs(I1
I46429
tp812
g0
(g9
g2
Ntp813
Rp814
(dp815
g13
I00
sg14
F-1.7046778337069952
sg15
g812
sbs(I44097
I3
tp816
g0
(g9
g2
Ntp817
Rp818
(dp819
g13
I00
sg14
F0.9645386808988528
sg15
g816
sbs(I47768
I49725
tp820
g0
(g9
g2
Ntp821
Rp822
(dp823
g13
I00
sg14
F3.2217169558987546
sg15
g820
sbs(I16094
I37749
tp824
g0
(g9
g2
Ntp825
Rp826
(dp827
g13
I00
sg14
F-1.2123088126740431
sg15
g824
sbs(I20353
I1
tp828
g0
(g9
g2
Ntp829
Rp830
(dp831
g13
I00
sg14
F1.2545255662323744
sg15
g828
sbs(I57273
I53925
tp832
g0
(g9
g2
Ntp833
Rp834
(dp835
g13
I00
sg14
F0.09987338468859641
sg15
g832
sbs(I39140
I28175
tp836
g0
(g9
g2
Ntp837
Rp838
(dp839
g13
I01
sg14
F0.8459138028967346
sg15
g836
sbs(I40335
I38345
tp840
g0
(g9
g2
Ntp841
Rp842
(dp843
g13
I00
sg14
F5.48243514103835
sg15
g840
sbs(I62962
I39140
tp844
g0
(g9
g2
Ntp845
Rp846
(dp847
g13
I01
sg14
F-1.277480371017599
sg15
g844
sbs(I65193
I59164
tp848
g0
(g9
g2
Ntp849
Rp850
(dp851
g13
I01
sg14
F-0.3494263027906511
sg15
g848
sbs(I41191
I9860
tp852
g0
(g9
g2
Ntp853
Rp854
(dp855
g13
I00
sg14
F0.684780442793631
sg15
g852
sbs(I56279
I3
tp856
g0
(g9
g2
Ntp857
Rp858
(dp859
g13
I01
sg14
F-0.6065292613867781
sg15
g856
sbs(I38345
I57808
tp860
g0
(g9
g2
Ntp861
Rp862
(dp863
g13
I01
sg14
F-1.4637053599708312
sg15
g860
sbs(I16378
I11534
tp864
g0
(g9
g2
Ntp865
Rp866
(dp867
g13
I01
sg14
F-1.8846876530120822
sg15
g864
sbs(I62962
I52979
tp868
g0
(g9
g2
Ntp869
Rp870
(dp871
g13
I01
sg14
F1.7601554780503768
sg15
g868
sbs(I18649
I20353
tp872
g0
(g9
g2
Ntp873
Rp874
(dp875
g13
I00
sg14
F-0.860207501419478
sg15
g872
sbs(I31346
I38345
tp876
g0
(g9
g2
Ntp877
Rp878
(dp879
g13
I00
sg14
F-0.10807472439722708
sg15
g876
sbs(I17094
I11212
tp880
g0
(g9
g2
Ntp881
Rp882
(dp883
g13
I01
sg14
F-3.136812967597252
sg15
g880
sbs(I37749
I16460
tp884
g0
(g9
g2
Ntp885
Rp886
(dp887
g13
I01
sg14
F2.8807374516590736
sg15
g884
sbs(I32210
I25306
tp888
g0
(g9
g2
Ntp889
Rp890
(dp891
g13
I01
sg14
F-2.726742153811852
sg15
g888
sbs(I32509
I33604
tp892
g0
(g9
g2
Ntp893
Rp894
(dp895
g13
I00
sg14
F0.6363600612986189
sg15
g892
sbs(I36343
I16460
tp896
g0
(g9
g2
Ntp897
Rp898
(dp899
g13
I00
sg14
F1.7593259577392817
sg15
g896
sbs(I50464
I40982
tp900
g0
(g9
g2
Ntp901
Rp902
(dp903
g13
I01
sg14
F1.7976030588720415
sg15
g900
sbs(I32955
I25306
tp904
g0
(g9
g2
Ntp905
Rp906
(dp907
g13
I00
sg14
F0.8694807672180822
sg15
g904
sbs(I58503
I34813
tp908
g0
(g9
g2
Ntp909
Rp910
(dp911
g13
I00
sg14
F-1.7191362944190354
sg15
g908
sbs(I38297
I33604
tp912
g0
(g9
g2
Ntp913
Rp914
(dp915
g13
I01
sg14
F1.2777898454260097
sg15
g912
sbs(I9214
I3
tp916
g0
(g9
g2
Ntp917
Rp918
(dp919
g13
I01
sg14
F1.5390024740962047
sg15
g916
sbs(I2
I16094
tp920
g0
(g9
g2
Ntp921
Rp922
(dp923
g13
I01
sg14
F-0.16135175078735445
sg15
g920
sbs(I26961
I55585
tp924
g0
(g9
g2
Ntp925
Rp926
(dp927
g13
I01
sg14
F0.7200844828173172
sg15
g924
sbs(I47717
I63960
tp928
g0
(g9
g2
Ntp929
Rp930
(dp931
g13
I01
sg14
F-2.86442206606512
sg15
g928
sbs(I58851
I63743
tp932
g0
(g9
g2
Ntp933
Rp934
(dp935
g13
I00
sg14
F3.1947556585983206
sg15
g932
sbs(I46531
I25094
tp936
g0
(g9
g2
Ntp937
Rp938
(dp939
g13
I01
sg14
F-0.4073646035197982
sg15
g936
sbs(I11534
I64078
tp940
g0
(g9
g2
Ntp941
Rp942
(dp943
g13
I00
sg14
F-2.458162375871228
sg15
g940
sbs(I33604
I27801
tp944
g0
(g9
g2
Ntp945
Rp946
(dp947
g13
I00
sg14
F0.9274681957041269
sg15
g944
sbs(I17952
I46531
tp948
g0
(g9
g2
Ntp949
Rp950
(dp951
g13
I01
sg14
F6.196401899363811
sg15
g948
sbs(I39764
I45060
tp952
g0
(g9
g2
Ntp953
Rp954
(dp955
g13
I01
sg14
F2.067552008982507
sg15
g952
sbs(I2
I15034
tp956
g0
(g9
g2
Ntp957
Rp958
(dp959
g13
I01
sg14
F0.6418015378724928
sg15
g956
sbs(I9860
I32509
tp960
g0
(g9
g2
Ntp961
Rp962
(dp963
g13
I00
sg14
F-0.05962652217549108
sg15
g960
sbs(I36269
I34305
tp964
g0
(g9
g2
Ntp965
Rp966
(dp967
g13
I00
sg14
F-1.9126319831527658
sg15
g964
sbs(I16502
I21972
tp968
g0
(g9
g2
Ntp969
Rp970
(dp971
g13
I00
sg14
F0.42457160056984267
sg15
g968
sbs(I51999
I33604
tp972
g0
(g9
g2
Ntp973
Rp974
(dp975
g13
I00
sg14
F0.8796639911724958
sg15
g972
sbs(I46683
I51023
tp976
g0
(g9
g2
Ntp977
Rp978
(dp979
g13
I00
sg14
F-2.056849439537396
sg15
g976
sbs(I62811
I47717
tp980
g0
(g9
g2
Ntp981
Rp982
(dp983
g13
I01
sg14
F-1.547746345528476
sg15
g980
sbs(I43281
I9214
tp984
g0
(g9
g2
Ntp985
Rp986
(dp987
g13
I01
sg14
F-1.2334987446506527
sg15
g984
sbs(I2334
I40232
tp988
g0
(g9
g2
Ntp989
Rp990
(dp991
g13
I01
sg14
F-1.1625068095458744
sg15
g988
sbs(I57584
I33410
tp992
g0
(g9
g2
Ntp993
Rp994
(dp995
g13
I00
sg14
F-1.611283646473257
sg15
g992
sbs(I24130
I45293
tp996
g0
(g9
g2
Ntp997
Rp998
(dp999
g13
I00
sg14
F-1.5962149940464003
sg15
g996
sbs(I57273
I48379
tp1000
g0
(g9
g2
Ntp1001
Rp1002
(dp1003
g13
I01
sg14
F0.4235463761929452
sg15
g1000
sbs(I59164
I1
tp1004
g0
(g9
g2
Ntp1005
Rp1006
(dp1007
g13
I00
sg14
F-0.7188768126618506
sg15
g1004
sbs(I54701
I52979
tp1008
g0
(g9
g2
Ntp1009
Rp1010
(dp1011
g13
I00
sg14
F0.016045645061458197
sg15
g1008
sbs(I41541
I34813
tp1012
g0
(g9
g2
Ntp1013
Rp1014
(dp1015
g13
I01
sg14
F1.7881517934673303
sg15
g1012
sbs(I53094
I28175
tp1016
g0
(g9
g2
Ntp1017
Rp1018
(dp1019
g13
I01
sg14
F-1.1787381524750296
sg15
g1016
sbs(I52719
I15034
tp1020
g0
(g9
g2
Ntp1021
Rp1022
(dp1023
g13
I01
sg14
F-1.464172000701868
sg15
g1020
sbs(I24130
I58503
tp1024
g0
(g9
g2
Ntp1025
Rp1026
(dp1027
g13
I00
sg14
F0.4667682790584954
sg15
g1024
sbs(I11534
I35784
tp1028
g0
(g9
g2
Ntp1029
Rp1030
(dp1031
g13
I01
sg14
F2.813809744083377
sg15
g1028
sbs(I1228
I28175
tp1032
g0
(g9
g2
Ntp1033
Rp1034
(dp1035
g13
I01
sg14
F1.4392045394401058
sg15
g1032
sbs(I61469
I39079
tp1036
g0
(g9
g2
Ntp1037
Rp1038
(dp1039
g13
I01
sg14
F-0.5089914111262361
sg15
g1036
sbs(I43281
I25094
tp1040
g0
(g9
g2
Ntp1041
Rp1042
(dp1043
g13
I00
sg14
F-2.02591325966154
sg15
g1040
sbs(I46141
I49725
tp1044
g0
(g9
g2
Ntp1045
Rp1046
(dp1047
g13
I01
sg14
F-1.2403359011996367
sg15
g1044
sbs(I18649
I30660
tp1048
g0
(g9
g2
Ntp1049
Rp1050
(dp1051
g13
I01
sg14
F-2.2929364425817513
sg15
g1048
sbs(I2334
I51758
tp1052
g0
(g9
g2
Ntp1053
Rp1054
(dp1055
g13
I01
sg14
F0.1585741942890606
sg15
g1052
sbs(I58577
I58056
tp1056
g0
(g9
g2
Ntp1057
Rp1058
(dp1059
g13
I01
sg14
F0.32389924924858926
sg15
g1056
sbs(I45944
I39055
tp1060
g0
(g9
g2
Ntp1061
Rp1062
(dp1063
g13
I01
sg14
F1.5061477356894633
sg15
g1060
sbs(I32509
I6027
tp1064
g0
(g9
g2
Ntp1065
Rp1066
(dp1067
g13
I01
sg14
F4.5493371224578345
sg15
g1064
sbs(I25094
I3
tp1068
g0
(g9
g2
Ntp1069
Rp1070
(dp1071
g13
I01
sg14
F1.0228505372405032
sg15
g1068
sbs(I61582
I1
tp1072
g0
(g9
g2
Ntp1073
Rp1074
(dp1075
g13
I01
sg14
F-0.2318612127720604
sg15
g1072
sbs(I1228
I33604
tp1076
g0
(g9
g2
Ntp1077
Rp1078
(dp1079
g13
I00
sg14
F2.0692504485848486
sg15
g1076
sbs(I-3
I2
tp1080
g0
(g9
g2
Ntp1081
Rp1082
(dp1083
g13
I01
sg14
F-1.6950426211312466
sg15
g1080
sbs(I34928
I16282
tp1084
g0
(g9
g2
Ntp1085
Rp1086
(dp1087
g13
I00
sg14
F0.8981885304686541
sg15
g1084
sbs(I2
I18649
tp1088
g0
(g9
g2
Ntp1089
Rp1090
(dp1091
g13
I01
sg14
F-0.5045671194036532
sg15
g1088
sbs(I16460
I15034
tp1092
g0
(g9
g2
Ntp1093
Rp1094
(dp1095
g13
I00
sg14
F-0.3885593914142686
sg15
g1092
sbs(I1228
I61373
tp1096
g0
(g9
g2
Ntp1097
Rp1098
(dp1099
g13
I00
sg14
F-0.9655285634547708
sg15
g1096
sbs(I39055
I38345
tp1100
g0
(g9
g2
Ntp1101
Rp1102
(dp1103
g13
I00
sg14
F-0.6037894028842405
sg15
g1100
sbs(I62911
I2334
tp1104
g0
(g9
g2
Ntp1105
Rp1106
(dp1107
g13
I01
sg14
F-0.4015531876016751
sg15
g1104
sbs(I63743
I15777
tp1108
g0
(g9
g2
Ntp1109
Rp1110
(dp1111
g13
I01
sg14
F1.0837960108078413
sg15
g1108
sbs(I39055
I40335
tp1112
g0
(g9
g2
Ntp1113
Rp1114
(dp1115
g13
I00
sg14
F0.7740127343325918
sg15
g1112
sbs(I61514
I38345
tp1116
g0
(g9
g2
Ntp1117
Rp1118
(dp1119
g13
I01
sg14
F-0.7091085732849314
sg15
g1116
sbs(I44837
I46531
tp1120
g0
(g9
g2
Ntp1121
Rp1122
(dp1123
g13
I01
sg14
F-1.2722548793793327
sg15
g1120
sbs(I49527
I33604
tp1124
g0
(g9
g2
Ntp1125
Rp1126
(dp1127
g13
I00
sg14
F3.563378311828742
sg15
g1124
sbs(I63960
I36691
tp1128
g0
(g9
g2
Ntp1129
Rp1130
(dp1131
g13
I01
sg14
F0.07297603400194608
sg15
g1128
sbs(I-1
I27514
tp1132
g0
(g9
g2
Ntp1133
Rp1134
(dp1135
g13
I01
sg14
F0.9063780250858595
sg15
g1132
sbs(I59983
I34168
tp1136
g0
(g9
g2
Ntp1137
Rp1138
(dp1139
g13
I01
sg14
F1.5038305556194906
sg15
g1136
sbs(I61044
I9860
tp1140
g0
(g9
g2
Ntp1141
Rp1142
(dp1143
g13
I01
sg14
F-1.259503709950988
sg15
g1140
sbs(I33604
I56645
tp1144
g0
(g9
g2
Ntp1145
Rp1146
(dp1147
g13
I00
sg14
F-1.9598938125472132
sg15
g1144
sbs(I2334
I44097
tp1148
g0
(g9
g2
Ntp1149
Rp1150
(dp1151
g13
I01
sg14
F0.20056581235651233
sg15
g1148
sbs(I31346
I46683
tp1152
g0
(g9
g2
Ntp1153
Rp1154
(dp1155
g13
I01
sg14
F-4.176049392632735
sg15
g1152
sbs(I-2
I1
tp1156
g0
(g9
g2
Ntp1157
Rp1158
(dp1159
g13
I00
sg14
F-1.4275628288357214
sg15
g1156
sbs(I21181
I65193
tp1160
g0
(g9
g2
Ntp1161
Rp1162
(dp1163
g13
I01
sg14
F2.0696037263486398
sg15
g1160
sbs(I56126
I45224
tp1164
g0
(g9
g2
Ntp1165
Rp1166
(dp1167
g13
I01
sg14
F0.308845193653964
sg15
g1164
sbs(I36543
I59811
tp1168
g0
(g9
g2
Ntp1169
Rp1170
(dp1171
g13
I01
sg14
F3.108588047925553
sg15
g1168
sbs(I-1
I58577
tp1172
g0
(g9
g2
Ntp1173
Rp1174
(dp1175
g13
I00
sg14
F0.07381014630093766
sg15
g1172
sbs(I-1
I43281
tp1176
g0
(g9
g2
Ntp1177
Rp1178
(dp1179
g13
I00
sg14
F1.047384452215043
sg15
g1176
sbs(I21817
I32955
tp1180
g0
(g9
g2
Ntp1181
Rp1182
(dp1183
g13
I01
sg14
F1.2083294133622249
sg15
g1180
sbs(I64054
I45985
tp1184
g0
(g9
g2
Ntp1185
Rp1186
(dp1187
g13
I01
sg14
F2.001919199391307
sg15
g1184
sbs(I56241
I16460
tp1188
g0
(g9
g2
Ntp1189
Rp1190
(dp1191
g13
I00
sg14
F2.363619391293028
sg15
g1188
sbs(I-4
I0
tp1192
g0
(g9
g2
Ntp1193
Rp1194
(dp1195
g13
I00
sg14
F-0.22739647707230098
sg15
g1192
sbs(I57584
I18649
tp1196
g0
(g9
g2
Ntp1197
Rp1198
(dp1199
g13
I01
sg14
F-1.7151023646133525
sg15
g1196
sbs(I27514
I54640
tp1200
g0
(g9
g2
Ntp1201
Rp1202
(dp1203
g13
I00
sg14
F1.0592034648187143
sg15
g1200
sbs(I47768
I59983
tp1204
g0
(g9
g2
Ntp1205
Rp1206
(dp1207
g13
I00
sg14
F4.312390194283157
sg15
g1204
sbs(I59811
I43482
tp1208
g0
(g9
g2
Ntp1209
Rp1210
(dp1211
g13
I00
sg14
F-0.6786039729196057
sg15
g1208
sbs(I-3
I43482
tp1212
g0
(g9
g2
Ntp1213
Rp1214
(dp1215
g13
I01
sg14
F-1.7716964023684671
sg15
g1212
sbs(I27514
I16460
tp1216
g0
(g9
g2
Ntp1217
Rp1218
(dp1219
g13
I01
sg14
F-0.0825428209910326
sg15
g1216
sbs(I34305
I27801
tp1220
g0
(g9
g2
Ntp1221
Rp1222
(dp1223
g13
I00
sg14
F2.870107943200007
sg15
g1220
sbs(I59728
I2334
tp1224
g0
(g9
g2
Ntp1225
Rp1226
(dp1227
g13
I00
sg14
F0.2775172632196845
sg15
g1224
sbs(I39079
I33604
tp1228
g0
(g9
g2
Ntp1229
Rp1230
(dp1231
g13
I00
sg14
F-1.44427592817371
sg15
g1228
sbs(I31601
I33032
tp1232
g0
(g9
g2
Ntp1233
Rp1234
(dp1235
g13
I01
sg14
F0.7688477557282519
sg15
g1232
sbs(I2334
I37749
tp1236
g0
(g9
g2
Ntp1237
Rp1238
(dp1239
g13
I00
sg14
F0.5382435313120953
sg15
g1236
sbs(I1
I17094
tp1240
g0
(g9
g2
Ntp1241
Rp1242
(dp1243
g13
I00
sg14
F0.3189752180223946
sg15
g1240
sbs(I36343
I51999
tp1244
g0
(g9
g2
Ntp1245
Rp1246
(dp1247
g13
I01
sg14
F-4.046049278134486
sg15
g1244
sbs(I35784
I57174
tp1248
g0
(g9
g2
Ntp1249
Rp1250
(dp1251
g13
I00
sg14
F-2.334473462222464
sg15
g1248
sbs(I9919
I32210
tp1252
g0
(g9
g2
Ntp1253
Rp1254
(dp1255
g13
I01
sg14
F1.4490731474473244
sg15
g1252
sbs(I31601
I44097
tp1256
g0
(g9
g2
Ntp1257
Rp1258
(dp1259
g13
I00
sg14
F0.7575656487015314
sg15
g1256
sbs(I21817
I1228
tp1260
g0
(g9
g2
Ntp1261
Rp1262
(dp1263
g13
I00
sg14
F-1.817831133579664
sg15
g1260
sbs(I45060
I16282
tp1264
g0
(g9
g2
Ntp1265
Rp1266
(dp1267
g13
I01
sg14
F2.5701930268117414
sg15
g1264
sbs(I32509
I36343
tp1268
g0
(g9
g2
Ntp1269
Rp1270
(dp1271
g13
I00
sg14
F1.0398617338919252
sg15
g1268
sbs(I31601
I33604
tp1272
g0
(g9
g2
Ntp1273
Rp1274
(dp1275
g13
I01
sg14
F-0.013497027592548894
sg15
g1272
sbs(I39055
I59602
tp1276
g0
(g9
g2
Ntp1277
Rp1278
(dp1279
g13
I01
sg14
F-0.5681215971944314
sg15
g1276
sbs(I11212
I34813
tp1280
g0
(g9
g2
Ntp1281
Rp1282
(dp1283
g13
I01
sg14
F1.6278409347909903
sg15
g1280
sbs(I46683
I6909
tp1284
g0
(g9
g2
Ntp1285
Rp1286
(dp1287
g13
I00
sg14
F-2.325320717380362
sg15
g1284
sbs(I-4
I21817
tp1288
g0
(g9
g2
Ntp1289
Rp1290
(dp1291
g13
I00
sg14
F-0.9293865345078952
sg15
g1288
sbs(I47768
I21706
tp1292
g0
(g9
g2
Ntp1293
Rp1294
(dp1295
g13
I01
sg14
F0.7408754274971017
sg15
g1292
sbs(I42729
I44524
tp1296
g0
(g9
g2
Ntp1297
Rp1298
(dp1299
g13
I01
sg14
F-0.69646612112236
sg15
g1296
sbs(I31601
I39055
tp1300
g0
(g9
g2
Ntp1301
Rp1302
(dp1303
g13
I01
sg14
F-0.8712952251805985
sg15
g1300
sbssS'nodes'
p1304
(dp1305
I0
g0
(cneat.genes
DefaultNodeGene
p1306
g2
Ntp1307
Rp1308
(dp1309
S'activation'
p1310
S'sigmoid'
p1311
sS'bias'
p1312
F0.6422012267966156
sS'response'
p1313
F1.0
sg15
I0
sS'aggregation'
p1314
S'sum'
p1315
sbsI1
g0
(g1306
g2
Ntp1316
Rp1317
(dp1318
g1310
g1311
sg1312
F0.7381261232089622
sg1313
F1.0
sg15
I1
sg1314
g1315
sbsI2
g0
(g1306
g2
Ntp1319
Rp1320
(dp1321
g1310
g1311
sg1312
F1.2508600194979334
sg1313
F1.0
sg15
I2
sg1314
g1315
sbsI3
g0
(g1306
g2
Ntp1322
Rp1323
(dp1324
g1310
g1311
sg1312
F0.7634995126734025
sg1313
F1.0
sg15
I3
sg1314
g1315
sbsI44036
g0
(g1306
g2
Ntp1325
Rp1326
(dp1327
g1310
g1311
sg1312
F2.0700537689003444
sg1313
F1.0
sg15
I44036
sg1314
g1315
sbsI57174
g0
(g1306
g2
Ntp1328
Rp1329
(dp1330
g1310
g1311
sg1312
F1.4141784071951449
sg1313
F1.0
sg15
I57174
sg1314
g1315
sbsI25094
g0
(g1306
g2
Ntp1331
Rp1332
(dp1333
g1310
g1311
sg1312
F0.7355928253334887
sg1313
F1.0
sg15
I25094
sg1314
g1315
sbsI34305
g0
(g1306
g2
Ntp1334
Rp1335
(dp1336
g1310
g1311
sg1312
F0.15675940339969013
sg1313
F1.0
sg15
I34305
sg1314
g1315
sbsI28175
g0
(g1306
g2
Ntp1337
Rp1338
(dp1339
g1310
g1311
sg1312
F1.5264244870657238
sg1313
F1.0
sg15
I28175
sg1314
g1315
sbsI39446
g0
(g1306
g2
Ntp1340
Rp1341
(dp1342
g1310
g1311
sg1312
F-1.0163224193093443
sg1313
F1.0
sg15
I39446
sg1314
g1315
sbsI45060
g0
(g1306
g2
Ntp1343
Rp1344
(dp1345
g1310
g1311
sg1312
F0.5102393621082204
sg1313
F1.0
sg15
I45060
sg1314
g1315
sbsI57885
g0
(g1306
g2
Ntp1346
Rp1347
(dp1348
g1310
g1311
sg1312
F1.1032419373116258
sg1313
F1.0
sg15
I57885
sg1314
g1315
sbsI17952
g0
(g1306
g2
Ntp1349
Rp1350
(dp1351
g1310
g1311
sg1312
F0.41809214646396486
sg1313
F1.0
sg15
I17952
sg1314
g1315
sbsI46599
g0
(g1306
g2
Ntp1352
Rp1353
(dp1354
g1310
g1311
sg1312
F1.31617712052812
sg1313
F1.0
sg15
I46599
sg1314
g1315
sbsI22062
g0
(g1306
g2
Ntp1355
Rp1356
(dp1357
g1310
g1311
sg1312
F1.0459593475643016
sg1313
F1.0
sg15
I22062
sg1314
g1315
sbsI29748
g0
(g1306
g2
Ntp1358
Rp1359
(dp1360
g1310
g1311
sg1312
F-1.6561339349232302
sg1313
F1.0
sg15
I29748
sg1314
g1315
sbsI30262
g0
(g1306
g2
Ntp1361
Rp1362
(dp1363
g1310
g1311
sg1312
F1.759163731062325
sg1313
F1.0
sg15
I30262
sg1314
g1315
sbsI42039
g0
(g1306
g2
Ntp1364
Rp1365
(dp1366
g1310
g1311
sg1312
F-1.3906132331570538
sg1313
F1.0
sg15
I42039
sg1314
g1315
sbsI48696
g0
(g1306
g2
Ntp1367
Rp1368
(dp1369
g1310
g1311
sg1312
F1.2969329197221358
sg1313
F1.0
sg15
I48696
sg1314
g1315
sbsI46141
g0
(g1306
g2
Ntp1370
Rp1371
(dp1372
g1310
g1311
sg1312
F0.45610088970179263
sg1313
F1.0
sg15
I46141
sg1314
g1315
sbsI44097
g0
(g1306
g2
Ntp1373
Rp1374
(dp1375
g1310
g1311
sg1312
F-1.9739429384102283
sg1313
F1.0
sg15
I44097
sg1314
g1315
sbsI24130
g0
(g1306
g2
Ntp1376
Rp1377
(dp1378
g1310
g1311
sg1312
F4.671508472313571
sg1313
F1.0
sg15
I24130
sg1314
g1315
sbsI41541
g0
(g1306
g2
Ntp1379
Rp1380
(dp1381
g1310
g1311
sg1312
F0.48000528223161404
sg1313
F1.0
sg15
I41541
sg1314
g1315
sbsI61514
g0
(g1306
g2
Ntp1382
Rp1383
(dp1384
g1310
g1311
sg1312
F0.050162278266298266
sg1313
F1.0
sg15
I61514
sg1314
g1315
sbsI16460
g0
(g1306
g2
Ntp1385
Rp1386
(dp1387
g1310
g1311
sg1312
F-0.2422352846901577
sg1313
F1.0
sg15
I16460
sg1314
g1315
sbsI63053
g0
(g1306
g2
Ntp1388
Rp1389
(dp1390
g1310
g1311
sg1312
F2.9203331247669495
sg1313
F1.0
sg15
I63053
sg1314
g1315
sbsI58958
g0
(g1306
g2
Ntp1391
Rp1392
(dp1393
g1310
g1311
sg1312
F-1.3815221852629422
sg1313
F1.0
sg15
I58958
sg1314
g1315
sbsI59983
g0
(g1306
g2
Ntp1394
Rp1395
(dp1396
g1310
g1311
sg1312
F1.6696026897254945
sg1313
F1.0
sg15
I59983
sg1314
g1315
sbsI13070
g0
(g1306
g2
Ntp1397
Rp1398
(dp1399
g1310
g1311
sg1312
F0.21283842045391455
sg1313
F1.0
sg15
I13070
sg1314
g1315
sbsI27734
g0
(g1306
g2
Ntp1400
Rp1401
(dp1402
g1310
g1311
sg1312
F0.34289123111153513
sg1313
F1.0
sg15
I27734
sg1314
g1315
sbsI46683
g0
(g1306
g2
Ntp1403
Rp1404
(dp1405
g1310
g1311
sg1312
F1.335964943740882
sg1313
F1.0
sg15
I46683
sg1314
g1315
sbsI47717
g0
(g1306
g2
Ntp1406
Rp1407
(dp1408
g1310
g1311
sg1312
F-0.555142629809855
sg1313
F1.0
sg15
I47717
sg1314
g1315
sbsI64622
g0
(g1306
g2
Ntp1409
Rp1410
(dp1411
g1310
g1311
sg1312
F0.26439302089833483
sg1313
F1.0
sg15
I64622
sg1314
g1315
sbsI36463
g0
(g1306
g2
Ntp1412
Rp1413
(dp1414
g1310
g1311
sg1312
F0.3904526738299619
sg1313
F1.0
sg15
I36463
sg1314
g1315
sbsI34928
g0
(g1306
g2
Ntp1415
Rp1416
(dp1417
g1310
g1311
sg1312
F-2.9653402442753434
sg1313
F1.0
sg15
I34928
sg1314
g1315
sbsI31346
g0
(g1306
g2
Ntp1418
Rp1419
(dp1420
g1310
g1311
sg1312
F-2.006316974116054
sg1313
F1.0
sg15
I31346
sg1314
g1315
sbsI61044
g0
(g1306
g2
Ntp1421
Rp1422
(dp1423
g1310
g1311
sg1312
F2.236666238314066
sg1313
F1.0
sg15
I61044
sg1314
g1315
sbsI16502
g0
(g1306
g2
Ntp1424
Rp1425
(dp1426
g1310
g1311
sg1312
F-0.05495098648184499
sg1313
F1.0
sg15
I16502
sg1314
g1315
sbsI36543
g0
(g1306
g2
Ntp1427
Rp1428
(dp1429
g1310
g1311
sg1312
F2.1192499397234443
sg1313
F1.0
sg15
I36543
sg1314
g1315
sbsI40060
g0
(g1306
g2
Ntp1430
Rp1431
(dp1432
g1310
g1311
sg1312
F-0.010813880461022857
sg1313
F1.0
sg15
I40060
sg1314
g1315
sbsI33410
g0
(g1306
g2
Ntp1433
Rp1434
(dp1435
g1310
g1311
sg1312
F-1.3284639277248504
sg1313
F1.0
sg15
I33410
sg1314
g1315
sbsI9860
g0
(g1306
g2
Ntp1436
Rp1437
(dp1438
g1310
g1311
sg1312
F0.1888103876077422
sg1313
F1.0
sg15
I9860
sg1314
g1315
sbsI40982
g0
(g1306
g2
Ntp1439
Rp1440
(dp1441
g1310
g1311
sg1312
F0.8621031145549798
sg1313
F1.0
sg15
I40982
sg1314
g1315
sbsI58503
g0
(g1306
g2
Ntp1442
Rp1443
(dp1444
g1310
g1311
sg1312
F-3.118070721365349
sg1313
F1.0
sg15
I58503
sg1314
g1315
sbsI39563
g0
(g1306
g2
Ntp1445
Rp1446
(dp1447
g1310
g1311
sg1312
F-0.5673291976203061
sg1313
F1.0
sg15
I39563
sg1314
g1315
sbsI61582
g0
(g1306
g2
Ntp1448
Rp1449
(dp1450
g1310
g1311
sg1312
F-0.5175706350582208
sg1313
F1.0
sg15
I61582
sg1314
g1315
sbsI39055
g0
(g1306
g2
Ntp1451
Rp1452
(dp1453
g1310
g1311
sg1312
F-2.6340641375417757
sg1313
F1.0
sg15
I39055
sg1314
g1315
sbsI45205
g0
(g1306
g2
Ntp1454
Rp1455
(dp1456
g1310
g1311
sg1312
F0.3137360901830244
sg1313
F1.0
sg15
I45205
sg1314
g1315
sbsI47768
g0
(g1306
g2
Ntp1457
Rp1458
(dp1459
g1310
g1311
sg1312
F-0.9322840274419222
sg1313
F1.0
sg15
I47768
sg1314
g1315
sbsI27801
g0
(g1306
g2
Ntp1460
Rp1461
(dp1462
g1310
g1311
sg1312
F-1.4231359570054376
sg1313
F1.0
sg15
I27801
sg1314
g1315
sbsI53925
g0
(g1306
g2
Ntp1463
Rp1464
(dp1465
g1310
g1311
sg1312
F-0.9605214740864363
sg1313
F1.0
sg15
I53925
sg1314
g1315
sbsI39079
g0
(g1306
g2
Ntp1466
Rp1467
(dp1468
g1310
g1311
sg1312
F1.1255760116105606
sg1313
F1.0
sg15
I39079
sg1314
g1315
sbsI45224
g0
(g1306
g2
Ntp1469
Rp1470
(dp1471
g1310
g1311
sg1312
F-0.668958950202164
sg1313
F1.0
sg15
I45224
sg1314
g1315
sbsI65193
g0
(g1306
g2
Ntp1472
Rp1473
(dp1474
g1310
g1311
sg1312
F-1.192938649183574
sg1313
F1.0
sg15
I65193
sg1314
g1315
sbsI63660
g0
(g1306
g2
Ntp1475
Rp1476
(dp1477
g1310
g1311
sg1312
F-1.370958633476231
sg1313
F1.0
sg15
I63660
sg1314
g1315
sbsI61469
g0
(g1306
g2
Ntp1478
Rp1479
(dp1480
g1310
g1311
sg1312
F-0.5017915626731893
sg1313
F1.0
sg15
I61469
sg1314
g1315
sbsI38345
g0
(g1306
g2
Ntp1481
Rp1482
(dp1483
g1310
g1311
sg1312
F-0.7439809801136561
sg1313
F1.0
sg15
I38345
sg1314
g1315
sbsI15034
g0
(g1306
g2
Ntp1484
Rp1485
(dp1486
g1310
g1311
sg1312
F0.6447368089995158
sg1313
F1.0
sg15
I15034
sg1314
g1315
sbsI32955
g0
(g1306
g2
Ntp1487
Rp1488
(dp1489
g1310
g1311
sg1312
F0.4414513793169844
sg1313
F1.0
sg15
I32955
sg1314
g1315
sbsI57020
g0
(g1306
g2
Ntp1490
Rp1491
(dp1492
g1310
g1311
sg1312
F-0.04189362184831062
sg1313
F1.0
sg15
I57020
sg1314
g1315
sbsI21706
g0
(g1306
g2
Ntp1493
Rp1494
(dp1495
g1310
g1311
sg1312
F-2.819547717564631
sg1313
F1.0
sg15
I21706
sg1314
g1315
sbsI9919
g0
(g1306
g2
Ntp1496
Rp1497
(dp1498
g1310
g1311
sg1312
F2.463827632154251
sg1313
F1.0
sg15
I9919
sg1314
g1315
sbsI21181
g0
(g1306
g2
Ntp1499
Rp1500
(dp1501
g1310
g1311
sg1312
F-0.5671555642302636
sg1313
F1.0
sg15
I21181
sg1314
g1315
sbsI17094
g0
(g1306
g2
Ntp1502
Rp1503
(dp1504
g1310
g1311
sg1312
F-0.3284724078341582
sg1313
F1.0
sg15
I17094
sg1314
g1315
sbsI58056
g0
(g1306
g2
Ntp1505
Rp1506
(dp1507
g1310
g1311
sg1312
F-1.3714625230156083
sg1313
F1.0
sg15
I58056
sg1314
g1315
sbsI25290
g0
(g1306
g2
Ntp1508
Rp1509
(dp1510
g1310
g1311
sg1312
F-2.334159837558181
sg1313
F1.0
sg15
I25290
sg1314
g1315
sbsI51403
g0
(g1306
g2
Ntp1511
Rp1512
(dp1513
g1310
g1311
sg1312
F-1.9598897088874292
sg1313
F1.0
sg15
I51403
sg1314
g1315
sbsI1228
g0
(g1306
g2
Ntp1514
Rp1515
(dp1516
g1310
g1311
sg1312
F-3.306234543606281
sg1313
F1.0
sg15
I1228
sg1314
g1315
sbsI58146
g0
(g1306
g2
Ntp1517
Rp1518
(dp1519
g1310
g1311
sg1312
F2.3885360231577772
sg1313
F1.0
sg15
I58146
sg1314
g1315
sbsI54480
g0
(g1306
g2
Ntp1520
Rp1521
(dp1522
g1310
g1311
sg1312
F2.208466428997591
sg1313
F1.0
sg15
I54480
sg1314
g1315
sbsI34168
g0
(g1306
g2
Ntp1523
Rp1524
(dp1525
g1310
g1311
sg1312
F-0.3938141509935936
sg1313
F1.0
sg15
I34168
sg1314
g1315
sbsI59602
g0
(g1306
g2
Ntp1526
Rp1527
(dp1528
g1310
g1311
sg1312
F-1.8167161851679183
sg1313
F1.0
sg15
I59602
sg1314
g1315
sbsI18649
g0
(g1306
g2
Ntp1529
Rp1530
(dp1531
g1310
g1311
sg1312
F1.495176439980487
sg1313
F1.0
sg15
I18649
sg1314
g1315
sbsI25306
g0
(g1306
g2
Ntp1532
Rp1533
(dp1534
g1310
g1311
sg1312
F-0.6230150279334464
sg1313
F1.0
sg15
I25306
sg1314
g1315
sbsI15069
g0
(g1306
g2
Ntp1535
Rp1536
(dp1537
g1310
g1311
sg1312
F1.096953116649069
sg1313
F1.0
sg15
I15069
sg1314
g1315
sbsI16094
g0
(g1306
g2
Ntp1538
Rp1539
(dp1540
g1310
g1311
sg1312
F2.1567834808063497
sg1313
F1.0
sg15
I16094
sg1314
g1315
sbsI57808
g0
(g1306
g2
Ntp1541
Rp1542
(dp1543
g1310
g1311
sg1312
F-0.06512829873576947
sg1313
F1.0
sg15
I57808
sg1314
g1315
sbsI39140
g0
(g1306
g2
Ntp1544
Rp1545
(dp1546
g1310
g1311
sg1312
F0.641962730115071
sg1313
F1.0
sg15
I39140
sg1314
g1315
sbsI41191
g0
(g1306
g2
Ntp1547
Rp1548
(dp1549
g1310
g1311
sg1312
F-0.563060931320399
sg1313
F1.0
sg15
I41191
sg1314
g1315
sbsI27880
g0
(g1306
g2
Ntp1550
Rp1551
(dp1552
g1310
g1311
sg1312
F-0.6706821552960737
sg1313
F1.0
sg15
I27880
sg1314
g1315
sbsI42729
g0
(g1306
g2
Ntp1553
Rp1554
(dp1555
g1310
g1311
sg1312
F1.2518157613888146
sg1313
F1.0
sg15
I42729
sg1314
g1315
sbsI45293
g0
(g1306
g2
Ntp1556
Rp1557
(dp1558
g1310
g1311
sg1312
F4.812143132477524
sg1313
F1.0
sg15
I45293
sg1314
g1315
sbsI57584
g0
(g1306
g2
Ntp1559
Rp1560
(dp1561
g1310
g1311
sg1312
F1.0086528750134849
sg1313
F1.0
sg15
I57584
sg1314
g1315
sbsI52979
g0
(g1306
g2
Ntp1562
Rp1563
(dp1564
g1310
g1311
sg1312
F2.3020630989314226
sg1313
F1.0
sg15
I52979
sg1314
g1315
sbsI54701
g0
(g1306
g2
Ntp1565
Rp1566
(dp1567
g1310
g1311
sg1312
F-2.013547422782255
sg1313
F1.0
sg15
I54701
sg1314
g1315
sbsI48379
g0
(g1306
g2
Ntp1568
Rp1569
(dp1570
g1310
g1311
sg1312
F-0.6518722106275394
sg1313
F1.0
sg15
I48379
sg1314
g1315
sbsI6909
g0
(g1306
g2
Ntp1571
Rp1572
(dp1573
g1310
g1311
sg1312
F0.48427458201451984
sg1313
F1.0
sg15
I6909
sg1314
g1315
sbsI63743
g0
(g1306
g2
Ntp1574
Rp1575
(dp1576
g1310
g1311
sg1312
F-1.639958976218537
sg1313
F1.0
sg15
I63743
sg1314
g1315
sbsI25473
g0
(g1306
g2
Ntp1577
Rp1578
(dp1579
g1310
g1311
sg1312
F0.7537995582679993
sg1313
F1.0
sg15
I25473
sg1314
g1315
sbsI33032
g0
(g1306
g2
Ntp1580
Rp1581
(dp1582
g1310
g1311
sg1312
F0.8768186837196742
sg1313
F1.0
sg15
I33032
sg1314
g1315
sbsI11534
g0
(g1306
g2
Ntp1583
Rp1584
(dp1585
g1310
g1311
sg1312
F-0.539287386048473
sg1313
F1.0
sg15
I11534
sg1314
g1315
sbsI43281
g0
(g1306
g2
Ntp1586
Rp1587
(dp1588
g1310
g1311
sg1312
F-2.202437565412899
sg1313
F1.0
sg15
I43281
sg1314
g1315
sbsI51758
g0
(g1306
g2
Ntp1589
Rp1590
(dp1591
g1310
g1311
sg1312
F0.9677896489996146
sg1313
F1.0
sg15
I51758
sg1314
g1315
sbsI64054
g0
(g1306
g2
Ntp1592
Rp1593
(dp1594
g1310
g1311
sg1312
F-2.6945169609939135
sg1313
F1.0
sg15
I64054
sg1314
g1315
sbsI59164
g0
(g1306
g2
Ntp1595
Rp1596
(dp1597
g1310
g1311
sg1312
F-0.9390537805334351
sg1313
F1.0
sg15
I59164
sg1314
g1315
sbsI2334
g0
(g1306
g2
Ntp1598
Rp1599
(dp1600
g1310
g1311
sg1312
F-0.18100369081898038
sg1313
F1.0
sg15
I2334
sg1314
g1315
sbsI51999
g0
(g1306
g2
Ntp1601
Rp1602
(dp1603
g1310
g1311
sg1312
F1.7217189708595124
sg1313
F1.0
sg15
I51999
sg1314
g1315
sbsI50464
g0
(g1306
g2
Ntp1604
Rp1605
(dp1606
g1310
g1311
sg1312
F-0.7231151695639962
sg1313
F1.0
sg15
I50464
sg1314
g1315
sbsI55585
g0
(g1306
g2
Ntp1607
Rp1608
(dp1609
g1310
g1311
sg1312
F1.172122597865935
sg1313
F1.0
sg15
I55585
sg1314
g1315
sbsI53026
g0
(g1306
g2
Ntp1610
Rp1611
(dp1612
g1310
g1311
sg1312
F-0.3177651806050275
sg1313
F1.0
sg15
I53026
sg1314
g1315
sbsI57819
g0
(g1306
g2
Ntp1613
Rp1614
(dp1615
g1310
g1311
sg1312
F1.3972718849490917
sg1313
F1.0
sg15
I57819
sg1314
g1315
sbsI22308
g0
(g1306
g2
Ntp1616
Rp1617
(dp1618
g1310
g1311
sg1312
F-1.0563727802578615
sg1313
F1.0
sg15
I22308
sg1314
g1315
sbsI44837
g0
(g1306
g2
Ntp1619
Rp1620
(dp1621
g1310
g1311
sg1312
F-4.698036519343218
sg1313
F1.0
sg15
I44837
sg1314
g1315
sbsI40232
g0
(g1306
g2
Ntp1622
Rp1623
(dp1624
g1310
g1311
sg1312
F-1.6876332469544315
sg1313
F1.0
sg15
I40232
sg1314
g1315
sbsI54836
g0
(g1306
g2
Ntp1625
Rp1626
(dp1627
g1310
g1311
sg1312
F-1.5168878466277262
sg1313
F1.0
sg15
I54836
sg1314
g1315
sbsI56126
g0
(g1306
g2
Ntp1628
Rp1629
(dp1630
g1310
g1311
sg1312
F0.8445652169752929
sg1313
F1.0
sg15
I56126
sg1314
g1315
sbsI33604
g0
(g1306
g2
Ntp1631
Rp1632
(dp1633
g1310
g1311
sg1312
F2.1265162548109893
sg1313
F1.0
sg15
I33604
sg1314
g1315
sbsI16709
g0
(g1306
g2
Ntp1634
Rp1635
(dp1636
g1310
g1311
sg1312
F1.442089742307247
sg1313
F1.0
sg15
I16709
sg1314
g1315
sbsI47943
g0
(g1306
g2
Ntp1637
Rp1638
(dp1639
g1310
g1311
sg1312
F1.300812596358481
sg1313
F1.0
sg15
I47943
sg1314
g1315
sbsI51023
g0
(g1306
g2
Ntp1640
Rp1641
(dp1642
g1310
g1311
sg1312
F1.6651506810721524
sg1313
F1.0
sg15
I51023
sg1314
g1315
sbsI59728
g0
(g1306
g2
Ntp1643
Rp1644
(dp1645
g1310
g1311
sg1312
F-0.22227352441027978
sg1313
F1.0
sg15
I59728
sg1314
g1315
sbsI26961
g0
(g1306
g2
Ntp1646
Rp1647
(dp1648
g1310
g1311
sg1312
F1.0928015072174049
sg1313
F1.0
sg15
I26961
sg1314
g1315
sbsI36691
g0
(g1306
g2
Ntp1649
Rp1650
(dp1651
g1310
g1311
sg1312
F-4.190826180936941
sg1313
F1.0
sg15
I36691
sg1314
g1315
sbsI39764
g0
(g1306
g2
Ntp1652
Rp1653
(dp1654
g1310
g1311
sg1312
F-0.6980876830256917
sg1313
F1.0
sg15
I39764
sg1314
g1315
sbsI34134
g0
(g1306
g2
Ntp1655
Rp1656
(dp1657
g1310
g1311
sg1312
F-0.7621843041146781
sg1313
F1.0
sg15
I34134
sg1314
g1315
sbsI21817
g0
(g1306
g2
Ntp1658
Rp1659
(dp1660
g1310
g1311
sg1312
F1.0611128396398117
sg1313
F1.0
sg15
I21817
sg1314
g1315
sbsI53593
g0
(g1306
g2
Ntp1661
Rp1662
(dp1663
g1310
g1311
sg1312
F0.06691331335641777
sg1313
F1.0
sg15
I53593
sg1314
g1315
sbsI62811
g0
(g1306
g2
Ntp1664
Rp1665
(dp1666
g1310
g1311
sg1312
F-3.7026091402493564
sg1313
F1.0
sg15
I62811
sg1314
g1315
sbsI46429
g0
(g1306
g2
Ntp1667
Rp1668
(dp1669
g1310
g1311
sg1312
F2.5094620860910894
sg1313
F1.0
sg15
I46429
sg1314
g1315
sbsI42335
g0
(g1306
g2
Ntp1670
Rp1671
(dp1672
g1310
g1311
sg1312
F-0.24343775481397303
sg1313
F1.0
sg15
I42335
sg1314
g1315
sbsI54115
g0
(g1306
g2
Ntp1673
Rp1674
(dp1675
g1310
g1311
sg1312
F-0.3144780480178315
sg1313
F1.0
sg15
I54115
sg1314
g1315
sbsI53094
g0
(g1306
g2
Ntp1676
Rp1677
(dp1678
g1310
g1311
sg1312
F0.5017355399074528
sg1313
F1.0
sg15
I53094
sg1314
g1315
sbsI33255
g0
(g1306
g2
Ntp1679
Rp1680
(dp1681
g1310
g1311
sg1312
F-0.7186811079100142
sg1313
F1.0
sg15
I33255
sg1314
g1315
sbsI52589
g0
(g1306
g2
Ntp1682
Rp1683
(dp1684
g1310
g1311
sg1312
F-0.01631117456216356
sg1313
F1.0
sg15
I52589
sg1314
g1315
sbsI49725
g0
(g1306
g2
Ntp1685
Rp1686
(dp1687
g1310
g1311
sg1312
F2.9195245526348614
sg1313
F1.0
sg15
I49725
sg1314
g1315
sbsI54640
g0
(g1306
g2
Ntp1688
Rp1689
(dp1690
g1310
g1311
sg1312
F1.1084662290046512
sg1313
F1.0
sg15
I54640
sg1314
g1315
sbsI31601
g0
(g1306
g2
Ntp1691
Rp1692
(dp1693
g1310
g1311
sg1312
F-0.09878719734954244
sg1313
F1.0
sg15
I31601
sg1314
g1315
sbsI37749
g0
(g1306
g2
Ntp1694
Rp1695
(dp1696
g1310
g1311
sg1312
F-0.02802888808573364
sg1313
F1.0
sg15
I37749
sg1314
g1315
sbsI49527
g0
(g1306
g2
Ntp1697
Rp1698
(dp1699
g1310
g1311
sg1312
F2.5413255288494345
sg1313
F1.0
sg15
I49527
sg1314
g1315
sbsI45944
g0
(g1306
g2
Ntp1700
Rp1701
(dp1702
g1310
g1311
sg1312
F4.4266673116151125
sg1313
F1.0
sg15
I45944
sg1314
g1315
sbsI27514
g0
(g1306
g2
Ntp1703
Rp1704
(dp1705
g1310
g1311
sg1312
F0.09074452242268781
sg1313
F1.0
sg15
I27514
sg1314
g1315
sbsI30075
g0
(g1306
g2
Ntp1706
Rp1707
(dp1708
g1310
g1311
sg1312
F1.1755846317769378
sg1313
F1.0
sg15
I30075
sg1314
g1315
sbsI40125
g0
(g1306
g2
Ntp1709
Rp1710
(dp1711
g1310
g1311
sg1312
F-3.6157586721928805
sg1313
F1.0
sg15
I40125
sg1314
g1315
sbsI43393
g0
(g1306
g2
Ntp1712
Rp1713
(dp1714
g1310
g1311
sg1312
F0.06766841597537793
sg1313
F1.0
sg15
I43393
sg1314
g1315
sbsI6027
g0
(g1306
g2
Ntp1715
Rp1716
(dp1717
g1310
g1311
sg1312
F0.7014124083780684
sg1313
F1.0
sg15
I6027
sg1314
g1315
sbsI40335
g0
(g1306
g2
Ntp1718
Rp1719
(dp1720
g1310
g1311
sg1312
F-0.44096386073207716
sg1313
F1.0
sg15
I40335
sg1314
g1315
sbsI33169
g0
(g1306
g2
Ntp1721
Rp1722
(dp1723
g1310
g1311
sg1312
F-1.3234702753342795
sg1313
F1.0
sg15
I33169
sg1314
g1315
sbsI41880
g0
(g1306
g2
Ntp1724
Rp1725
(dp1726
g1310
g1311
sg1312
F-0.08270028501396037
sg1313
F1.0
sg15
I41880
sg1314
g1315
sbsI38297
g0
(g1306
g2
Ntp1727
Rp1728
(dp1729
g1310
g1311
sg1312
F-2.942755477832269
sg1313
F1.0
sg15
I38297
sg1314
g1315
sbsI16282
g0
(g1306
g2
Ntp1730
Rp1731
(dp1732
g1310
g1311
sg1312
F-0.870838439607214
sg1313
F1.0
sg15
I16282
sg1314
g1315
sbsI52719
g0
(g1306
g2
Ntp1733
Rp1734
(dp1735
g1310
g1311
sg1312
F0.9365504739671012
sg1313
F1.0
sg15
I52719
sg1314
g1315
sbsI56645
g0
(g1306
g2
Ntp1736
Rp1737
(dp1738
g1310
g1311
sg1312
F0.45160781048191134
sg1313
F1.0
sg15
I56645
sg1314
g1315
sbsI20353
g0
(g1306
g2
Ntp1739
Rp1740
(dp1741
g1310
g1311
sg1312
F1.8451178313694345
sg1313
F1.0
sg15
I20353
sg1314
g1315
sbsI45985
g0
(g1306
g2
Ntp1742
Rp1743
(dp1744
g1310
g1311
sg1312
F-1.0334777973845082
sg1313
F1.0
sg15
I45985
sg1314
g1315
sbsI22946
g0
(g1306
g2
Ntp1745
Rp1746
(dp1747
g1310
g1311
sg1312
F0.22262312380675
sg1313
F1.0
sg15
I22946
sg1314
g1315
sbsI59811
g0
(g1306
g2
Ntp1748
Rp1749
(dp1750
g1310
g1311
sg1312
F1.0324114100607344
sg1313
F1.0
sg15
I59811
sg1314
g1315
sbsI55719
g0
(g1306
g2
Ntp1751
Rp1752
(dp1753
g1310
g1311
sg1312
F-2.439807270729505
sg1313
F1.0
sg15
I55719
sg1314
g1315
sbsI58577
g0
(g1306
g2
Ntp1754
Rp1755
(dp1756
g1310
g1311
sg1312
F-1.7989918617002778
sg1313
F1.0
sg15
I58577
sg1314
g1315
sbsI36269
g0
(g1306
g2
Ntp1757
Rp1758
(dp1759
g1310
g1311
sg1312
F-1.1062595045904264
sg1313
F1.0
sg15
I36269
sg1314
g1315
sbsI56241
g0
(g1306
g2
Ntp1760
Rp1761
(dp1762
g1310
g1311
sg1312
F-0.03205338106419567
sg1313
F1.0
sg15
I56241
sg1314
g1315
sbsI61683
g0
(g1306
g2
Ntp1763
Rp1764
(dp1765
g1310
g1311
sg1312
F-1.8711065532234858
sg1313
F1.0
sg15
I61683
sg1314
g1315
sbsI57273
g0
(g1306
g2
Ntp1766
Rp1767
(dp1768
g1310
g1311
sg1312
F-2.945865152620478
sg1313
F1.0
sg15
I57273
sg1314
g1315
sbsI61373
g0
(g1306
g2
Ntp1769
Rp1770
(dp1771
g1310
g1311
sg1312
F-2.843047719140177
sg1313
F1.0
sg15
I61373
sg1314
g1315
sbsI62911
g0
(g1306
g2
Ntp1772
Rp1773
(dp1774
g1310
g1311
sg1312
F0.17227321445581378
sg1313
F1.0
sg15
I62911
sg1314
g1315
sbsI45505
g0
(g1306
g2
Ntp1775
Rp1776
(dp1777
g1310
g1311
sg1312
F1.2781119817999154
sg1313
F1.0
sg15
I45505
sg1314
g1315
sbsI46531
g0
(g1306
g2
Ntp1778
Rp1779
(dp1780
g1310
g1311
sg1312
F-1.746851920824397
sg1313
F1.0
sg15
I46531
sg1314
g1315
sbsI30660
g0
(g1306
g2
Ntp1781
Rp1782
(dp1783
g1310
g1311
sg1312
F-1.219237001158025
sg1313
F1.0
sg15
I30660
sg1314
g1315
sbsI15777
g0
(g1306
g2
Ntp1784
Rp1785
(dp1786
g1310
g1311
sg1312
F-0.43382440120255594
sg1313
F1.0
sg15
I15777
sg1314
g1315
sbsI35784
g0
(g1306
g2
Ntp1787
Rp1788
(dp1789
g1310
g1311
sg1312
F1.5220410961239539
sg1313
F1.0
sg15
I35784
sg1314
g1315
sbsI52812
g0
(g1306
g2
Ntp1790
Rp1791
(dp1792
g1310
g1311
sg1312
F-0.17413951092961258
sg1313
F1.0
sg15
I52812
sg1314
g1315
sbsI11212
g0
(g1306
g2
Ntp1793
Rp1794
(dp1795
g1310
g1311
sg1312
F1.1234796809733663
sg1313
F1.0
sg15
I11212
sg1314
g1315
sbsI62416
g0
(g1306
g2
Ntp1796
Rp1797
(dp1798
g1310
g1311
sg1312
F3.021503345679623
sg1313
F1.0
sg15
I62416
sg1314
g1315
sbsI32210
g0
(g1306
g2
Ntp1799
Rp1800
(dp1801
g1310
g1311
sg1312
F-0.7169838236069354
sg1313
F1.0
sg15
I32210
sg1314
g1315
sbsI21972
g0
(g1306
g2
Ntp1802
Rp1803
(dp1804
g1310
g1311
sg1312
F-0.6247628759633033
sg1313
F1.0
sg15
I21972
sg1314
g1315
sbsI64078
g0
(g1306
g2
Ntp1805
Rp1806
(dp1807
g1310
g1311
sg1312
F2.125592208945596
sg1313
F1.0
sg15
I64078
sg1314
g1315
sbsI56279
g0
(g1306
g2
Ntp1808
Rp1809
(dp1810
g1310
g1311
sg1312
F1.9931869830656874
sg1313
F1.0
sg15
I56279
sg1314
g1315
sbsI63960
g0
(g1306
g2
Ntp1811
Rp1812
(dp1813
g1310
g1311
sg1312
F2.179186099015388
sg1313
F1.0
sg15
I63960
sg1314
g1315
sbsI43482
g0
(g1306
g2
Ntp1814
Rp1815
(dp1816
g1310
g1311
sg1312
F0.28003315749006374
sg1313
F1.0
sg15
I43482
sg1314
g1315
sbsI3663
g0
(g1306
g2
Ntp1817
Rp1818
(dp1819
g1310
g1311
sg1312
F0.8829863105597806
sg1313
F1.0
sg15
I3663
sg1314
g1315
sbsI51164
g0
(g1306
g2
Ntp1820
Rp1821
(dp1822
g1310
g1311
sg1312
F-0.7365942144637837
sg1313
F1.0
sg15
I51164
sg1314
g1315
sbsI58851
g0
(g1306
g2
Ntp1823
Rp1824
(dp1825
g1310
g1311
sg1312
F0.023532102461729015
sg1313
F1.0
sg15
I58851
sg1314
g1315
sbsI15334
g0
(g1306
g2
Ntp1826
Rp1827
(dp1828
g1310
g1311
sg1312
F-0.15914095812685103
sg1313
F1.0
sg15
I15334
sg1314
g1315
sbsI33617
g0
(g1306
g2
Ntp1829
Rp1830
(dp1831
g1310
g1311
sg1312
F1.6824081358510043
sg1313
F1.0
sg15
I33617
sg1314
g1315
sbsI44524
g0
(g1306
g2
Ntp1832
Rp1833
(dp1834
g1310
g1311
sg1312
F-0.35268458626090693
sg1313
F1.0
sg15
I44524
sg1314
g1315
sbsI63470
g0
(g1306
g2
Ntp1835
Rp1836
(dp1837
g1310
g1311
sg1312
F-0.1725648749366746
sg1313
F1.0
sg15
I63470
sg1314
g1315
sbsI32509
g0
(g1306
g2
Ntp1838
Rp1839
(dp1840
g1310
g1311
sg1312
F-0.42297206142724997
sg1313
F1.0
sg15
I32509
sg1314
g1315
sbsI62962
g0
(g1306
g2
Ntp1841
Rp1842
(dp1843
g1310
g1311
sg1312
F1.0996366440001968
sg1313
F1.0
sg15
I62962
sg1314
g1315
sbsI36343
g0
(g1306
g2
Ntp1844
Rp1845
(dp1846
g1310
g1311
sg1312
F1.364622818254062
sg1313
F1.0
sg15
I36343
sg1314
g1315
sbsI16378
g0
(g1306
g2
Ntp1847
Rp1848
(dp1849
g1310
g1311
sg1312
F-0.45861826922278054
sg1313
F1.0
sg15
I16378
sg1314
g1315
sbsI34813
g0
(g1306
g2
Ntp1850
Rp1851
(dp1852
g1310
g1311
sg1312
F-1.1584919210654605
sg1313
F1.0
sg15
I34813
sg1314
g1315
sbsI9214
g0
(g1306
g2
Ntp1853
Rp1854
(dp1855
g1310
g1311
sg1312
F0.974450861604683
sg1313
F1.0
sg15
I9214
sg1314
g1315
sbsI53759
g0
(g1306
g2
Ntp1856
Rp1857
(dp1858
g1310
g1311
sg1312
F1.5847353311041206
sg1313
F1.0
sg15
I53759
sg1314
g1315
sbssg15
I195707
sS'fitness'
p1859
F29.9
sb.