ccopy_reg
_reconstructor
p0
(cneat.genome
DefaultGenome
p1
c__builtin__
object
p2
Ntp3
Rp4
(dp5
S'connections'
p6
(dp7
(I26146
I8573
tp8
g0
(cneat.genes
DefaultConnectionGene
p9
g2
Ntp10
Rp11
(dp12
S'enabled'
p13
I00
sS'weight'
p14
F3.3566382893529316
sS'key'
p15
g8
sbs(I53670
I19890
tp16
g0
(g9
g2
Ntp17
Rp18
(dp19
g13
I00
sg14
F-1.198249646248791
sg15
g16
sbs(I10145
I48534
tp20
g0
(g9
g2
Ntp21
Rp22
(dp23
g13
I01
sg14
F0.5142748583111216
sg15
g20
sbs(I-1
I0
tp24
g0
(g9
g2
Ntp25
Rp26
(dp27
g13
I00
sg14
F0.01364839562635456
sg15
g24
sbs(I1487
I36761
tp28
g0
(g9
g2
Ntp29
Rp30
(dp31
g13
I01
sg14
F1.9900422439836079
sg15
g28
sbs(I-2
I51337
tp32
g0
(g9
g2
Ntp33
Rp34
(dp35
g13
I00
sg14
F0.40660753974819863
sg15
g32
sbs(I40149
I44619
tp36
g0
(g9
g2
Ntp37
Rp38
(dp39
g13
I01
sg14
F1.5763056460955367
sg15
g36
sbs(I15111
I14286
tp40
g0
(g9
g2
Ntp41
Rp42
(dp43
g13
I01
sg14
F-0.16196223468517304
sg15
g40
sbs(I28820
I32939
tp44
g0
(g9
g2
Ntp45
Rp46
(dp47
g13
I00
sg14
F-0.015707461222209784
sg15
g44
sbs(I17905
I2
tp48
g0
(g9
g2
Ntp49
Rp50
(dp51
g13
I01
sg14
F1.3739539388964763
sg15
g48
sbs(I-4
I2676
tp52
g0
(g9
g2
Ntp53
Rp54
(dp55
g13
I00
sg14
F1.5349521572213747
sg15
g52
sbs(I28134
I40149
tp56
g0
(g9
g2
Ntp57
Rp58
(dp59
g13
I00
sg14
F-0.6480077099014803
sg15
g56
sbs(I59196
I0
tp60
g0
(g9
g2
Ntp61
Rp62
(dp63
g13
I00
sg14
F0.6773278617330186
sg15
g60
sbs(I28820
I48626
tp64
g0
(g9
g2
Ntp65
Rp66
(dp67
g13
I00
sg14
F2.5628249323323624
sg15
g64
sbs(I34782
I36761
tp68
g0
(g9
g2
Ntp69
Rp70
(dp71
g13
I00
sg14
F0.7018687813832533
sg15
g68
sbs(I-4
I18988
tp72
g0
(g9
g2
Ntp73
Rp74
(dp75
g13
I00
sg14
F1.3280275593125461
sg15
g72
sbs(I22151
I2
tp76
g0
(g9
g2
Ntp77
Rp78
(dp79
g13
I00
sg14
F0.17010366322010478
sg15
g76
sbs(I-4
I51102
tp80
g0
(g9
g2
Ntp81
Rp82
(dp83
g13
I00
sg14
F-0.05865377177151487
sg15
g80
sbs(I8735
I30428
tp84
g0
(g9
g2
Ntp85
Rp86
(dp87
g13
I01
sg14
F-0.3885072385552064
sg15
g84
sbs(I10993
I63493
tp88
g0
(g9
g2
Ntp89
Rp90
(dp91
g13
I01
sg14
F1.3447342047275355
sg15
g88
sbs(I27664
I32939
tp92
g0
(g9
g2
Ntp93
Rp94
(dp95
g13
I00
sg14
F-1.3744512664960027
sg15
g92
sbs(I61792
I0
tp96
g0
(g9
g2
Ntp97
Rp98
(dp99
g13
I01
sg14
F-3.721837435433096
sg15
g96
sbs(I5238
I30039
tp100
g0
(g9
g2
Ntp101
Rp102
(dp103
g13
I00
sg14
F0.09855079698722063
sg15
g100
sbs(I36761
I37201
tp104
g0
(g9
g2
Ntp105
Rp106
(dp107
g13
I00
sg14
F-0.06228159498689878
sg15
g104
sbs(I15456
I14286
tp108
g0
(g9
g2
Ntp109
Rp110
(dp111
g13
I01
sg14
F-4.798553671920309
sg15
g108
sbs(I38209
I7831
tp112
g0
(g9
g2
Ntp113
Rp114
(dp115
g13
I00
sg14
F1.5870421700704525
sg15
g112
sbs(I33763
I51102
tp116
g0
(g9
g2
Ntp117
Rp118
(dp119
g13
I00
sg14
F-0.15011076579294852
sg15
g116
sbs(I7072
I10993
tp120
g0
(g9
g2
Ntp121
Rp122
(dp123
g13
I00
sg14
F0.9901360306497002
sg15
g120
sbs(I14061
I53276
tp124
g0
(g9
g2
Ntp125
Rp126
(dp127
g13
I00
sg14
F-0.7150650257624691
sg15
g124
sbs(I45726
I20138
tp128
g0
(g9
g2
Ntp129
Rp130
(dp131
g13
I01
sg14
F0.7375883832339826
sg15
g128
sbs(I37795
I53276
tp132
g0
(g9
g2
Ntp133
Rp134
(dp135
g13
I00
sg14
F-0.7687688880390762
sg15
g132
sbs(I29648
I15111
tp136
g0
(g9
g2
Ntp137
Rp138
(dp139
g13
I01
sg14
F-2.3155412928624193
sg15
g136
sbs(I32278
I8573
tp140
g0
(g9
g2
Ntp141
Rp142
(dp143
g13
I00
sg14
F-0.5578060866355092
sg15
g140
sbs(I-3
I58692
tp144
g0
(g9
g2
Ntp145
Rp146
(dp147
g13
I01
sg14
F1.3925627636002784
sg15
g144
sbs(I62205
I56975
tp148
g0
(g9
g2
Ntp149
Rp150
(dp151
g13
I01
sg14
F3.4173876220455672
sg15
g148
sbs(I60162
I63812
tp152
g0
(g9
g2
Ntp153
Rp154
(dp155
g13
I00
sg14
F-0.8408040604379706
sg15
g152
sbs(I25961
I18988
tp156
g0
(g9
g2
Ntp157
Rp158
(dp159
g13
I00
sg14
F0.4340883544275452
sg15
g156
sbs(I28820
I40205
tp160
g0
(g9
g2
Ntp161
Rp162
(dp163
g13
I01
sg14
F-1.2038241413071633
sg15
g160
sbs(I8323
I1487
tp164
g0
(g9
g2
Ntp165
Rp166
(dp167
g13
I00
sg14
F-0.687419992383588
sg15
g164
sbs(I57927
I47407
tp168
g0
(g9
g2
Ntp169
Rp170
(dp171
g13
I01
sg14
F0.3733941461647585
sg15
g168
sbs(I50952
I38124
tp172
g0
(g9
g2
Ntp173
Rp174
(dp175
g13
I00
sg14
F-0.06789238571987381
sg15
g172
sbs(I53748
I33749
tp176
g0
(g9
g2
Ntp177
Rp178
(dp179
g13
I00
sg14
F-1.3754053104363348
sg15
g176
sbs(I40398
I51577
tp180
g0
(g9
g2
Ntp181
Rp182
(dp183
g13
I00
sg14
F1.5997475316969554
sg15
g180
sbs(I18077
I44547
tp184
g0
(g9
g2
Ntp185
Rp186
(dp187
g13
I00
sg14
F-0.6061864236922005
sg15
g184
sbs(I-3
I60296
tp188
g0
(g9
g2
Ntp189
Rp190
(dp191
g13
I00
sg14
F-0.8127088926769903
sg15
g188
sbs(I14996
I19479
tp192
g0
(g9
g2
Ntp193
Rp194
(dp195
g13
I00
sg14
F0.8965714409987493
sg15
g192
sbs(I2933
I3
tp196
g0
(g9
g2
Ntp197
Rp198
(dp199
g13
I00
sg14
F2.0520073726031103
sg15
g196
sbs(I14996
I42506
tp200
g0
(g9
g2
Ntp201
Rp202
(dp203
g13
I01
sg14
F2.7597783646779184
sg15
g200
sbs(I53395
I2
tp204
g0
(g9
g2
Ntp205
Rp206
(dp207
g13
I01
sg14
F-0.12825578612432978
sg15
g204
sbs(I25961
I8094
tp208
g0
(g9
g2
Ntp209
Rp210
(dp211
g13
I00
sg14
F-1.244237728993456
sg15
g208
sbs(I-1
I8573
tp212
g0
(g9
g2
Ntp213
Rp214
(dp215
g13
I00
sg14
F-2.9776418320057383
sg15
g212
sbs(I30978
I39727
tp216
g0
(g9
g2
Ntp217
Rp218
(dp219
g13
I01
sg14
F2.65994021287855
sg15
g216
sbs(I8735
I13187
tp220
g0
(g9
g2
Ntp221
Rp222
(dp223
g13
I01
sg14
F-0.6000117753315564
sg15
g220
sbs(I10993
I24379
tp224
g0
(g9
g2
Ntp225
Rp226
(dp227
g13
I01
sg14
F0.12937459271217666
sg15
g224
sbs(I6576
I55757
tp228
g0
(g9
g2
Ntp229
Rp230
(dp231
g13
I01
sg14
F1.5098380068162216
sg15
g228
sbs(I40895
I40205
tp232
g0
(g9
g2
Ntp233
Rp234
(dp235
g13
I01
sg14
F0.621574511986217
sg15
g232
sbs(I37201
I20548
tp236
g0
(g9
g2
Ntp237
Rp238
(dp239
g13
I00
sg14
F0.24957161020205137
sg15
g236
sbs(I38569
I39175
tp240
g0
(g9
g2
Ntp241
Rp242
(dp243
g13
I01
sg14
F0.30805813272443683
sg15
g240
sbs(I18791
I2676
tp244
g0
(g9
g2
Ntp245
Rp246
(dp247
g13
I00
sg14
F-0.9000719347241997
sg15
g244
sbs(I33475
I56303
tp248
g0
(g9
g2
Ntp249
Rp250
(dp251
g13
I01
sg14
F1.7939591526659273
sg15
g248
sbs(I22266
I40149
tp252
g0
(g9
g2
Ntp253
Rp254
(dp255
g13
I00
sg14
F2.787414121145928
sg15
g252
sbs(I10670
I55536
tp256
g0
(g9
g2
Ntp257
Rp258
(dp259
g13
I01
sg14
F3.818993249169043
sg15
g256
sbs(I57394
I2
tp260
g0
(g9
g2
Ntp261
Rp262
(dp263
g13
I00
sg14
F0.4352815614234905
sg15
g260
sbs(I19479
I45039
tp264
g0
(g9
g2
Ntp265
Rp266
(dp267
g13
I01
sg14
F0.17743267560143589
sg15
g264
sbs(I20294
I26945
tp268
g0
(g9
g2
Ntp269
Rp270
(dp271
g13
I01
sg14
F3.922077705883944
sg15
g268
sbs(I14061
I6576
tp272
g0
(g9
g2
Ntp273
Rp274
(dp275
g13
I00
sg14
F0.0002690869675224805
sg15
g272
sbs(I-2
I37654
tp276
g0
(g9
g2
Ntp277
Rp278
(dp279
g13
I00
sg14
F0.7149362417395204
sg15
g276
sbs(I-3
I10145
tp280
g0
(g9
g2
Ntp281
Rp282
(dp283
g13
I01
sg14
F0.6188278522908145
sg15
g280
sbs(I10236
I1
tp284
g0
(g9
g2
Ntp285
Rp286
(dp287
g13
I00
sg14
F-2.2608642322067984
sg15
g284
sbs(I55536
I57927
tp288
g0
(g9
g2
Ntp289
Rp290
(dp291
g13
I00
sg14
F2.0012196494977252
sg15
g288
sbs(I20138
I1
tp292
g0
(g9
g2
Ntp293
Rp294
(dp295
g13
I01
sg14
F2.263337829883541
sg15
g292
sbs(I14996
I2
tp296
g0
(g9
g2
Ntp297
Rp298
(dp299
g13
I01
sg14
F-0.03882157869235059
sg15
g296
sbs(I60162
I56975
tp300
g0
(g9
g2
Ntp301
Rp302
(dp303
g13
I00
sg14
F-0.9946698880105682
sg15
g300
sbs(I18988
I33763
tp304
g0
(g9
g2
Ntp305
Rp306
(dp307
g13
I00
sg14
F-1.7582024289211304
sg15
g304
sbs(I27329
I7072
tp308
g0
(g9
g2
Ntp309
Rp310
(dp311
g13
I01
sg14
F0.18218239997772212
sg15
g308
sbs(I60707
I37201
tp312
g0
(g9
g2
Ntp313
Rp314
(dp315
g13
I01
sg14
F3.400408247365604
sg15
g312
sbs(I63384
I33941
tp316
g0
(g9
g2
Ntp317
Rp318
(dp319
g13
I01
sg14
F0.4876376049782267
sg15
g316
sbs(I28820
I40895
tp320
g0
(g9
g2
Ntp321
Rp322
(dp323
g13
I01
sg14
F1.6439772452456443
sg15
g320
sbs(I59400
I1487
tp324
g0
(g9
g2
Ntp325
Rp326
(dp327
g13
I01
sg14
F-0.7987965788120914
sg15
g324
sbs(I56303
I64652
tp328
g0
(g9
g2
Ntp329
Rp330
(dp331
g13
I01
sg14
F0.3622246958215621
sg15
g328
sbs(I7072
I27899
tp332
g0
(g9
g2
Ntp333
Rp334
(dp335
g13
I01
sg14
F3.9593415394217004
sg15
g332
sbs(I37795
I32278
tp336
g0
(g9
g2
Ntp337
Rp338
(dp339
g13
I00
sg14
F-2.7245942669771415
sg15
g336
sbs(I47578
I0
tp340
g0
(g9
g2
Ntp341
Rp342
(dp343
g13
I01
sg14
F0.667964675770493
sg15
g340
sbs(I24379
I55820
tp344
g0
(g9
g2
Ntp345
Rp346
(dp347
g13
I01
sg14
F-0.6101585034929939
sg15
g344
sbs(I31779
I62443
tp348
g0
(g9
g2
Ntp349
Rp350
(dp351
g13
I00
sg14
F1.6158460885494461
sg15
g348
sbs(I45629
I18859
tp352
g0
(g9
g2
Ntp353
Rp354
(dp355
g13
I01
sg14
F-0.002586819536653224
sg15
g352
sbs(I59644
I33749
tp356
g0
(g9
g2
Ntp357
Rp358
(dp359
g13
I00
sg14
F2.7845880567797083
sg15
g356
sbs(I53670
I61401
tp360
g0
(g9
g2
Ntp361
Rp362
(dp363
g13
I01
sg14
F-2.5486513850261097
sg15
g360
sbs(I53395
I57849
tp364
g0
(g9
g2
Ntp365
Rp366
(dp367
g13
I01
sg14
F-1.4954718628136394
sg15
g364
sbs(I38743
I2
tp368
g0
(g9
g2
Ntp369
Rp370
(dp371
g13
I00
sg14
F-0.041665775067286415
sg15
g368
sbs(I18859
I21422
tp372
g0
(g9
g2
Ntp373
Rp374
(dp375
g13
I01
sg14
F-0.21743824528162284
sg15
g372
sbs(I18859
I2933
tp376
g0
(g9
g2
Ntp377
Rp378
(dp379
g13
I00
sg14
F-0.9781598073231401
sg15
g376
sbs(I49459
I7072
tp380
g0
(g9
g2
Ntp381
Rp382
(dp383
g13
I01
sg14
F-0.39087963244856583
sg15
g380
sbs(I10145
I8573
tp384
g0
(g9
g2
Ntp385
Rp386
(dp387
g13
I01
sg14
F-0.5807054112376021
sg15
g384
sbs(I8735
I45726
tp388
g0
(g9
g2
Ntp389
Rp390
(dp391
g13
I01
sg14
F0.46865280547125515
sg15
g388
sbs(I46241
I1487
tp392
g0
(g9
g2
Ntp393
Rp394
(dp395
g13
I00
sg14
F0.5734595944643948
sg15
g392
sbs(I26146
I48229
tp396
g0
(g9
g2
Ntp397
Rp398
(dp399
g13
I01
sg14
F-0.1279898910629782
sg15
g396
sbs(I39175
I60162
tp400
g0
(g9
g2
Ntp401
Rp402
(dp403
g13
I01
sg14
F0.47807411641096537
sg15
g400
sbs(I-1
I1
tp404
g0
(g9
g2
Ntp405
Rp406
(dp407
g13
I01
sg14
F0.10539857423226695
sg15
g404
sbs(I37553
I24379
tp408
g0
(g9
g2
Ntp409
Rp410
(dp411
g13
I00
sg14
F-1.2471601351379726
sg15
g408
sbs(I53395
I59644
tp412
g0
(g9
g2
Ntp413
Rp414
(dp415
g13
I01
sg14
F-1.0944736936058632
sg15
g412
sbs(I8094
I33749
tp416
g0
(g9
g2
Ntp417
Rp418
(dp419
g13
I01
sg14
F0.0012574858339615327
sg15
g416
sbs(I10670
I8094
tp420
g0
(g9
g2
Ntp421
Rp422
(dp423
g13
I01
sg14
F1.2137172268637682
sg15
g420
sbs(I19479
I57611
tp424
g0
(g9
g2
Ntp425
Rp426
(dp427
g13
I01
sg14
F2.0456769846233738
sg15
g424
sbs(I19890
I27899
tp428
g0
(g9
g2
Ntp429
Rp430
(dp431
g13
I01
sg14
F0.5409451782096439
sg15
g428
sbs(I52165
I40149
tp432
g0
(g9
g2
Ntp433
Rp434
(dp435
g13
I00
sg14
F0.40952842095261505
sg15
g432
sbs(I22151
I57394
tp436
g0
(g9
g2
Ntp437
Rp438
(dp439
g13
I01
sg14
F0.3195547109104814
sg15
g436
sbs(I27899
I6576
tp440
g0
(g9
g2
Ntp441
Rp442
(dp443
g13
I00
sg14
F0.3666706387453355
sg15
g440
sbs(I10993
I26296
tp444
g0
(g9
g2
Ntp445
Rp446
(dp447
g13
I00
sg14
F0.1645401916508732
sg15
g444
sbs(I2334
I20138
tp448
g0
(g9
g2
Ntp449
Rp450
(dp451
g13
I00
sg14
F-1.7279436211106023
sg15
g448
sbs(I1487
I59744
tp452
g0
(g9
g2
Ntp453
Rp454
(dp455
g13
I01
sg14
F0.30796478106240044
sg15
g452
sbs(I57053
I65219
tp456
g0
(g9
g2
Ntp457
Rp458
(dp459
g13
I01
sg14
F2.059279768021171
sg15
g456
sbs(I59644
I47578
tp460
g0
(g9
g2
Ntp461
Rp462
(dp463
g13
I01
sg14
F-2.0798187615873527
sg15
g460
sbs(I14996
I6576
tp464
g0
(g9
g2
Ntp465
Rp466
(dp467
g13
I00
sg14
F-0.13039583483171852
sg15
g464
sbs(I47407
I45039
tp468
g0
(g9
g2
Ntp469
Rp470
(dp471
g13
I00
sg14
F-2.0305733333442344
sg15
g468
sbs(I64552
I47407
tp472
g0
(g9
g2
Ntp473
Rp474
(dp475
g13
I01
sg14
F-0.7390226244949726
sg15
g472
sbs(I28586
I12386
tp476
g0
(g9
g2
Ntp477
Rp478
(dp479
g13
I01
sg14
F-2.073971649696788
sg15
g476
sbs(I58258
I8094
tp480
g0
(g9
g2
Ntp481
Rp482
(dp483
g13
I01
sg14
F-1.1448078901834042
sg15
g480
sbs(I37795
I13187
tp484
g0
(g9
g2
Ntp485
Rp486
(dp487
g13
I01
sg14
F-1.723382890187911
sg15
g484
sbs(I52396
I27899
tp488
g0
(g9
g2
Ntp489
Rp490
(dp491
g13
I01
sg14
F-0.22429008906200953
sg15
g488
sbs(I34365
I38569
tp492
g0
(g9
g2
Ntp493
Rp494
(dp495
g13
I00
sg14
F0.6495093912419229
sg15
g492
sbs(I7072
I64920
tp496
g0
(g9
g2
Ntp497
Rp498
(dp499
g13
I01
sg14
F0.036828355152205346
sg15
g496
sbs(I39727
I0
tp500
g0
(g9
g2
Ntp501
Rp502
(dp503
g13
I00
sg14
F3.138987781860018
sg15
g500
sbs(I12386
I30428
tp504
g0
(g9
g2
Ntp505
Rp506
(dp507
g13
I01
sg14
F-2.033057153524966
sg15
g504
sbs(I33763
I2933
tp508
g0
(g9
g2
Ntp509
Rp510
(dp511
g13
I00
sg14
F2.5439544850794515
sg15
g508
sbs(I56494
I1
tp512
g0
(g9
g2
Ntp513
Rp514
(dp515
g13
I00
sg14
F-1.5539903364486625
sg15
g512
sbs(I8735
I22205
tp516
g0
(g9
g2
Ntp517
Rp518
(dp519
g13
I00
sg14
F1.3087296301357227
sg15
g516
sbs(I62642
I47027
tp520
g0
(g9
g2
Ntp521
Rp522
(dp523
g13
I01
sg14
F-0.8105796646376443
sg15
g520
sbs(I50511
I25732
tp524
g0
(g9
g2
Ntp525
Rp526
(dp527
g13
I00
sg14
F1.4083588941449365
sg15
g524
sbs(I29035
I18222
tp528
g0
(g9
g2
Ntp529
Rp530
(dp531
g13
I01
sg14
F0.8172339174843124
sg15
g528
sbs(I21310
I34782
tp532
g0
(g9
g2
Ntp533
Rp534
(dp535
g13
I00
sg14
F-2.5075457653059035
sg15
g532
sbs(I56494
I36931
tp536
g0
(g9
g2
Ntp537
Rp538
(dp539
g13
I01
sg14
F0.38292285031891976
sg15
g536
sbs(I36931
I22151
tp540
g0
(g9
g2
Ntp541
Rp542
(dp543
g13
I01
sg14
F0.5019121091707814
sg15
g540
sbs(I5238
I1
tp544
g0
(g9
g2
Ntp545
Rp546
(dp547
g13
I00
sg14
F0.5591085409661483
sg15
g544
sbs(I14996
I53519
tp548
g0
(g9
g2
Ntp549
Rp550
(dp551
g13
I00
sg14
F-2.387212322108418
sg15
g548
sbs(I47578
I57300
tp552
g0
(g9
g2
Ntp553
Rp554
(dp555
g13
I00
sg14
F0.5561119411240592
sg15
g552
sbs(I41626
I26296
tp556
g0
(g9
g2
Ntp557
Rp558
(dp559
g13
I00
sg14
F-1.5131454362854877
sg15
g556
sbs(I50952
I25347
tp560
g0
(g9
g2
Ntp561
Rp562
(dp563
g13
I01
sg14
F-0.857047203157157
sg15
g560
sbs(I57053
I25347
tp564
g0
(g9
g2
Ntp565
Rp566
(dp567
g13
I00
sg14
F0.31552428401380533
sg15
g564
sbs(I35612
I12386
tp568
g0
(g9
g2
Ntp569
Rp570
(dp571
g13
I01
sg14
F-1.4575953665530983
sg15
g568
sbs(I44547
I7072
tp572
g0
(g9
g2
Ntp573
Rp574
(dp575
g13
I01
sg14
F-0.3877755924083193
sg15
g572
sbs(I26945
I17905
tp576
g0
(g9
g2
Ntp577
Rp578
(dp579
g13
I01
sg14
F2.8607722462755643
sg15
g576
sbs(I44619
I47027
tp580
g0
(g9
g2
Ntp581
Rp582
(dp583
g13
I01
sg14
F-2.397906439242609
sg15
g580
sbs(I23572
I8573
tp584
g0
(g9
g2
Ntp585
Rp586
(dp587
g13
I01
sg14
F2.099737591249772
sg15
g584
sbs(I45726
I30428
tp588
g0
(g9
g2
Ntp589
Rp590
(dp591
g13
I00
sg14
F0.8332086655484415
sg15
g588
sbs(I18222
I47578
tp592
g0
(g9
g2
Ntp593
Rp594
(dp595
g13
I01
sg14
F1.6861230897788588
sg15
g592
sbs(I-2
I8735
tp596
g0
(g9
g2
Ntp597
Rp598
(dp599
g13
I01
sg14
F5.117024649678627
sg15
g596
sbs(I52523
I14286
tp600
g0
(g9
g2
Ntp601
Rp602
(dp603
g13
I00
sg14
F1.7664750663526323
sg15
g600
sbs(I6576
I2676
tp604
g0
(g9
g2
Ntp605
Rp606
(dp607
g13
I00
sg14
F0.40098632310727544
sg15
g604
sbs(I-1
I25732
tp608
g0
(g9
g2
Ntp609
Rp610
(dp611
g13
I01
sg14
F2.797037139010685
sg15
g608
sbs(I49640
I2
tp612
g0
(g9
g2
Ntp613
Rp614
(dp615
g13
I00
sg14
F-0.17342177361667588
sg15
g612
sbs(I37654
I40149
tp616
g0
(g9
g2
Ntp617
Rp618
(dp619
g13
I01
sg14
F-0.5678760761088206
sg15
g616
sbs(I58258
I0
tp620
g0
(g9
g2
Ntp621
Rp622
(dp623
g13
I00
sg14
F0.17893519349978607
sg15
g620
sbs(I48626
I14061
tp624
g0
(g9
g2
Ntp625
Rp626
(dp627
g13
I00
sg14
F0.5298961128791023
sg15
g624
sbs(I7831
I29648
tp628
g0
(g9
g2
Ntp629
Rp630
(dp631
g13
I01
sg14
F-0.01906683690753172
sg15
g628
sbs(I15111
I47407
tp632
g0
(g9
g2
Ntp633
Rp634
(dp635
g13
I01
sg14
F-1.775604658047174
sg15
g632
sbs(I32830
I33941
tp636
g0
(g9
g2
Ntp637
Rp638
(dp639
g13
I00
sg14
F-0.08473972283482106
sg15
g636
sbs(I55405
I32939
tp640
g0
(g9
g2
Ntp641
Rp642
(dp643
g13
I00
sg14
F1.0864946745563853
sg15
g640
sbs(I34202
I19479
tp644
g0
(g9
g2
Ntp645
Rp646
(dp647
g13
I00
sg14
F-1.0244149351821488
sg15
g644
sbs(I-2
I1
tp648
g0
(g9
g2
Ntp649
Rp650
(dp651
g13
I01
sg14
F0.5251735262778509
sg15
g648
sbs(I-1
I39817
tp652
g0
(g9
g2
Ntp653
Rp654
(dp655
g13
I00
sg14
F2.9173851427062543
sg15
g652
sbs(I30039
I27329
tp656
g0
(g9
g2
Ntp657
Rp658
(dp659
g13
I00
sg14
F-1.2167276470850161
sg15
g656
sbs(I7831
I51255
tp660
g0
(g9
g2
Ntp661
Rp662
(dp663
g13
I01
sg14
F0.1600373990795308
sg15
g660
sbs(I23572
I15456
tp664
g0
(g9
g2
Ntp665
Rp666
(dp667
g13
I01
sg14
F-0.13183593891967182
sg15
g664
sbs(I-4
I47618
tp668
g0
(g9
g2
Ntp669
Rp670
(dp671
g13
I01
sg14
F-2.1918554670705324
sg15
g668
sbs(I44183
I40398
tp672
g0
(g9
g2
Ntp673
Rp674
(dp675
g13
I01
sg14
F-1.026167747856686
sg15
g672
sbs(I54313
I8094
tp676
g0
(g9
g2
Ntp677
Rp678
(dp679
g13
I00
sg14
F-7.052421746329325
sg15
g676
sbs(I63493
I26296
tp680
g0
(g9
g2
Ntp681
Rp682
(dp683
g13
I00
sg14
F1.3948485144726661
sg15
g680
sbs(I14286
I2
tp684
g0
(g9
g2
Ntp685
Rp686
(dp687
g13
I00
sg14
F0.18170827117065702
sg15
g684
sbs(I28820
I14061
tp688
g0
(g9
g2
Ntp689
Rp690
(dp691
g13
I01
sg14
F-1.699843842459855
sg15
g688
sbs(I28820
I55405
tp692
g0
(g9
g2
Ntp693
Rp694
(dp695
g13
I00
sg14
F0.5389754236014525
sg15
g692
sbs(I39175
I56494
tp696
g0
(g9
g2
Ntp697
Rp698
(dp699
g13
I01
sg14
F0.5269938552508112
sg15
g696
sbs(I48534
I30978
tp700
g0
(g9
g2
Ntp701
Rp702
(dp703
g13
I01
sg14
F0.8724446937454222
sg15
g700
sbs(I-1
I45039
tp704
g0
(g9
g2
Ntp705
Rp706
(dp707
g13
I01
sg14
F-3.850622543916683
sg15
g704
sbs(I2334
I0
tp708
g0
(g9
g2
Ntp709
Rp710
(dp711
g13
I01
sg14
F1.376578525100805
sg15
g708
sbs(I7072
I28820
tp712
g0
(g9
g2
Ntp713
Rp714
(dp715
g13
I00
sg14
F0.15959132381233276
sg15
g712
sbs(I59744
I36761
tp716
g0
(g9
g2
Ntp717
Rp718
(dp719
g13
I01
sg14
F-1.206179536030978
sg15
g716
sbs(I18077
I25961
tp720
g0
(g9
g2
Ntp721
Rp722
(dp723
g13
I01
sg14
F1.355688720904456
sg15
g720
sbs(I-4
I46241
tp724
g0
(g9
g2
Ntp725
Rp726
(dp727
g13
I01
sg14
F-0.30846250949929244
sg15
g724
sbs(I21310
I21422
tp728
g0
(g9
g2
Ntp729
Rp730
(dp731
g13
I00
sg14
F0.6668091540990018
sg15
g728
sbs(I58475
I2933
tp732
g0
(g9
g2
Ntp733
Rp734
(dp735
g13
I01
sg14
F-3.4148761920842947
sg15
g732
sbs(I42100
I25732
tp736
g0
(g9
g2
Ntp737
Rp738
(dp739
g13
I00
sg14
F-2.3180929170033497
sg15
g736
sbs(I27899
I45159
tp740
g0
(g9
g2
Ntp741
Rp742
(dp743
g13
I00
sg14
F0.9189666987063639
sg15
g740
sbs(I48626
I64595
tp744
g0
(g9
g2
Ntp745
Rp746
(dp747
g13
I01
sg14
F4.174211961987838
sg15
g744
sbs(I58258
I59196
tp748
g0
(g9
g2
Ntp749
Rp750
(dp751
g13
I00
sg14
F0.7619712765573365
sg15
g748
sbs(I55536
I47407
tp752
g0
(g9
g2
Ntp753
Rp754
(dp755
g13
I00
sg14
F1.7759827937470798
sg15
g752
sbs(I45629
I40205
tp756
g0
(g9
g2
Ntp757
Rp758
(dp759
g13
I01
sg14
F-2.1368587207248604
sg15
g756
sbs(I22266
I1487
tp760
g0
(g9
g2
Ntp761
Rp762
(dp763
g13
I00
sg14
F0.5213053510994787
sg15
g760
sbs(I18859
I58475
tp764
g0
(g9
g2
Ntp765
Rp766
(dp767
g13
I00
sg14
F-1.112981478526976
sg15
g764
sbs(I37201
I63932
tp768
g0
(g9
g2
Ntp769
Rp770
(dp771
g13
I01
sg14
F-0.9131077154078817
sg15
g768
sbs(I-2
I10670
tp772
g0
(g9
g2
Ntp773
Rp774
(dp775
g13
I01
sg14
F0.0020121940632570334
sg15
g772
sbs(I-3
I2334
tp776
g0
(g9
g2
Ntp777
Rp778
(dp779
g13
I01
sg14
F-1.8339531444010508
sg15
g776
sbs(I51255
I30039
tp780
g0
(g9
g2
Ntp781
Rp782
(dp783
g13
I01
sg14
F4.752520512180281
sg15
g780
sbs(I5238
I44388
tp784
g0
(g9
g2
Ntp785
Rp786
(dp787
g13
I00
sg14
F-1.2239870454451378
sg15
g784
sbs(I51210
I42100
tp788
g0
(g9
g2
Ntp789
Rp790
(dp791
g13
I00
sg14
F-2.8654916424695913
sg15
g788
sbs(I45039
I39817
tp792
g0
(g9
g2
Ntp793
Rp794
(dp795
g13
I01
sg14
F-1.0341759367589578
sg15
g792
sbs(I50631
I19479
tp796
g0
(g9
g2
Ntp797
Rp798
(dp799
g13
I00
sg14
F0.8963542176231931
sg15
g796
sbs(I-3
I59439
tp800
g0
(g9
g2
Ntp801
Rp802
(dp803
g13
I01
sg14
F1.1149357944457237
sg15
g800
sbs(I42506
I36931
tp804
g0
(g9
g2
Ntp805
Rp806
(dp807
g13
I00
sg14
F0.9433716876017854
sg15
g804
sbs(I60227
I24379
tp808
g0
(g9
g2
Ntp809
Rp810
(dp811
g13
I01
sg14
F0.1817324092640577
sg15
g808
sbs(I33749
I26296
tp812
g0
(g9
g2
Ntp813
Rp814
(dp815
g13
I01
sg14
F2.4573179985748066
sg15
g812
sbs(I10993
I19890
tp816
g0
(g9
g2
Ntp817
Rp818
(dp819
g13
I00
sg14
F-0.4890661101463334
sg15
g816
sbs(I56425
I7072
tp820
g0
(g9
g2
Ntp821
Rp822
(dp823
g13
I00
sg14
F-0.8340681895589752
sg15
g820
sbs(I-1
I47407
tp824
g0
(g9
g2
Ntp825
Rp826
(dp827
g13
I00
sg14
F-0.3439322021844742
sg15
g824
sbs(I22266
I59400
tp828
g0
(g9
g2
Ntp829
Rp830
(dp831
g13
I01
sg14
F0.10258037977482456
sg15
g828
sbs(I54472
I1
tp832
g0
(g9
g2
Ntp833
Rp834
(dp835
g13
I01
sg14
F2.0405670470881785
sg15
g832
sbs(I12386
I50952
tp836
g0
(g9
g2
Ntp837
Rp838
(dp839
g13
I01
sg14
F1.1518086098036338
sg15
g836
sbs(I55757
I40398
tp840
g0
(g9
g2
Ntp841
Rp842
(dp843
g13
I01
sg14
F-0.3297111814267254
sg15
g840
sbs(I57611
I13187
tp844
g0
(g9
g2
Ntp845
Rp846
(dp847
g13
I01
sg14
F0.23554690081773688
sg15
g844
sbs(I18077
I7072
tp848
g0
(g9
g2
Ntp849
Rp850
(dp851
g13
I00
sg14
F-4.124594949699038
sg15
g848
sbs(I57300
I0
tp852
g0
(g9
g2
Ntp853
Rp854
(dp855
g13
I01
sg14
F-0.6014268337616815
sg15
g852
sbs(I61020
I2
tp856
g0
(g9
g2
Ntp857
Rp858
(dp859
g13
I01
sg14
F3.2407042681488027
sg15
g856
sbs(I44619
I62642
tp860
g0
(g9
g2
Ntp861
Rp862
(dp863
g13
I01
sg14
F-0.8208515796723911
sg15
g860
sbs(I30383
I34365
tp864
g0
(g9
g2
Ntp865
Rp866
(dp867
g13
I01
sg14
F-3.569492705879916
sg15
g864
sbs(I26146
I25347
tp868
g0
(g9
g2
Ntp869
Rp870
(dp871
g13
I01
sg14
F0.1612999175216121
sg15
g868
sbs(I64595
I14061
tp872
g0
(g9
g2
Ntp873
Rp874
(dp875
g13
I01
sg14
F0.16754045709746768
sg15
g872
sbs(I2676
I37553
tp876
g0
(g9
g2
Ntp877
Rp878
(dp879
g13
I01
sg14
F-2.3938761878282397
sg15
g876
sbs(I15111
I52523
tp880
g0
(g9
g2
Ntp881
Rp882
(dp883
g13
I00
sg14
F-0.21992301814856768
sg15
g880
sbs(I10670
I59337
tp884
g0
(g9
g2
Ntp885
Rp886
(dp887
g13
I00
sg14
F0.7412699053624418
sg15
g884
sbs(I33571
I24379
tp888
g0
(g9
g2
Ntp889
Rp890
(dp891
g13
I01
sg14
F0.4758199988816889
sg15
g888
sbs(I-1
I55536
tp892
g0
(g9
g2
Ntp893
Rp894
(dp895
g13
I00
sg14
F0.11817014085414301
sg15
g892
sbs(I48229
I8573
tp896
g0
(g9
g2
Ntp897
Rp898
(dp899
g13
I00
sg14
F1.064069722497884
sg15
g896
sbs(I33571
I60227
tp900
g0
(g9
g2
Ntp901
Rp902
(dp903
g13
I00
sg14
F-0.6147022164888432
sg15
g900
sbs(I26945
I52396
tp904
g0
(g9
g2
Ntp905
Rp906
(dp907
g13
I00
sg14
F-0.3887386395789628
sg15
g904
sbs(I25347
I55757
tp908
g0
(g9
g2
Ntp909
Rp910
(dp911
g13
I01
sg14
F0.20067097253571617
sg15
g908
sbs(I2334
I25347
tp912
g0
(g9
g2
Ntp913
Rp914
(dp915
g13
I00
sg14
F3.6735546231355136
sg15
g912
sbs(I-1
I54688
tp916
g0
(g9
g2
Ntp917
Rp918
(dp919
g13
I01
sg14
F1.9291078263218095
sg15
g916
sbs(I25347
I54964
tp920
g0
(g9
g2
Ntp921
Rp922
(dp923
g13
I00
sg14
F4.492407310121917
sg15
g920
sbs(I56303
I40895
tp924
g0
(g9
g2
Ntp925
Rp926
(dp927
g13
I01
sg14
F2.0824480910277408
sg15
g924
sbs(I63178
I57394
tp928
g0
(g9
g2
Ntp929
Rp930
(dp931
g13
I01
sg14
F-0.6522839576411195
sg15
g928
sbs(I-1
I44619
tp932
g0
(g9
g2
Ntp933
Rp934
(dp935
g13
I01
sg14
F0.26342928378586666
sg15
g932
sbs(I10993
I33749
tp936
g0
(g9
g2
Ntp937
Rp938
(dp939
g13
I00
sg14
F0.36369712399230486
sg15
g936
sbs(I22266
I52165
tp940
g0
(g9
g2
Ntp941
Rp942
(dp943
g13
I00
sg14
F1.167558851772033
sg15
g940
sbs(I55536
I44388
tp944
g0
(g9
g2
Ntp945
Rp946
(dp947
g13
I01
sg14
F0.6953213567467906
sg15
g944
sbs(I35612
I14286
tp948
g0
(g9
g2
Ntp949
Rp950
(dp951
g13
I01
sg14
F1.6655089814488038
sg15
g948
sbs(I28134
I32278
tp952
g0
(g9
g2
Ntp953
Rp954
(dp955
g13
I01
sg14
F-0.41576844113642153
sg15
g952
sbs(I18859
I36931
tp956
g0
(g9
g2
Ntp957
Rp958
(dp959
g13
I00
sg14
F-2.036879141061416
sg15
g956
sbs(I36761
I25961
tp960
g0
(g9
g2
Ntp961
Rp962
(dp963
g13
I00
sg14
F-7.449922995063491
sg15
g960
sbs(I5238
I27329
tp964
g0
(g9
g2
Ntp965
Rp966
(dp967
g13
I01
sg14
F-0.5472640762468498
sg15
g964
sbs(I34202
I2676
tp968
g0
(g9
g2
Ntp969
Rp970
(dp971
g13
I01
sg14
F-1.8069679411919828
sg15
g968
sbs(I2933
I40398
tp972
g0
(g9
g2
Ntp973
Rp974
(dp975
g13
I00
sg14
F1.2840306755970572
sg15
g972
sbs(I58258
I61792
tp976
g0
(g9
g2
Ntp977
Rp978
(dp979
g13
I01
sg14
F-2.1267515304291176
sg15
g976
sbs(I-3
I15111
tp980
g0
(g9
g2
Ntp981
Rp982
(dp983
g13
I01
sg14
F-0.7383115183323156
sg15
g980
sbs(I10993
I53670
tp984
g0
(g9
g2
Ntp985
Rp986
(dp987
g13
I01
sg14
F0.17975535364625594
sg15
g984
sbs(I53519
I6576
tp988
g0
(g9
g2
Ntp989
Rp990
(dp991
g13
I01
sg14
F-2.729632649955963
sg15
g988
sbs(I50846
I61792
tp992
g0
(g9
g2
Ntp993
Rp994
(dp995
g13
I00
sg14
F-0.9897275723452132
sg15
g992
sbs(I7831
I30039
tp996
g0
(g9
g2
Ntp997
Rp998
(dp999
g13
I00
sg14
F-1.8065963968140661
sg15
g996
sbs(I39175
I19890
tp1000
g0
(g9
g2
Ntp1001
Rp1002
(dp1003
g13
I00
sg14
F-1.48650349813665
sg15
g1000
sbs(I63932
I50952
tp1004
g0
(g9
g2
Ntp1005
Rp1006
(dp1007
g13
I01
sg14
F-1.6468571180174414
sg15
g1004
sbs(I60296
I10145
tp1008
g0
(g9
g2
Ntp1009
Rp1010
(dp1011
g13
I01
sg14
F1.7227093405719545
sg15
g1008
sbs(I64652
I40895
tp1012
g0
(g9
g2
Ntp1013
Rp1014
(dp1015
g13
I01
sg14
F0.6781262404588433
sg15
g1012
sbs(I44183
I33941
tp1016
g0
(g9
g2
Ntp1017
Rp1018
(dp1019
g13
I01
sg14
F-0.5092320910867522
sg15
g1016
sbs(I-3
I2
tp1020
g0
(g9
g2
Ntp1021
Rp1022
(dp1023
g13
I01
sg14
F0.5059598889896118
sg15
g1020
sbs(I18222
I0
tp1024
g0
(g9
g2
Ntp1025
Rp1026
(dp1027
g13
I00
sg14
F-0.826032881625568
sg15
g1024
sbs(I49640
I61020
tp1028
g0
(g9
g2
Ntp1029
Rp1030
(dp1031
g13
I01
sg14
F-0.5844521184060556
sg15
g1028
sbs(I25347
I18791
tp1032
g0
(g9
g2
Ntp1033
Rp1034
(dp1035
g13
I00
sg14
F-1.7202664491485504
sg15
g1032
sbs(I56975
I56494
tp1036
g0
(g9
g2
Ntp1037
Rp1038
(dp1039
g13
I01
sg14
F0.24210130886378542
sg15
g1036
sbs(I47578
I58258
tp1040
g0
(g9
g2
Ntp1041
Rp1042
(dp1043
g13
I00
sg14
F-0.5944833686100466
sg15
g1040
sbs(I33571
I0
tp1044
g0
(g9
g2
Ntp1045
Rp1046
(dp1047
g13
I00
sg14
F0.6243435224601903
sg15
g1044
sbs(I60742
I27664
tp1048
g0
(g9
g2
Ntp1049
Rp1050
(dp1051
g13
I01
sg14
F-0.08749186892728134
sg15
g1048
sbs(I63812
I62205
tp1052
g0
(g9
g2
Ntp1053
Rp1054
(dp1055
g13
I01
sg14
F-0.7862622879896339
sg15
g1052
sbs(I33571
I39727
tp1056
g0
(g9
g2
Ntp1057
Rp1058
(dp1059
g13
I01
sg14
F-2.122674040550259
sg15
g1056
sbs(I55820
I45039
tp1060
g0
(g9
g2
Ntp1061
Rp1062
(dp1063
g13
I00
sg14
F1.6574832800945933
sg15
g1060
sbs(I18222
I53996
tp1064
g0
(g9
g2
Ntp1065
Rp1066
(dp1067
g13
I01
sg14
F0.4326266414476267
sg15
g1064
sbs(I29565
I18077
tp1068
g0
(g9
g2
Ntp1069
Rp1070
(dp1071
g13
I01
sg14
F0.8049825824619882
sg15
g1068
sbs(I18791
I34202
tp1072
g0
(g9
g2
Ntp1073
Rp1074
(dp1075
g13
I01
sg14
F-0.2293963096039233
sg15
g1072
sbs(I39175
I1
tp1076
g0
(g9
g2
Ntp1077
Rp1078
(dp1079
g13
I00
sg14
F0.7594814865152524
sg15
g1076
sbs(I26945
I27899
tp1080
g0
(g9
g2
Ntp1081
Rp1082
(dp1083
g13
I01
sg14
F-2.8800772603568925
sg15
g1080
sbs(I60162
I62205
tp1084
g0
(g9
g2
Ntp1085
Rp1086
(dp1087
g13
I00
sg14
F2.0624111720894946
sg15
g1084
sbs(I33475
I40895
tp1088
g0
(g9
g2
Ntp1089
Rp1090
(dp1091
g13
I00
sg14
F-0.06656556943482739
sg15
g1088
sbs(I-2
I20138
tp1092
g0
(g9
g2
Ntp1093
Rp1094
(dp1095
g13
I01
sg14
F1.7917964751340674
sg15
g1092
sbs(I38124
I37553
tp1096
g0
(g9
g2
Ntp1097
Rp1098
(dp1099
g13
I01
sg14
F1.279544610611245
sg15
g1096
sbs(I-4
I0
tp1100
g0
(g9
g2
Ntp1101
Rp1102
(dp1103
g13
I01
sg14
F0.6288645445993578
sg15
g1100
sbs(I10993
I41626
tp1104
g0
(g9
g2
Ntp1105
Rp1106
(dp1107
g13
I01
sg14
F1.2972172756514735
sg15
g1104
sbs(I57611
I45039
tp1108
g0
(g9
g2
Ntp1109
Rp1110
(dp1111
g13
I00
sg14
F-0.5800113084739438
sg15
g1108
sbs(I2334
I57053
tp1112
g0
(g9
g2
Ntp1113
Rp1114
(dp1115
g13
I00
sg14
F0.7136904694150354
sg15
g1112
sbs(I15111
I64552
tp1116
g0
(g9
g2
Ntp1117
Rp1118
(dp1119
g13
I01
sg14
F-0.3660621511801781
sg15
g1116
sbs(I32830
I63384
tp1120
g0
(g9
g2
Ntp1121
Rp1122
(dp1123
g13
I01
sg14
F-2.2596108977471716
sg15
g1120
sbs(I54964
I18791
tp1124
g0
(g9
g2
Ntp1125
Rp1126
(dp1127
g13
I00
sg14
F-3.364011057700538
sg15
g1124
sbs(I33749
I56494
tp1128
g0
(g9
g2
Ntp1129
Rp1130
(dp1131
g13
I01
sg14
F-0.6785098437699396
sg15
g1128
sbs(I18791
I2
tp1132
g0
(g9
g2
Ntp1133
Rp1134
(dp1135
g13
I01
sg14
F0.7077046318934888
sg15
g1132
sbs(I63932
I20548
tp1136
g0
(g9
g2
Ntp1137
Rp1138
(dp1139
g13
I01
sg14
F0.3989376029682788
sg15
g1136
sbs(I2334
I50952
tp1140
g0
(g9
g2
Ntp1141
Rp1142
(dp1143
g13
I00
sg14
F1.9422370016945534
sg15
g1140
sbs(I40205
I14061
tp1144
g0
(g9
g2
Ntp1145
Rp1146
(dp1147
g13
I00
sg14
F0.17853874034612588
sg15
g1144
sbs(I54636
I48626
tp1148
g0
(g9
g2
Ntp1149
Rp1150
(dp1151
g13
I00
sg14
F2.414585477537738
sg15
g1148
sbs(I61401
I19890
tp1152
g0
(g9
g2
Ntp1153
Rp1154
(dp1155
g13
I00
sg14
F0.7088085014473094
sg15
g1152
sbs(I28134
I53276
tp1156
g0
(g9
g2
Ntp1157
Rp1158
(dp1159
g13
I01
sg14
F-0.0030864249830771934
sg15
g1156
sbs(I2676
I10236
tp1160
g0
(g9
g2
Ntp1161
Rp1162
(dp1163
g13
I01
sg14
F1.653836949080331
sg15
g1160
sbs(I27329
I56425
tp1164
g0
(g9
g2
Ntp1165
Rp1166
(dp1167
g13
I01
sg14
F2.8002376860706
sg15
g1164
sbs(I18077
I36761
tp1168
g0
(g9
g2
Ntp1169
Rp1170
(dp1171
g13
I00
sg14
F0.6542657223234712
sg15
g1168
sbs(I64920
I27899
tp1172
g0
(g9
g2
Ntp1173
Rp1174
(dp1175
g13
I01
sg14
F-0.6808918325078906
sg15
g1172
sbs(I8573
I2334
tp1176
g0
(g9
g2
Ntp1177
Rp1178
(dp1179
g13
I01
sg14
F0.15700146323519745
sg15
g1176
sbs(I53748
I59644
tp1180
g0
(g9
g2
Ntp1181
Rp1182
(dp1183
g13
I00
sg14
F4.431311227688983
sg15
g1180
sbs(I25347
I40398
tp1184
g0
(g9
g2
Ntp1185
Rp1186
(dp1187
g13
I00
sg14
F1.0067635880762158
sg15
g1184
sbs(I36931
I47027
tp1188
g0
(g9
g2
Ntp1189
Rp1190
(dp1191
g13
I01
sg14
F0.7153704687765102
sg15
g1188
sbs(I22151
I63178
tp1192
g0
(g9
g2
Ntp1193
Rp1194
(dp1195
g13
I01
sg14
F2.289086998644932
sg15
g1192
sbs(I14996
I49640
tp1196
g0
(g9
g2
Ntp1197
Rp1198
(dp1199
g13
I00
sg14
F1.5613697543909797
sg15
g1196
sbs(I34202
I50631
tp1200
g0
(g9
g2
Ntp1201
Rp1202
(dp1203
g13
I01
sg14
F-1.2840253034473061
sg15
g1200
sbs(I58692
I15111
tp1204
g0
(g9
g2
Ntp1205
Rp1206
(dp1207
g13
I01
sg14
F1.6783917099174053
sg15
g1204
sbs(I42506
I2
tp1208
g0
(g9
g2
Ntp1209
Rp1210
(dp1211
g13
I01
sg14
F-0.16386204596892018
sg15
g1208
sbs(I65219
I25347
tp1212
g0
(g9
g2
Ntp1213
Rp1214
(dp1215
g13
I00
sg14
F0.893403737337191
sg15
g1212
sbs(I-2
I38569
tp1216
g0
(g9
g2
Ntp1217
Rp1218
(dp1219
g13
I01
sg14
F-0.5466082658871789
sg15
g1216
sbs(I51497
I18988
tp1220
g0
(g9
g2
Ntp1221
Rp1222
(dp1223
g13
I01
sg14
F1.0377215156305155
sg15
g1220
sbs(I28329
I18791
tp1224
g0
(g9
g2
Ntp1225
Rp1226
(dp1227
g13
I00
sg14
F-3.4430199150626435
sg15
g1224
sbssS'nodes'
p1228
(dp1229
I0
g0
(cneat.genes
DefaultNodeGene
p1230
g2
Ntp1231
Rp1232
(dp1233
S'activation'
p1234
S'sigmoid'
p1235
sS'bias'
p1236
F0.6057217762845956
sS'response'
p1237
F1.0
sg15
I0
sS'aggregation'
p1238
S'sum'
p1239
sbsI1
g0
(g1230
g2
Ntp1240
Rp1241
(dp1242
g1234
g1235
sg1236
F1.021954719403578
sg1237
F1.0
sg15
I1
sg1238
g1239
sbsI2
g0
(g1230
g2
Ntp1243
Rp1244
(dp1245
g1234
g1235
sg1236
F-2.008980279262313
sg1237
F1.0
sg15
I2
sg1238
g1239
sbsI3
g0
(g1230
g2
Ntp1246
Rp1247
(dp1248
g1234
g1235
sg1236
F-0.6300622347955402
sg1237
F1.0
sg15
I3
sg1238
g1239
sbsI63493
g0
(g1230
g2
Ntp1249
Rp1250
(dp1251
g1234
g1235
sg1236
F-1.5089547216726056
sg1237
F1.0
sg15
I63493
sg1238
g1239
sbsI59400
g0
(g1230
g2
Ntp1252
Rp1253
(dp1254
g1234
g1235
sg1236
F0.04528935341261273
sg1237
F1.0
sg15
I59400
sg1238
g1239
sbsI42506
g0
(g1230
g2
Ntp1255
Rp1256
(dp1257
g1234
g1235
sg1236
F-1.8165127217728094
sg1237
F1.0
sg15
I42506
sg1238
g1239
sbsI38743
g0
(g1230
g2
Ntp1258
Rp1259
(dp1260
g1234
g1235
sg1236
F-2.538630676921854
sg1237
F1.0
sg15
I38743
sg1238
g1239
sbsI55820
g0
(g1230
g2
Ntp1261
Rp1262
(dp1263
g1234
g1235
sg1236
F0.6374125052507037
sg1237
F1.0
sg15
I55820
sg1238
g1239
sbsI47618
g0
(g1230
g2
Ntp1264
Rp1265
(dp1266
g1234
g1235
sg1236
F2.279732867043155
sg1237
F1.0
sg15
I47618
sg1238
g1239
sbsI27664
g0
(g1230
g2
Ntp1267
Rp1268
(dp1269
g1234
g1235
sg1236
F2.7049175514350936
sg1237
F1.0
sg15
I27664
sg1238
g1239
sbsI44547
g0
(g1230
g2
Ntp1270
Rp1271
(dp1272
g1234
g1235
sg1236
F-0.14486725151511143
sg1237
F1.0
sg15
I44547
sg1238
g1239
sbsI23572
g0
(g1230
g2
Ntp1273
Rp1274
(dp1275
g1234
g1235
sg1236
F0.21702630438129827
sg1237
F1.0
sg15
I23572
sg1238
g1239
sbsI21422
g0
(g1230
g2
Ntp1276
Rp1277
(dp1278
g1234
g1235
sg1236
F1.2811046638386527
sg1237
F1.0
sg15
I21422
sg1238
g1239
sbsI32278
g0
(g1230
g2
Ntp1279
Rp1280
(dp1281
g1234
g1235
sg1236
F2.328998408277851
sg1237
F1.0
sg15
I32278
sg1238
g1239
sbsI19479
g0
(g1230
g2
Ntp1282
Rp1283
(dp1284
g1234
g1235
sg1236
F-2.7509418900373532
sg1237
F1.0
sg15
I19479
sg1238
g1239
sbsI16409
g0
(g1230
g2
Ntp1285
Rp1286
(dp1287
g1234
g1235
sg1236
F1.5681514951660445
sg1237
F1.0
sg15
I16409
sg1238
g1239
sbsI53276
g0
(g1230
g2
Ntp1288
Rp1289
(dp1290
g1234
g1235
sg1236
F-4.233242298607647
sg1237
F1.0
sg15
I53276
sg1238
g1239
sbsI8735
g0
(g1230
g2
Ntp1291
Rp1292
(dp1293
g1234
g1235
sg1236
F-0.7244024354973537
sg1237
F1.0
sg15
I8735
sg1238
g1239
sbsI26146
g0
(g1230
g2
Ntp1294
Rp1295
(dp1296
g1234
g1235
sg1236
F-0.8849722380777781
sg1237
F1.0
sg15
I26146
sg1238
g1239
sbsI31779
g0
(g1230
g2
Ntp1297
Rp1298
(dp1299
g1234
g1235
sg1236
F-2.042982346060486
sg1237
F1.0
sg15
I31779
sg1238
g1239
sbsI64552
g0
(g1230
g2
Ntp1300
Rp1301
(dp1302
g1234
g1235
sg1236
F-1.6946070020678818
sg1237
F1.0
sg15
I64552
sg1238
g1239
sbsI54313
g0
(g1230
g2
Ntp1303
Rp1304
(dp1305
g1234
g1235
sg1236
F-3.881309835811298
sg1237
F1.0
sg15
I54313
sg1238
g1239
sbsI15111
g0
(g1230
g2
Ntp1306
Rp1307
(dp1308
g1234
g1235
sg1236
F-3.0085507868289922
sg1237
F1.0
sg15
I15111
sg1238
g1239
sbsI18988
g0
(g1230
g2
Ntp1309
Rp1310
(dp1311
g1234
g1235
sg1236
F0.5441964595766839
sg1237
F1.0
sg15
I18988
sg1238
g1239
sbsI59439
g0
(g1230
g2
Ntp1312
Rp1313
(dp1314
g1234
g1235
sg1236
F2.2653147831128804
sg1237
F1.0
sg15
I59439
sg1238
g1239
sbsI57394
g0
(g1230
g2
Ntp1315
Rp1316
(dp1317
g1234
g1235
sg1236
F-1.8160809857034206
sg1237
F1.0
sg15
I57394
sg1238
g1239
sbsI51255
g0
(g1230
g2
Ntp1318
Rp1319
(dp1320
g1234
g1235
sg1236
F-1.0562920146004298
sg1237
F1.0
sg15
I51255
sg1238
g1239
sbsI34365
g0
(g1230
g2
Ntp1321
Rp1322
(dp1323
g1234
g1235
sg1236
F-3.6438211505659357
sg1237
F1.0
sg15
I34365
sg1238
g1239
sbsI32830
g0
(g1230
g2
Ntp1324
Rp1325
(dp1326
g1234
g1235
sg1236
F-0.4424330440430201
sg1237
F1.0
sg15
I32830
sg1238
g1239
sbsI61792
g0
(g1230
g2
Ntp1327
Rp1328
(dp1329
g1234
g1235
sg1236
F-0.021357515432365914
sg1237
F1.0
sg15
I61792
sg1238
g1239
sbsI36931
g0
(g1230
g2
Ntp1330
Rp1331
(dp1332
g1234
g1235
sg1236
F0.42163748366893977
sg1237
F1.0
sg15
I36931
sg1238
g1239
sbsI20548
g0
(g1230
g2
Ntp1333
Rp1334
(dp1335
g1234
g1235
sg1236
F1.8876364026510086
sg1237
F1.0
sg15
I20548
sg1238
g1239
sbsI57927
g0
(g1230
g2
Ntp1336
Rp1337
(dp1338
g1234
g1235
sg1236
F1.1192120725260104
sg1237
F1.0
sg15
I57927
sg1238
g1239
sbsI44619
g0
(g1230
g2
Ntp1339
Rp1340
(dp1341
g1234
g1235
sg1236
F5.284344663687551
sg1237
F1.0
sg15
I44619
sg1238
g1239
sbsI64595
g0
(g1230
g2
Ntp1342
Rp1343
(dp1344
g1234
g1235
sg1236
F-0.1706541680171874
sg1237
F1.0
sg15
I64595
sg1238
g1239
sbsI61020
g0
(g1230
g2
Ntp1345
Rp1346
(dp1347
g1234
g1235
sg1236
F-0.7626134365461514
sg1237
F1.0
sg15
I61020
sg1238
g1239
sbsI15456
g0
(g1230
g2
Ntp1348
Rp1349
(dp1350
g1234
g1235
sg1236
F1.0635941455028184
sg1237
F1.0
sg15
I15456
sg1238
g1239
sbsI12386
g0
(g1230
g2
Ntp1351
Rp1352
(dp1353
g1234
g1235
sg1236
F-3.617976289072893
sg1237
F1.0
sg15
I12386
sg1238
g1239
sbsI53859
g0
(g1230
g2
Ntp1354
Rp1355
(dp1356
g1234
g1235
sg1236
F-1.3663116910055888
sg1237
F1.0
sg15
I53859
sg1238
g1239
sbsI48229
g0
(g1230
g2
Ntp1357
Rp1358
(dp1359
g1234
g1235
sg1236
F-0.1120457419565381
sg1237
F1.0
sg15
I48229
sg1238
g1239
sbsI45159
g0
(g1230
g2
Ntp1360
Rp1361
(dp1362
g1234
g1235
sg1236
F-1.2590229186882795
sg1237
F1.0
sg15
I45159
sg1238
g1239
sbsI56425
g0
(g1230
g2
Ntp1363
Rp1364
(dp1365
g1234
g1235
sg1236
F0.8755523417704834
sg1237
F1.0
sg15
I56425
sg1238
g1239
sbsI58475
g0
(g1230
g2
Ntp1366
Rp1367
(dp1368
g1234
g1235
sg1236
F-0.7432246316757889
sg1237
F1.0
sg15
I58475
sg1238
g1239
sbsI55405
g0
(g1230
g2
Ntp1369
Rp1370
(dp1371
g1234
g1235
sg1236
F0.23165371526751194
sg1237
F1.0
sg15
I55405
sg1238
g1239
sbsI42100
g0
(g1230
g2
Ntp1372
Rp1373
(dp1374
g1234
g1235
sg1236
F-0.27613659971028515
sg1237
F1.0
sg15
I42100
sg1238
g1239
sbsI42614
g0
(g1230
g2
Ntp1375
Rp1376
(dp1377
g1234
g1235
sg1236
F0.11497702480647146
sg1237
F1.0
sg15
I42614
sg1238
g1239
sbsI8323
g0
(g1230
g2
Ntp1378
Rp1379
(dp1380
g1234
g1235
sg1236
F1.761413490607276
sg1237
F1.0
sg15
I8323
sg1238
g1239
sbsI25732
g0
(g1230
g2
Ntp1381
Rp1382
(dp1383
g1234
g1235
sg1236
F0.27552840344759955
sg1237
F1.0
sg15
I25732
sg1238
g1239
sbsI22151
g0
(g1230
g2
Ntp1384
Rp1385
(dp1386
g1234
g1235
sg1236
F1.278626082189126
sg1237
F1.0
sg15
I22151
sg1238
g1239
sbsI51337
g0
(g1230
g2
Ntp1387
Rp1388
(dp1389
g1234
g1235
sg1236
F-1.388070627547679
sg1237
F1.0
sg15
I51337
sg1238
g1239
sbsI64652
g0
(g1230
g2
Ntp1390
Rp1391
(dp1392
g1234
g1235
sg1236
F-2.0037859433814362
sg1237
F1.0
sg15
I64652
sg1238
g1239
sbsI56975
g0
(g1230
g2
Ntp1393
Rp1394
(dp1395
g1234
g1235
sg1236
F-0.4754494172751874
sg1237
F1.0
sg15
I56975
sg1238
g1239
sbsI65219
g0
(g1230
g2
Ntp1396
Rp1397
(dp1398
g1234
g1235
sg1236
F-1.8344918430182005
sg1237
F1.0
sg15
I65219
sg1238
g1239
sbsI28820
g0
(g1230
g2
Ntp1399
Rp1400
(dp1401
g1234
g1235
sg1236
F-0.2957809801584863
sg1237
F1.0
sg15
I28820
sg1238
g1239
sbsI33941
g0
(g1230
g2
Ntp1402
Rp1403
(dp1404
g1234
g1235
sg1236
F0.2366881052545724
sg1237
F1.0
sg15
I33941
sg1238
g1239
sbsI7831
g0
(g1230
g2
Ntp1405
Rp1406
(dp1407
g1234
g1235
sg1236
F0.009233187533591314
sg1237
F1.0
sg15
I7831
sg1238
g1239
sbsI41626
g0
(g1230
g2
Ntp1408
Rp1409
(dp1410
g1234
g1235
sg1236
F-0.5590755233846489
sg1237
F1.0
sg15
I41626
sg1238
g1239
sbsI18077
g0
(g1230
g2
Ntp1411
Rp1412
(dp1413
g1234
g1235
sg1236
F0.4447642016661668
sg1237
F1.0
sg15
I18077
sg1238
g1239
sbsI45726
g0
(g1230
g2
Ntp1414
Rp1415
(dp1416
g1234
g1235
sg1236
F0.832208184207307
sg1237
F1.0
sg15
I45726
sg1238
g1239
sbsI46241
g0
(g1230
g2
Ntp1417
Rp1418
(dp1419
g1234
g1235
sg1236
F1.6586546070863561
sg1237
F1.0
sg15
I46241
sg1238
g1239
sbsI28329
g0
(g1230
g2
Ntp1420
Rp1421
(dp1422
g1234
g1235
sg1236
F3.4778076262984863
sg1237
F1.0
sg15
I28329
sg1238
g1239
sbsI20138
g0
(g1230
g2
Ntp1423
Rp1424
(dp1425
g1234
g1235
sg1236
F2.854348192284374
sg1237
F1.0
sg15
I20138
sg1238
g1239
sbsI32939
g0
(g1230
g2
Ntp1426
Rp1427
(dp1428
g1234
g1235
sg1236
F-0.6191149376286609
sg1237
F1.0
sg15
I32939
sg1238
g1239
sbsI52396
g0
(g1230
g2
Ntp1429
Rp1430
(dp1431
g1234
g1235
sg1236
F2.0659289723595173
sg1237
F1.0
sg15
I52396
sg1238
g1239
sbsI56494
g0
(g1230
g2
Ntp1432
Rp1433
(dp1434
g1234
g1235
sg1236
F2.034202582100152
sg1237
F1.0
sg15
I56494
sg1238
g1239
sbsI30383
g0
(g1230
g2
Ntp1435
Rp1436
(dp1437
g1234
g1235
sg1236
F-0.9581024097633669
sg1237
F1.0
sg15
I30383
sg1238
g1239
sbsI37553
g0
(g1230
g2
Ntp1438
Rp1439
(dp1440
g1234
g1235
sg1236
F-0.37859096405615167
sg1237
F1.0
sg15
I37553
sg1238
g1239
sbsI62642
g0
(g1230
g2
Ntp1441
Rp1442
(dp1443
g1234
g1235
sg1236
F0.9951831428717639
sg1237
F1.0
sg15
I62642
sg1238
g1239
sbsI54964
g0
(g1230
g2
Ntp1444
Rp1445
(dp1446
g1234
g1235
sg1236
F1.5903965774984403
sg1237
F1.0
sg15
I54964
sg1238
g1239
sbsI26296
g0
(g1230
g2
Ntp1447
Rp1448
(dp1449
g1234
g1235
sg1236
F-0.18820199577636942
sg1237
F1.0
sg15
I26296
sg1238
g1239
sbsI2676
g0
(g1230
g2
Ntp1450
Rp1451
(dp1452
g1234
g1235
sg1236
F1.4782757118147494
sg1237
F1.0
sg15
I2676
sg1238
g1239
sbsI22205
g0
(g1230
g2
Ntp1453
Rp1454
(dp1455
g1234
g1235
sg1236
F1.0690312263082005
sg1237
F1.0
sg15
I22205
sg1238
g1239
sbsI34495
g0
(g1230
g2
Ntp1456
Rp1457
(dp1458
g1234
g1235
sg1236
F1.1115269124384402
sg1237
F1.0
sg15
I34495
sg1238
g1239
sbsI27329
g0
(g1230
g2
Ntp1459
Rp1460
(dp1461
g1234
g1235
sg1236
F0.2976815688336461
sg1237
F1.0
sg15
I27329
sg1238
g1239
sbsI33475
g0
(g1230
g2
Ntp1462
Rp1463
(dp1464
g1234
g1235
sg1236
F-1.4109139371634756
sg1237
F1.0
sg15
I33475
sg1238
g1239
sbsI5238
g0
(g1230
g2
Ntp1465
Rp1466
(dp1467
g1234
g1235
sg1236
F-0.5429172052071672
sg1237
F1.0
sg15
I5238
sg1238
g1239
sbsI54472
g0
(g1230
g2
Ntp1468
Rp1469
(dp1470
g1234
g1235
sg1236
F4.640989399482631
sg1237
F1.0
sg15
I54472
sg1238
g1239
sbsI63178
g0
(g1230
g2
Ntp1471
Rp1472
(dp1473
g1234
g1235
sg1236
F-2.2700694744583196
sg1237
F1.0
sg15
I63178
sg1238
g1239
sbsI33571
g0
(g1230
g2
Ntp1474
Rp1475
(dp1476
g1234
g1235
sg1236
F-1.4994936896768531
sg1237
F1.0
sg15
I33571
sg1238
g1239
sbsI40149
g0
(g1230
g2
Ntp1477
Rp1478
(dp1479
g1234
g1235
sg1236
F-0.0998435016600635
sg1237
F1.0
sg15
I40149
sg1238
g1239
sbsI51577
g0
(g1230
g2
Ntp1480
Rp1481
(dp1482
g1234
g1235
sg1236
F0.7787013781047625
sg1237
F1.0
sg15
I51577
sg1238
g1239
sbsI30428
g0
(g1230
g2
Ntp1483
Rp1484
(dp1485
g1234
g1235
sg1236
F0.47573781003348303
sg1237
F1.0
sg15
I30428
sg1238
g1239
sbsI57053
g0
(g1230
g2
Ntp1486
Rp1487
(dp1488
g1234
g1235
sg1236
F-0.2696683915771269
sg1237
F1.0
sg15
I57053
sg1238
g1239
sbsI38124
g0
(g1230
g2
Ntp1489
Rp1490
(dp1491
g1234
g1235
sg1236
F-3.9217557220065182
sg1237
F1.0
sg15
I38124
sg1238
g1239
sbsI14061
g0
(g1230
g2
Ntp1492
Rp1493
(dp1494
g1234
g1235
sg1236
F0.6366437262548164
sg1237
F1.0
sg15
I14061
sg1238
g1239
sbsI29565
g0
(g1230
g2
Ntp1495
Rp1496
(dp1497
g1234
g1235
sg1236
F0.8229904034008884
sg1237
F1.0
sg15
I29565
sg1238
g1239
sbsI55536
g0
(g1230
g2
Ntp1498
Rp1499
(dp1500
g1234
g1235
sg1236
F0.4852208255173457
sg1237
F1.0
sg15
I55536
sg1238
g1239
sbsI10993
g0
(g1230
g2
Ntp1501
Rp1502
(dp1503
g1234
g1235
sg1236
F0.4275777253687101
sg1237
F1.0
sg15
I10993
sg1238
g1239
sbsI22266
g0
(g1230
g2
Ntp1504
Rp1505
(dp1506
g1234
g1235
sg1236
F-1.8675934290626803
sg1237
F1.0
sg15
I22266
sg1238
g1239
sbsI27899
g0
(g1230
g2
Ntp1507
Rp1508
(dp1509
g1234
g1235
sg1236
F-1.3046828717266354
sg1237
F1.0
sg15
I27899
sg1238
g1239
sbsI59644
g0
(g1230
g2
Ntp1510
Rp1511
(dp1512
g1234
g1235
sg1236
F-3.035399100865356
sg1237
F1.0
sg15
I59644
sg1238
g1239
sbsI62205
g0
(g1230
g2
Ntp1513
Rp1514
(dp1515
g1234
g1235
sg1236
F-2.8194381338913086
sg1237
F1.0
sg15
I62205
sg1238
g1239
sbsI18687
g0
(g1230
g2
Ntp1516
Rp1517
(dp1518
g1234
g1235
sg1236
F1.4121880324913982
sg1237
F1.0
sg15
I18687
sg1238
g1239
sbsI30978
g0
(g1230
g2
Ntp1519
Rp1520
(dp1521
g1234
g1235
sg1236
F0.7770094837137669
sg1237
F1.0
sg15
I30978
sg1238
g1239
sbsI25347
g0
(g1230
g2
Ntp1522
Rp1523
(dp1524
g1234
g1235
sg1236
F3.2273248593970765
sg1237
F1.0
sg15
I25347
sg1238
g1239
sbsI39175
g0
(g1230
g2
Ntp1525
Rp1526
(dp1527
g1234
g1235
sg1236
F0.03696567221661005
sg1237
F1.0
sg15
I39175
sg1238
g1239
sbsI50952
g0
(g1230
g2
Ntp1528
Rp1529
(dp1530
g1234
g1235
sg1236
F-4.136684652722468
sg1237
F1.0
sg15
I50952
sg1238
g1239
sbsI57611
g0
(g1230
g2
Ntp1531
Rp1532
(dp1533
g1234
g1235
sg1236
F0.7122533040584417
sg1237
F1.0
sg15
I57611
sg1238
g1239
sbsI40205
g0
(g1230
g2
Ntp1534
Rp1535
(dp1536
g1234
g1235
sg1236
F-1.6607598127877368
sg1237
F1.0
sg15
I40205
sg1238
g1239
sbsI34062
g0
(g1230
g2
Ntp1537
Rp1538
(dp1539
g1234
g1235
sg1236
F-0.14573305319567448
sg1237
F1.0
sg15
I34062
sg1238
g1239
sbsI53519
g0
(g1230
g2
Ntp1540
Rp1541
(dp1542
g1234
g1235
sg1236
F0.9804371166426757
sg1237
F1.0
sg15
I53519
sg1238
g1239
sbsI37654
g0
(g1230
g2
Ntp1543
Rp1544
(dp1545
g1234
g1235
sg1236
F0.5153468560081379
sg1237
F1.0
sg15
I37654
sg1238
g1239
sbsI39727
g0
(g1230
g2
Ntp1546
Rp1547
(dp1548
g1234
g1235
sg1236
F-1.1943516433358299
sg1237
F1.0
sg15
I39727
sg1238
g1239
sbsI35612
g0
(g1230
g2
Ntp1549
Rp1550
(dp1551
g1234
g1235
sg1236
F-0.05688388909032388
sg1237
F1.0
sg15
I35612
sg1238
g1239
sbsI2334
g0
(g1230
g2
Ntp1552
Rp1553
(dp1554
g1234
g1235
sg1236
F-2.0770583743813793
sg1237
F1.0
sg15
I2334
sg1238
g1239
sbsI60707
g0
(g1230
g2
Ntp1555
Rp1556
(dp1557
g1234
g1235
sg1236
F-3.124377540238327
sg1237
F1.0
sg15
I60707
sg1238
g1239
sbsI51497
g0
(g1230
g2
Ntp1558
Rp1559
(dp1560
g1234
g1235
sg1236
F-0.5265954619711419
sg1237
F1.0
sg15
I51497
sg1238
g1239
sbsI52523
g0
(g1230
g2
Ntp1561
Rp1562
(dp1563
g1234
g1235
sg1236
F-2.4727981095009333
sg1237
F1.0
sg15
I52523
sg1238
g1239
sbsI18222
g0
(g1230
g2
Ntp1564
Rp1565
(dp1566
g1234
g1235
sg1236
F2.310575018282042
sg1237
F1.0
sg15
I18222
sg1238
g1239
sbsI47407
g0
(g1230
g2
Ntp1567
Rp1568
(dp1569
g1234
g1235
sg1236
F-0.34705517722203216
sg1237
F1.0
sg15
I47407
sg1238
g1239
sbsI49459
g0
(g1230
g2
Ntp1570
Rp1571
(dp1572
g1234
g1235
sg1236
F0.846882456487953
sg1237
F1.0
sg15
I49459
sg1238
g1239
sbsI39817
g0
(g1230
g2
Ntp1573
Rp1574
(dp1575
g1234
g1235
sg1236
F-0.37848737924290615
sg1237
F1.0
sg15
I39817
sg1238
g1239
sbsI24379
g0
(g1230
g2
Ntp1576
Rp1577
(dp1578
g1234
g1235
sg1236
F0.0002296217411499324
sg1237
F1.0
sg15
I24379
sg1238
g1239
sbsI59196
g0
(g1230
g2
Ntp1579
Rp1580
(dp1581
g1234
g1235
sg1236
F-0.7171062384541966
sg1237
F1.0
sg15
I59196
sg1238
g1239
sbsI21310
g0
(g1230
g2
Ntp1582
Rp1583
(dp1584
g1234
g1235
sg1236
F-2.359257260802294
sg1237
F1.0
sg15
I21310
sg1238
g1239
sbsI26945
g0
(g1230
g2
Ntp1585
Rp1586
(dp1587
g1234
g1235
sg1236
F0.5576837943291084
sg1237
F1.0
sg15
I26945
sg1238
g1239
sbsI60227
g0
(g1230
g2
Ntp1588
Rp1589
(dp1590
g1234
g1235
sg1236
F0.23370074310663458
sg1237
F1.0
sg15
I60227
sg1238
g1239
sbsI58692
g0
(g1230
g2
Ntp1591
Rp1592
(dp1593
g1234
g1235
sg1236
F-0.08337336813889673
sg1237
F1.0
sg15
I58692
sg1238
g1239
sbsI20294
g0
(g1230
g2
Ntp1594
Rp1595
(dp1596
g1234
g1235
sg1236
F0.2609013855452425
sg1237
F1.0
sg15
I20294
sg1238
g1239
sbsI48968
g0
(g1230
g2
Ntp1597
Rp1598
(dp1599
g1234
g1235
sg1236
F0.5512711641516269
sg1237
F1.0
sg15
I48968
sg1238
g1239
sbsI50511
g0
(g1230
g2
Ntp1600
Rp1601
(dp1602
g1234
g1235
sg1236
F0.043649394670734504
sg1237
F1.0
sg15
I50511
sg1238
g1239
sbsI37201
g0
(g1230
g2
Ntp1603
Rp1604
(dp1605
g1234
g1235
sg1236
F0.2354871900648464
sg1237
F1.0
sg15
I37201
sg1238
g1239
sbsI30039
g0
(g1230
g2
Ntp1606
Rp1607
(dp1608
g1234
g1235
sg1236
F-0.4368640930644616
sg1237
F1.0
sg15
I30039
sg1238
g1239
sbsI59744
g0
(g1230
g2
Ntp1609
Rp1610
(dp1611
g1234
g1235
sg1236
F4.481777001733224
sg1237
F1.0
sg15
I59744
sg1238
g1239
sbsI44388
g0
(g1230
g2
Ntp1612
Rp1613
(dp1614
g1234
g1235
sg1236
F-1.6972710743080772
sg1237
F1.0
sg15
I44388
sg1238
g1239
sbsI18791
g0
(g1230
g2
Ntp1615
Rp1616
(dp1617
g1234
g1235
sg1236
F0.3684209769070822
sg1237
F1.0
sg15
I18791
sg1238
g1239
sbsI25961
g0
(g1230
g2
Ntp1618
Rp1619
(dp1620
g1234
g1235
sg1236
F-1.211864616831057
sg1237
F1.0
sg15
I25961
sg1238
g1239
sbsI29035
g0
(g1230
g2
Ntp1621
Rp1622
(dp1623
g1234
g1235
sg1236
F-3.182145758214953
sg1237
F1.0
sg15
I29035
sg1238
g1239
sbsI54636
g0
(g1230
g2
Ntp1624
Rp1625
(dp1626
g1234
g1235
sg1236
F0.8908783700205418
sg1237
F1.0
sg15
I54636
sg1238
g1239
sbsI45629
g0
(g1230
g2
Ntp1627
Rp1628
(dp1629
g1234
g1235
sg1236
F5.860460822552079
sg1237
F1.0
sg15
I45629
sg1238
g1239
sbsI51210
g0
(g1230
g2
Ntp1630
Rp1631
(dp1632
g1234
g1235
sg1236
F-2.188609138137121
sg1237
F1.0
sg15
I51210
sg1238
g1239
sbsI53395
g0
(g1230
g2
Ntp1633
Rp1634
(dp1635
g1234
g1235
sg1236
F-0.338935035448239
sg1237
F1.0
sg15
I53395
sg1238
g1239
sbsI2933
g0
(g1230
g2
Ntp1636
Rp1637
(dp1638
g1234
g1235
sg1236
F2.3196979679852374
sg1237
F1.0
sg15
I2933
sg1238
g1239
sbsI14996
g0
(g1230
g2
Ntp1639
Rp1640
(dp1641
g1234
g1235
sg1236
F-0.7117331121037924
sg1237
F1.0
sg15
I14996
sg1238
g1239
sbsI8573
g0
(g1230
g2
Ntp1642
Rp1643
(dp1644
g1234
g1235
sg1236
F-1.382140237053481
sg1237
F1.0
sg15
I8573
sg1238
g1239
sbsI13187
g0
(g1230
g2
Ntp1645
Rp1646
(dp1647
g1234
g1235
sg1236
F-0.7674259584041109
sg1237
F1.0
sg15
I13187
sg1238
g1239
sbsI8094
g0
(g1230
g2
Ntp1648
Rp1649
(dp1650
g1234
g1235
sg1236
F0.9822778935496111
sg1237
F1.0
sg15
I8094
sg1238
g1239
sbsI38209
g0
(g1230
g2
Ntp1651
Rp1652
(dp1653
g1234
g1235
sg1236
F-0.2693906700099298
sg1237
F1.0
sg15
I38209
sg1238
g1239
sbsI60296
g0
(g1230
g2
Ntp1654
Rp1655
(dp1656
g1234
g1235
sg1236
F0.12844973464025383
sg1237
F1.0
sg15
I60296
sg1238
g1239
sbsI53996
g0
(g1230
g2
Ntp1657
Rp1658
(dp1659
g1234
g1235
sg1236
F1.388077176182995
sg1237
F1.0
sg15
I53996
sg1238
g1239
sbsI44183
g0
(g1230
g2
Ntp1660
Rp1661
(dp1662
g1234
g1235
sg1236
F-0.5970716579185741
sg1237
F1.0
sg15
I44183
sg1238
g1239
sbsI63384
g0
(g1230
g2
Ntp1663
Rp1664
(dp1665
g1234
g1235
sg1236
F1.8746399401335032
sg1237
F1.0
sg15
I63384
sg1238
g1239
sbsI58258
g0
(g1230
g2
Ntp1666
Rp1667
(dp1668
g1234
g1235
sg1236
F0.3502792891060143
sg1237
F1.0
sg15
I58258
sg1238
g1239
sbsI48534
g0
(g1230
g2
Ntp1669
Rp1670
(dp1671
g1234
g1235
sg1236
F-1.033153896477788
sg1237
F1.0
sg15
I48534
sg1238
g1239
sbsI64920
g0
(g1230
g2
Ntp1672
Rp1673
(dp1674
g1234
g1235
sg1236
F-0.563920570332696
sg1237
F1.0
sg15
I64920
sg1238
g1239
sbsI36761
g0
(g1230
g2
Ntp1675
Rp1676
(dp1677
g1234
g1235
sg1236
F-1.688471151646329
sg1237
F1.0
sg15
I36761
sg1238
g1239
sbsI60162
g0
(g1230
g2
Ntp1678
Rp1679
(dp1680
g1234
g1235
sg1236
F-1.2758194320472427
sg1237
F1.0
sg15
I60162
sg1238
g1239
sbsI45039
g0
(g1230
g2
Ntp1681
Rp1682
(dp1683
g1234
g1235
sg1236
F-1.3020210899347362
sg1237
F1.0
sg15
I45039
sg1238
g1239
sbsI34202
g0
(g1230
g2
Ntp1684
Rp1685
(dp1686
g1234
g1235
sg1236
F1.1698779359562623
sg1237
F1.0
sg15
I34202
sg1238
g1239
sbsI51102
g0
(g1230
g2
Ntp1687
Rp1688
(dp1689
g1234
g1235
sg1236
F0.27542719006934835
sg1237
F1.0
sg15
I51102
sg1238
g1239
sbsI7072
g0
(g1230
g2
Ntp1690
Rp1691
(dp1692
g1234
g1235
sg1236
F0.6779701258985946
sg1237
F1.0
sg15
I7072
sg1238
g1239
sbsI10145
g0
(g1230
g2
Ntp1693
Rp1694
(dp1695
g1234
g1235
sg1236
F-0.9523236745486675
sg1237
F1.0
sg15
I10145
sg1238
g1239
sbsI37795
g0
(g1230
g2
Ntp1696
Rp1697
(dp1698
g1234
g1235
sg1236
F0.21220795093947165
sg1237
F1.0
sg15
I37795
sg1238
g1239
sbsI60742
g0
(g1230
g2
Ntp1699
Rp1700
(dp1701
g1234
g1235
sg1236
F-1.7297247290779192
sg1237
F1.0
sg15
I60742
sg1238
g1239
sbsI53670
g0
(g1230
g2
Ntp1702
Rp1703
(dp1704
g1234
g1235
sg1236
F-0.22826119836694153
sg1237
F1.0
sg15
I53670
sg1238
g1239
sbsI28586
g0
(g1230
g2
Ntp1705
Rp1706
(dp1707
g1234
g1235
sg1236
F-0.28226872636760203
sg1237
F1.0
sg15
I28586
sg1238
g1239
sbsI18859
g0
(g1230
g2
Ntp1708
Rp1709
(dp1710
g1234
g1235
sg1236
F-2.233438846057523
sg1237
F1.0
sg15
I18859
sg1238
g1239
sbsI14286
g0
(g1230
g2
Ntp1711
Rp1712
(dp1713
g1234
g1235
sg1236
F1.7322266761068499
sg1237
F1.0
sg15
I14286
sg1238
g1239
sbsI10670
g0
(g1230
g2
Ntp1714
Rp1715
(dp1716
g1234
g1235
sg1236
F2.8764625230172842
sg1237
F1.0
sg15
I10670
sg1238
g1239
sbsI6576
g0
(g1230
g2
Ntp1717
Rp1718
(dp1719
g1234
g1235
sg1236
F0.1722183295960835
sg1237
F1.0
sg15
I6576
sg1238
g1239
sbsI19890
g0
(g1230
g2
Ntp1720
Rp1721
(dp1722
g1234
g1235
sg1236
F-1.1406175236538685
sg1237
F1.0
sg15
I19890
sg1238
g1239
sbsI47027
g0
(g1230
g2
Ntp1723
Rp1724
(dp1725
g1234
g1235
sg1236
F1.8772071958957965
sg1237
F1.0
sg15
I47027
sg1238
g1239
sbsI50846
g0
(g1230
g2
Ntp1726
Rp1727
(dp1728
g1234
g1235
sg1236
F0.3867273186283108
sg1237
F1.0
sg15
I50846
sg1238
g1239
sbsI63932
g0
(g1230
g2
Ntp1729
Rp1730
(dp1731
g1234
g1235
sg1236
F0.09140656301236799
sg1237
F1.0
sg15
I63932
sg1238
g1239
sbsI40895
g0
(g1230
g2
Ntp1732
Rp1733
(dp1734
g1234
g1235
sg1236
F-0.6218655669031574
sg1237
F1.0
sg15
I40895
sg1238
g1239
sbsI54688
g0
(g1230
g2
Ntp1735
Rp1736
(dp1737
g1234
g1235
sg1236
F-0.26709526951356494
sg1237
F1.0
sg15
I54688
sg1238
g1239
sbsI52165
g0
(g1230
g2
Ntp1738
Rp1739
(dp1740
g1234
g1235
sg1236
F0.7844314906245045
sg1237
F1.0
sg15
I52165
sg1238
g1239
sbsI50631
g0
(g1230
g2
Ntp1741
Rp1742
(dp1743
g1234
g1235
sg1236
F-0.07746528893649585
sg1237
F1.0
sg15
I50631
sg1238
g1239
sbsI63812
g0
(g1230
g2
Ntp1744
Rp1745
(dp1746
g1234
g1235
sg1236
F-0.7955318451513567
sg1237
F1.0
sg15
I63812
sg1238
g1239
sbsI59337
g0
(g1230
g2
Ntp1747
Rp1748
(dp1749
g1234
g1235
sg1236
F3.8416857374604563
sg1237
F1.0
sg15
I59337
sg1238
g1239
sbsI55757
g0
(g1230
g2
Ntp1750
Rp1751
(dp1752
g1234
g1235
sg1236
F-1.0871502979163818
sg1237
F1.0
sg15
I55757
sg1238
g1239
sbsI40398
g0
(g1230
g2
Ntp1753
Rp1754
(dp1755
g1234
g1235
sg1236
F1.8885957528300206
sg1237
F1.0
sg15
I40398
sg1238
g1239
sbsI1487
g0
(g1230
g2
Ntp1756
Rp1757
(dp1758
g1234
g1235
sg1236
F0.0554940230923172
sg1237
F1.0
sg15
I1487
sg1238
g1239
sbsI29648
g0
(g1230
g2
Ntp1759
Rp1760
(dp1761
g1234
g1235
sg1236
F-5.089816056374975
sg1237
F1.0
sg15
I29648
sg1238
g1239
sbsI57300
g0
(g1230
g2
Ntp1762
Rp1763
(dp1764
g1234
g1235
sg1236
F1.12895957891104
sg1237
F1.0
sg15
I57300
sg1238
g1239
sbsI33749
g0
(g1230
g2
Ntp1765
Rp1766
(dp1767
g1234
g1235
sg1236
F1.6903302992493665
sg1237
F1.0
sg15
I33749
sg1238
g1239
sbsI61401
g0
(g1230
g2
Ntp1768
Rp1769
(dp1770
g1234
g1235
sg1236
F3.3601437424059313
sg1237
F1.0
sg15
I61401
sg1238
g1239
sbsI47578
g0
(g1230
g2
Ntp1771
Rp1772
(dp1773
g1234
g1235
sg1236
F1.343383570604681
sg1237
F1.0
sg15
I47578
sg1238
g1239
sbsI34782
g0
(g1230
g2
Ntp1774
Rp1775
(dp1776
g1234
g1235
sg1236
F3.826545661040874
sg1237
F1.0
sg15
I34782
sg1238
g1239
sbsI33763
g0
(g1230
g2
Ntp1777
Rp1778
(dp1779
g1234
g1235
sg1236
F0.17137395321440593
sg1237
F1.0
sg15
I33763
sg1238
g1239
sbsI28134
g0
(g1230
g2
Ntp1780
Rp1781
(dp1782
g1234
g1235
sg1236
F-1.4361336412599024
sg1237
F1.0
sg15
I28134
sg1238
g1239
sbsI49640
g0
(g1230
g2
Ntp1783
Rp1784
(dp1785
g1234
g1235
sg1236
F-2.427166282031031
sg1237
F1.0
sg15
I49640
sg1238
g1239
sbsI62443
g0
(g1230
g2
Ntp1786
Rp1787
(dp1788
g1234
g1235
sg1236
F-0.7500135291075907
sg1237
F1.0
sg15
I62443
sg1238
g1239
sbsI56303
g0
(g1230
g2
Ntp1789
Rp1790
(dp1791
g1234
g1235
sg1236
F0.7913709698574041
sg1237
F1.0
sg15
I56303
sg1238
g1239
sbsI17905
g0
(g1230
g2
Ntp1792
Rp1793
(dp1794
g1234
g1235
sg1236
F-0.3045490949295734
sg1237
F1.0
sg15
I17905
sg1238
g1239
sbsI48626
g0
(g1230
g2
Ntp1795
Rp1796
(dp1797
g1234
g1235
sg1236
F2.0737825967851657
sg1237
F1.0
sg15
I48626
sg1238
g1239
sbsI53748
g0
(g1230
g2
Ntp1798
Rp1799
(dp1800
g1234
g1235
sg1236
F0.13085055679656812
sg1237
F1.0
sg15
I53748
sg1238
g1239
sbsI38569
g0
(g1230
g2
Ntp1801
Rp1802
(dp1803
g1234
g1235
sg1236
F0.7230247987483508
sg1237
F1.0
sg15
I38569
sg1238
g1239
sbsI57849
g0
(g1230
g2
Ntp1804
Rp1805
(dp1806
g1234
g1235
sg1236
F0.7884134750840206
sg1237
F1.0
sg15
I57849
sg1238
g1239
sbsI10236
g0
(g1230
g2
Ntp1807
Rp1808
(dp1809
g1234
g1235
sg1236
F-0.573615338540775
sg1237
F1.0
sg15
I10236
sg1238
g1239
sbssg15
I195585
sS'fitness'
p1810
F-30.1
sb.