ccopy_reg
_reconstructor
p0
(cneat.genome
DefaultGenome
p1
c__builtin__
object
p2
Ntp3
Rp4
(dp5
S'connections'
p6
(dp7
(I8553
I14638
tp8
g0
(cneat.genes
DefaultConnectionGene
p9
g2
Ntp10
Rp11
(dp12
S'enabled'
p13
I01
sS'weight'
p14
F2.9774031244282826
sS'key'
p15
g8
sbs(I-3
I7688
tp16
g0
(g9
g2
Ntp17
Rp18
(dp19
g13
I01
sg14
F-0.26827868180696623
sg15
g16
sbs(I21109
I8731
tp20
g0
(g9
g2
Ntp21
Rp22
(dp23
g13
I01
sg14
F-0.017692475693886323
sg15
g20
sbs(I17843
I2308
tp24
g0
(g9
g2
Ntp25
Rp26
(dp27
g13
I00
sg14
F0.7883346967374856
sg15
g24
sbs(I27632
I3
tp28
g0
(g9
g2
Ntp29
Rp30
(dp31
g13
I00
sg14
F1.2416981319739735
sg15
g28
sbs(I13484
I3961
tp32
g0
(g9
g2
Ntp33
Rp34
(dp35
g13
I01
sg14
F-0.4256567654708658
sg15
g32
sbs(I2308
I7374
tp36
g0
(g9
g2
Ntp37
Rp38
(dp39
g13
I00
sg14
F-2.5313363133211264
sg15
g36
sbs(I29228
I18136
tp40
g0
(g9
g2
Ntp41
Rp42
(dp43
g13
I01
sg14
F-0.5663361701875522
sg15
g40
sbs(I29564
I10453
tp44
g0
(g9
g2
Ntp45
Rp46
(dp47
g13
I01
sg14
F-1.5909078020483047
sg15
g44
sbs(I14638
I7105
tp48
g0
(g9
g2
Ntp49
Rp50
(dp51
g13
I00
sg14
F-0.7776092913383952
sg15
g48
sbs(I12755
I10297
tp52
g0
(g9
g2
Ntp53
Rp54
(dp55
g13
I01
sg14
F-0.8897920563636682
sg15
g52
sbs(I11280
I12335
tp56
g0
(g9
g2
Ntp57
Rp58
(dp59
g13
I00
sg14
F-2.807440419795303
sg15
g56
sbs(I20136
I13401
tp60
g0
(g9
g2
Ntp61
Rp62
(dp63
g13
I01
sg14
F-1.278983837720979
sg15
g60
sbs(I5310
I15822
tp64
g0
(g9
g2
Ntp65
Rp66
(dp67
g13
I00
sg14
F-1.2339343031507441
sg15
g64
sbs(I6757
I13484
tp68
g0
(g9
g2
Ntp69
Rp70
(dp71
g13
I01
sg14
F-1.927708800072171
sg15
g68
sbs(I10118
I3
tp72
g0
(g9
g2
Ntp73
Rp74
(dp75
g13
I01
sg14
F-0.957141802127369
sg15
g72
sbs(I12755
I12633
tp76
g0
(g9
g2
Ntp77
Rp78
(dp79
g13
I00
sg14
F-0.9942773822871409
sg15
g76
sbs(I12659
I26924
tp80
g0
(g9
g2
Ntp81
Rp82
(dp83
g13
I01
sg14
F2.4655943539362175
sg15
g80
sbs(I5310
I12633
tp84
g0
(g9
g2
Ntp85
Rp86
(dp87
g13
I01
sg14
F0.7796579764276433
sg15
g84
sbs(I-3
I6757
tp88
g0
(g9
g2
Ntp89
Rp90
(dp91
g13
I00
sg14
F-0.1743897214932979
sg15
g88
sbs(I12335
I15884
tp92
g0
(g9
g2
Ntp93
Rp94
(dp95
g13
I01
sg14
F0.3967611719306778
sg15
g92
sbs(I12633
I12253
tp96
g0
(g9
g2
Ntp97
Rp98
(dp99
g13
I01
sg14
F0.1710845563718607
sg15
g96
sbs(I22363
I7105
tp100
g0
(g9
g2
Ntp101
Rp102
(dp103
g13
I01
sg14
F-1.4700384986961659
sg15
g100
sbs(I13637
I7302
tp104
g0
(g9
g2
Ntp105
Rp106
(dp107
g13
I00
sg14
F2.4056023387309655
sg15
g104
sbs(I20136
I21109
tp108
g0
(g9
g2
Ntp109
Rp110
(dp111
g13
I00
sg14
F1.063668459237635
sg15
g108
sbs(I1
I2308
tp112
g0
(g9
g2
Ntp113
Rp114
(dp115
g13
I01
sg14
F0.5121794624002631
sg15
g112
sbs(I22415
I7105
tp116
g0
(g9
g2
Ntp117
Rp118
(dp119
g13
I01
sg14
F1.4991314354068668
sg15
g116
sbs(I27160
I20136
tp120
g0
(g9
g2
Ntp121
Rp122
(dp123
g13
I01
sg14
F-1.3271903412911659
sg15
g120
sbs(I13024
I5310
tp124
g0
(g9
g2
Ntp125
Rp126
(dp127
g13
I00
sg14
F-0.5084261529651205
sg15
g124
sbs(I12253
I2308
tp128
g0
(g9
g2
Ntp129
Rp130
(dp131
g13
I00
sg14
F-2.0503980173167706
sg15
g128
sbs(I12253
I9168
tp132
g0
(g9
g2
Ntp133
Rp134
(dp135
g13
I01
sg14
F0.9086708995711893
sg15
g132
sbs(I12659
I8553
tp136
g0
(g9
g2
Ntp137
Rp138
(dp139
g13
I01
sg14
F-0.022180662838841896
sg15
g136
sbs(I20589
I18136
tp140
g0
(g9
g2
Ntp141
Rp142
(dp143
g13
I00
sg14
F-1.3154501151762865
sg15
g140
sbs(I1
I15884
tp144
g0
(g9
g2
Ntp145
Rp146
(dp147
g13
I01
sg14
F-0.017903887810179042
sg15
g144
sbs(I10863
I8522
tp148
g0
(g9
g2
Ntp149
Rp150
(dp151
g13
I01
sg14
F-1.0995602936922244
sg15
g148
sbs(I17843
I2
tp152
g0
(g9
g2
Ntp153
Rp154
(dp155
g13
I00
sg14
F0.6696656214854277
sg15
g152
sbs(I12659
I10297
tp156
g0
(g9
g2
Ntp157
Rp158
(dp159
g13
I00
sg14
F2.19882217936039
sg15
g156
sbs(I13170
I8553
tp160
g0
(g9
g2
Ntp161
Rp162
(dp163
g13
I01
sg14
F-1.3125572279532038
sg15
g160
sbs(I-2
I5310
tp164
g0
(g9
g2
Ntp165
Rp166
(dp167
g13
I01
sg14
F4.026587492065862
sg15
g164
sbs(I-4
I19866
tp168
g0
(g9
g2
Ntp169
Rp170
(dp171
g13
I00
sg14
F0.3465056411945616
sg15
g168
sbs(I14934
I7105
tp172
g0
(g9
g2
Ntp173
Rp174
(dp175
g13
I01
sg14
F0.9715050828986985
sg15
g172
sbs(I7688
I21200
tp176
g0
(g9
g2
Ntp177
Rp178
(dp179
g13
I01
sg14
F2.4442385413159133
sg15
g176
sbs(I10118
I14638
tp180
g0
(g9
g2
Ntp181
Rp182
(dp183
g13
I01
sg14
F-3.7602187428523424
sg15
g180
sbs(I18568
I5337
tp184
g0
(g9
g2
Ntp185
Rp186
(dp187
g13
I00
sg14
F-0.4375368098486296
sg15
g184
sbs(I7049
I2308
tp188
g0
(g9
g2
Ntp189
Rp190
(dp191
g13
I01
sg14
F1.385001306105635
sg15
g188
sbs(I9168
I2308
tp192
g0
(g9
g2
Ntp193
Rp194
(dp195
g13
I01
sg14
F0.4187928277581613
sg15
g192
sbs(I-3
I8522
tp196
g0
(g9
g2
Ntp197
Rp198
(dp199
g13
I01
sg14
F1.929984246608655
sg15
g196
sbs(I12253
I27019
tp200
g0
(g9
g2
Ntp201
Rp202
(dp203
g13
I01
sg14
F-1.403504730391049
sg15
g200
sbs(I8673
I8136
tp204
g0
(g9
g2
Ntp205
Rp206
(dp207
g13
I01
sg14
F-1.899722103783065
sg15
g204
sbs(I9307
I2308
tp208
g0
(g9
g2
Ntp209
Rp210
(dp211
g13
I01
sg14
F-2.4939967880894653
sg15
g208
sbs(I-4
I8731
tp212
g0
(g9
g2
Ntp213
Rp214
(dp215
g13
I00
sg14
F-0.4779387300695065
sg15
g212
sbs(I13935
I2308
tp216
g0
(g9
g2
Ntp217
Rp218
(dp219
g13
I00
sg14
F0.8632888699525102
sg15
g216
sbs(I23485
I10297
tp220
g0
(g9
g2
Ntp221
Rp222
(dp223
g13
I01
sg14
F-0.9866554146848499
sg15
g220
sbs(I7105
I20335
tp224
g0
(g9
g2
Ntp225
Rp226
(dp227
g13
I00
sg14
F-4.794604492289844
sg15
g224
sbs(I18785
I1
tp228
g0
(g9
g2
Ntp229
Rp230
(dp231
g13
I01
sg14
F1.522560424973966
sg15
g228
sbs(I1
I18297
tp232
g0
(g9
g2
Ntp233
Rp234
(dp235
g13
I01
sg14
F-2.1196935326090856
sg15
g232
sbs(I11237
I5310
tp236
g0
(g9
g2
Ntp237
Rp238
(dp239
g13
I00
sg14
F1.1787964716505988
sg15
g236
sbs(I13024
I28054
tp240
g0
(g9
g2
Ntp241
Rp242
(dp243
g13
I01
sg14
F2.307453664765548
sg15
g240
sbs(I13230
I2308
tp244
g0
(g9
g2
Ntp245
Rp246
(dp247
g13
I01
sg14
F-4.35354197631082
sg15
g244
sbs(I13522
I15020
tp248
g0
(g9
g2
Ntp249
Rp250
(dp251
g13
I00
sg14
F-2.2181971458524514
sg15
g248
sbs(I13522
I22363
tp252
g0
(g9
g2
Ntp253
Rp254
(dp255
g13
I01
sg14
F-1.5635022287994198
sg15
g252
sbs(I20176
I16347
tp256
g0
(g9
g2
Ntp257
Rp258
(dp259
g13
I01
sg14
F-2.9999768705617043
sg15
g256
sbs(I15822
I13935
tp260
g0
(g9
g2
Ntp261
Rp262
(dp263
g13
I01
sg14
F0.7801091729326469
sg15
g260
sbs(I13522
I15945
tp264
g0
(g9
g2
Ntp265
Rp266
(dp267
g13
I00
sg14
F0.5419100179151041
sg15
g264
sbs(I27019
I7049
tp268
g0
(g9
g2
Ntp269
Rp270
(dp271
g13
I01
sg14
F-4.373846515581977
sg15
g268
sbs(I14638
I21407
tp272
g0
(g9
g2
Ntp273
Rp274
(dp275
g13
I00
sg14
F4.721224908160697
sg15
g272
sbs(I26837
I8673
tp276
g0
(g9
g2
Ntp277
Rp278
(dp279
g13
I00
sg14
F0.09301739643341489
sg15
g276
sbs(I21680
I9307
tp280
g0
(g9
g2
Ntp281
Rp282
(dp283
g13
I01
sg14
F0.9940095821538272
sg15
g280
sbs(I21680
I22135
tp284
g0
(g9
g2
Ntp285
Rp286
(dp287
g13
I01
sg14
F-0.612137076565033
sg15
g284
sbs(I11098
I7302
tp288
g0
(g9
g2
Ntp289
Rp290
(dp291
g13
I01
sg14
F0.35521558425236455
sg15
g288
sbs(I12659
I14123
tp292
g0
(g9
g2
Ntp293
Rp294
(dp295
g13
I01
sg14
F-0.06354473963763951
sg15
g292
sbs(I-2
I20589
tp296
g0
(g9
g2
Ntp297
Rp298
(dp299
g13
I00
sg14
F0.9990054714356722
sg15
g296
sbs(I9168
I8522
tp300
g0
(g9
g2
Ntp301
Rp302
(dp303
g13
I00
sg14
F2.3976023637827892
sg15
g300
sbs(I-4
I19986
tp304
g0
(g9
g2
Ntp305
Rp306
(dp307
g13
I00
sg14
F-0.5692181908628813
sg15
g304
sbs(I15884
I11535
tp308
g0
(g9
g2
Ntp309
Rp310
(dp311
g13
I01
sg14
F0.731021944144238
sg15
g308
sbs(I15020
I7105
tp312
g0
(g9
g2
Ntp313
Rp314
(dp315
g13
I01
sg14
F-0.8917628889007665
sg15
g312
sbs(I15326
I0
tp316
g0
(g9
g2
Ntp317
Rp318
(dp319
g13
I01
sg14
F0.7820446103479338
sg15
g316
sbs(I26949
I21200
tp320
g0
(g9
g2
Ntp321
Rp322
(dp323
g13
I01
sg14
F-2.526401711949201
sg15
g320
sbs(I8553
I17973
tp324
g0
(g9
g2
Ntp325
Rp326
(dp327
g13
I01
sg14
F1.2614530763894671
sg15
g324
sbs(I16536
I9307
tp328
g0
(g9
g2
Ntp329
Rp330
(dp331
g13
I00
sg14
F-1.5046741121224898
sg15
g328
sbs(I12659
I4996
tp332
g0
(g9
g2
Ntp333
Rp334
(dp335
g13
I01
sg14
F1.1276757253949528
sg15
g332
sbs(I7049
I21680
tp336
g0
(g9
g2
Ntp337
Rp338
(dp339
g13
I01
sg14
F-2.2332159537389957
sg15
g336
sbs(I14638
I22415
tp340
g0
(g9
g2
Ntp341
Rp342
(dp343
g13
I01
sg14
F3.6197640581687835
sg15
g340
sbs(I8553
I22193
tp344
g0
(g9
g2
Ntp345
Rp346
(dp347
g13
I01
sg14
F2.79716704442663
sg15
g344
sbs(I19866
I14706
tp348
g0
(g9
g2
Ntp349
Rp350
(dp351
g13
I01
sg14
F2.2473495163731227
sg15
g348
sbs(I18568
I20943
tp352
g0
(g9
g2
Ntp353
Rp354
(dp355
g13
I01
sg14
F0.9378993898001173
sg15
g352
sbs(I17843
I20136
tp356
g0
(g9
g2
Ntp357
Rp358
(dp359
g13
I00
sg14
F2.447666016009277
sg15
g356
sbs(I-2
I8673
tp360
g0
(g9
g2
Ntp361
Rp362
(dp363
g13
I01
sg14
F-1.0901629740753618
sg15
g360
sbs(I9699
I10297
tp364
g0
(g9
g2
Ntp365
Rp366
(dp367
g13
I00
sg14
F0.9071915884959293
sg15
g364
sbs(I17630
I12335
tp368
g0
(g9
g2
Ntp369
Rp370
(dp371
g13
I00
sg14
F0.09226948332402118
sg15
g368
sbs(I-2
I26837
tp372
g0
(g9
g2
Ntp373
Rp374
(dp375
g13
I01
sg14
F0.14522320193038413
sg15
g372
sbs(I12755
I23485
tp376
g0
(g9
g2
Ntp377
Rp378
(dp379
g13
I01
sg14
F-1.6243286588888877
sg15
g376
sbs(I13522
I14638
tp380
g0
(g9
g2
Ntp381
Rp382
(dp383
g13
I01
sg14
F-0.26820821661468086
sg15
g380
sbs(I21055
I22063
tp384
g0
(g9
g2
Ntp385
Rp386
(dp387
g13
I01
sg14
F0.3725660631534259
sg15
g384
sbs(I19986
I19866
tp388
g0
(g9
g2
Ntp389
Rp390
(dp391
g13
I00
sg14
F1.0299308423593032
sg15
g388
sbs(I22177
I26949
tp392
g0
(g9
g2
Ntp393
Rp394
(dp395
g13
I01
sg14
F-7.177332264424137
sg15
g392
sbs(I13935
I20136
tp396
g0
(g9
g2
Ntp397
Rp398
(dp399
g13
I01
sg14
F-0.031809828137528515
sg15
g396
sbs(I21055
I12633
tp400
g0
(g9
g2
Ntp401
Rp402
(dp403
g13
I01
sg14
F0.679190997876798
sg15
g400
sbs(I11535
I7374
tp404
g0
(g9
g2
Ntp405
Rp406
(dp407
g13
I01
sg14
F-0.4047297100259134
sg15
g404
sbs(I21961
I16371
tp408
g0
(g9
g2
Ntp409
Rp410
(dp411
g13
I01
sg14
F-0.2117828374972039
sg15
g408
sbs(I13522
I7105
tp412
g0
(g9
g2
Ntp413
Rp414
(dp415
g13
I00
sg14
F0.7618827792461608
sg15
g412
sbs(I20136
I2308
tp416
g0
(g9
g2
Ntp417
Rp418
(dp419
g13
I00
sg14
F1.9467090164853733
sg15
g416
sbs(I8673
I14706
tp420
g0
(g9
g2
Ntp421
Rp422
(dp423
g13
I01
sg14
F0.12980534844227876
sg15
g420
sbs(I12659
I13170
tp424
g0
(g9
g2
Ntp425
Rp426
(dp427
g13
I01
sg14
F-1.1884076860005304
sg15
g424
sbs(I28021
I19866
tp428
g0
(g9
g2
Ntp429
Rp430
(dp431
g13
I01
sg14
F-0.2632939392391156
sg15
g428
sbs(I8731
I9307
tp432
g0
(g9
g2
Ntp433
Rp434
(dp435
g13
I01
sg14
F-0.15799689245250997
sg15
g432
sbs(I17843
I14638
tp436
g0
(g9
g2
Ntp437
Rp438
(dp439
g13
I01
sg14
F-2.265445628955376
sg15
g436
sbs(I-2
I18136
tp440
g0
(g9
g2
Ntp441
Rp442
(dp443
g13
I01
sg14
F-0.24329414786461145
sg15
g440
sbs(I14706
I18407
tp444
g0
(g9
g2
Ntp445
Rp446
(dp447
g13
I01
sg14
F1.4569015127720004
sg15
g444
sbs(I16371
I29228
tp448
g0
(g9
g2
Ntp449
Rp450
(dp451
g13
I01
sg14
F-2.690387708296082
sg15
g448
sbs(I8522
I8553
tp452
g0
(g9
g2
Ntp453
Rp454
(dp455
g13
I00
sg14
F0.10075056528993032
sg15
g452
sbs(I13935
I12755
tp456
g0
(g9
g2
Ntp457
Rp458
(dp459
g13
I01
sg14
F-2.1211626206851664
sg15
g456
sbs(I1
I10453
tp460
g0
(g9
g2
Ntp461
Rp462
(dp463
g13
I01
sg14
F-0.5130973096355964
sg15
g460
sbs(I5337
I5310
tp464
g0
(g9
g2
Ntp465
Rp466
(dp467
g13
I00
sg14
F2.219640181171757
sg15
g464
sbs(I20335
I15326
tp468
g0
(g9
g2
Ntp469
Rp470
(dp471
g13
I01
sg14
F-3.414066841287899
sg15
g468
sbs(I5310
I29188
tp472
g0
(g9
g2
Ntp473
Rp474
(dp475
g13
I01
sg14
F-1.1217893842845421
sg15
g472
sbs(I12253
I15020
tp476
g0
(g9
g2
Ntp477
Rp478
(dp479
g13
I01
sg14
F1.5590500054827454
sg15
g476
sbs(I5310
I2308
tp480
g0
(g9
g2
Ntp481
Rp482
(dp483
g13
I00
sg14
F1.8001169499176828
sg15
g480
sbs(I1
I11535
tp484
g0
(g9
g2
Ntp485
Rp486
(dp487
g13
I00
sg14
F0.000313266619141675
sg15
g484
sbs(I11237
I6757
tp488
g0
(g9
g2
Ntp489
Rp490
(dp491
g13
I01
sg14
F1.090475730842166
sg15
g488
sbs(I11280
I21680
tp492
g0
(g9
g2
Ntp493
Rp494
(dp495
g13
I01
sg14
F-1.9572965585051834
sg15
g492
sbs(I29188
I7302
tp496
g0
(g9
g2
Ntp497
Rp498
(dp499
g13
I01
sg14
F1.0589868752298464
sg15
g496
sbs(I-2
I18568
tp500
g0
(g9
g2
Ntp501
Rp502
(dp503
g13
I00
sg14
F2.7916500735074816
sg15
g500
sbs(I1
I20993
tp504
g0
(g9
g2
Ntp505
Rp506
(dp507
g13
I01
sg14
F-0.6083483178838235
sg15
g504
sbs(I16371
I18136
tp508
g0
(g9
g2
Ntp509
Rp510
(dp511
g13
I01
sg14
F1.4849270766433489
sg15
g508
sbs(I8673
I6757
tp512
g0
(g9
g2
Ntp513
Rp514
(dp515
g13
I01
sg14
F-1.043791668294428
sg15
g512
sbs(I-2
I11237
tp516
g0
(g9
g2
Ntp517
Rp518
(dp519
g13
I01
sg14
F0.22273256955949255
sg15
g516
sbs(I19986
I28021
tp520
g0
(g9
g2
Ntp521
Rp522
(dp523
g13
I01
sg14
F2.0295843170829846
sg15
g520
sbs(I13637
I22135
tp524
g0
(g9
g2
Ntp525
Rp526
(dp527
g13
I01
sg14
F-0.9618486883880872
sg15
g524
sbs(I5310
I7302
tp528
g0
(g9
g2
Ntp529
Rp530
(dp531
g13
I01
sg14
F-1.0633951403571154
sg15
g528
sbs(I13484
I11535
tp532
g0
(g9
g2
Ntp533
Rp534
(dp535
g13
I00
sg14
F-1.4043523877247912
sg15
g532
sbs(I13522
I14934
tp536
g0
(g9
g2
Ntp537
Rp538
(dp539
g13
I00
sg14
F0.3872519786821209
sg15
g536
sbs(I22177
I21200
tp540
g0
(g9
g2
Ntp541
Rp542
(dp543
g13
I01
sg14
F-2.0929098117131275
sg15
g540
sbs(I14123
I8553
tp544
g0
(g9
g2
Ntp545
Rp546
(dp547
g13
I01
sg14
F2.4392564881672207
sg15
g544
sbs(I17630
I14294
tp548
g0
(g9
g2
Ntp549
Rp550
(dp551
g13
I01
sg14
F4.505496396432656
sg15
g548
sbs(I10297
I8673
tp552
g0
(g9
g2
Ntp553
Rp554
(dp555
g13
I01
sg14
F-0.616409371864863
sg15
g552
sbs(I5310
I13637
tp556
g0
(g9
g2
Ntp557
Rp558
(dp559
g13
I00
sg14
F1.3224538434778184
sg15
g556
sbs(I17843
I20589
tp560
g0
(g9
g2
Ntp561
Rp562
(dp563
g13
I01
sg14
F-0.38291904783027675
sg15
g560
sbs(I22135
I9307
tp564
g0
(g9
g2
Ntp565
Rp566
(dp567
g13
I01
sg14
F8.42201607126114
sg15
g564
sbs(I-2
I3961
tp568
g0
(g9
g2
Ntp569
Rp570
(dp571
g13
I01
sg14
F0.7095555405180136
sg15
g568
sbs(I10118
I27632
tp572
g0
(g9
g2
Ntp573
Rp574
(dp575
g13
I00
sg14
F1.0879099010201032
sg15
g572
sbs(I18297
I29564
tp576
g0
(g9
g2
Ntp577
Rp578
(dp579
g13
I01
sg14
F1.2242957439040274
sg15
g576
sbs(I20176
I15884
tp580
g0
(g9
g2
Ntp581
Rp582
(dp583
g13
I01
sg14
F0.7468454957037494
sg15
g580
sbs(I18136
I5310
tp584
g0
(g9
g2
Ntp585
Rp586
(dp587
g13
I01
sg14
F0.26491511030367487
sg15
g584
sbs(I16371
I7302
tp588
g0
(g9
g2
Ntp589
Rp590
(dp591
g13
I01
sg14
F-0.3604318293682204
sg15
g588
sbs(I8809
I3
tp592
g0
(g9
g2
Ntp593
Rp594
(dp595
g13
I01
sg14
F-1.9536115472364304
sg15
g592
sbs(I-2
I5337
tp596
g0
(g9
g2
Ntp597
Rp598
(dp599
g13
I00
sg14
F1.2754149074152061
sg15
g596
sbs(I7105
I12335
tp600
g0
(g9
g2
Ntp601
Rp602
(dp603
g13
I01
sg14
F-0.5912087121290412
sg15
g600
sbs(I22193
I17973
tp604
g0
(g9
g2
Ntp605
Rp606
(dp607
g13
I01
sg14
F-0.7717114241752852
sg15
g604
sbs(I1
I22451
tp608
g0
(g9
g2
Ntp609
Rp610
(dp611
g13
I01
sg14
F-1.9171509968971656
sg15
g608
sbs(I28054
I5310
tp612
g0
(g9
g2
Ntp613
Rp614
(dp615
g13
I00
sg14
F-2.211713302076083
sg15
g612
sbs(I9307
I3
tp616
g0
(g9
g2
Ntp617
Rp618
(dp619
g13
I00
sg14
F-1.5611451986655185
sg15
g616
sbs(I12755
I21055
tp620
g0
(g9
g2
Ntp621
Rp622
(dp623
g13
I01
sg14
F0.030167783384189018
sg15
g620
sbs(I9835
I8522
tp624
g0
(g9
g2
Ntp625
Rp626
(dp627
g13
I01
sg14
F-2.142601958110965
sg15
g624
sbs(I22451
I2308
tp628
g0
(g9
g2
Ntp629
Rp630
(dp631
g13
I01
sg14
F-0.5990071756778577
sg15
g628
sbs(I1
I3961
tp632
g0
(g9
g2
Ntp633
Rp634
(dp635
g13
I00
sg14
F-2.3626013132433785
sg15
g632
sbs(I21055
I19986
tp636
g0
(g9
g2
Ntp637
Rp638
(dp639
g13
I01
sg14
F0.9408012419045099
sg15
g636
sbs(I20943
I5337
tp640
g0
(g9
g2
Ntp641
Rp642
(dp643
g13
I01
sg14
F0.6874405606749343
sg15
g640
sbs(I7688
I22177
tp644
g0
(g9
g2
Ntp645
Rp646
(dp647
g13
I01
sg14
F3.341546836085125
sg15
g644
sbs(I12253
I7049
tp648
g0
(g9
g2
Ntp649
Rp650
(dp651
g13
I01
sg14
F-3.9924130858060556
sg15
g648
sbs(I21407
I6757
tp652
g0
(g9
g2
Ntp653
Rp654
(dp655
g13
I01
sg14
F0.04075273688570877
sg15
g652
sbs(I11098
I21961
tp656
g0
(g9
g2
Ntp657
Rp658
(dp659
g13
I01
sg14
F0.7611133009769173
sg15
g656
sbs(I10863
I8673
tp660
g0
(g9
g2
Ntp661
Rp662
(dp663
g13
I00
sg14
F2.0179026748547275
sg15
g660
sbs(I20993
I11535
tp664
g0
(g9
g2
Ntp665
Rp666
(dp667
g13
I01
sg14
F1.3380024350020137
sg15
g664
sbs(I20993
I2308
tp668
g0
(g9
g2
Ntp669
Rp670
(dp671
g13
I01
sg14
F0.32764388313711595
sg15
g668
sbs(I11098
I16371
tp672
g0
(g9
g2
Ntp673
Rp674
(dp675
g13
I00
sg14
F-1.4594882153373967
sg15
g672
sbs(I21611
I10118
tp676
g0
(g9
g2
Ntp677
Rp678
(dp679
g13
I01
sg14
F-0.228184298529292
sg15
g676
sbs(I19866
I21109
tp680
g0
(g9
g2
Ntp681
Rp682
(dp683
g13
I01
sg14
F-0.40392961877411593
sg15
g680
sbs(I5310
I13935
tp684
g0
(g9
g2
Ntp685
Rp686
(dp687
g13
I01
sg14
F-2.994707840900958
sg15
g684
sbs(I20335
I22135
tp688
g0
(g9
g2
Ntp689
Rp690
(dp691
g13
I00
sg14
F-1.7680167300956384
sg15
g688
sbs(I10863
I20478
tp692
g0
(g9
g2
Ntp693
Rp694
(dp695
g13
I01
sg14
F-1.577558834741127
sg15
g692
sbs(I6757
I13230
tp696
g0
(g9
g2
Ntp697
Rp698
(dp699
g13
I00
sg14
F-1.8316942428359648
sg15
g696
sbs(I20478
I8522
tp700
g0
(g9
g2
Ntp701
Rp702
(dp703
g13
I01
sg14
F-1.7202502268465305
sg15
g700
sbs(I17843
I27160
tp704
g0
(g9
g2
Ntp705
Rp706
(dp707
g13
I01
sg14
F-0.5959363354552819
sg15
g704
sbs(I4996
I13401
tp708
g0
(g9
g2
Ntp709
Rp710
(dp711
g13
I01
sg14
F-0.48461771833731654
sg15
g708
sbs(I18297
I10453
tp712
g0
(g9
g2
Ntp713
Rp714
(dp715
g13
I00
sg14
F-0.8653915996644277
sg15
g712
sbs(I29419
I20176
tp716
g0
(g9
g2
Ntp717
Rp718
(dp719
g13
I01
sg14
F0.005247627619151318
sg15
g716
sbs(I-3
I9168
tp720
g0
(g9
g2
Ntp721
Rp722
(dp723
g13
I01
sg14
F0.2977529226781829
sg15
g720
sbssS'nodes'
p724
(dp725
I0
g0
(cneat.genes
DefaultNodeGene
p726
g2
Ntp727
Rp728
(dp729
S'activation'
p730
S'sigmoid'
p731
sS'bias'
p732
F-0.8003980483222168
sS'response'
p733
F1.0
sg15
I0
sS'aggregation'
p734
S'sum'
p735
sbsI1
g0
(g726
g2
Ntp736
Rp737
(dp738
g730
g731
sg732
F-1.4104236869048634
sg733
F1.0
sg15
I1
sg734
g735
sbsI2
g0
(g726
g2
Ntp739
Rp740
(dp741
g730
g731
sg732
F-1.3029054716456916
sg733
F1.0
sg15
I2
sg734
g735
sbsI3
g0
(g726
g2
Ntp742
Rp743
(dp744
g730
g731
sg732
F-0.8747378641602346
sg733
F1.0
sg15
I3
sg734
g735
sbsI29188
g0
(g726
g2
Ntp745
Rp746
(dp747
g730
g731
sg732
F1.0279184391978204
sg733
F1.0
sg15
I29188
sg734
g735
sbsI20993
g0
(g726
g2
Ntp748
Rp749
(dp750
g730
g731
sg732
F1.5487198260845356
sg733
F1.0
sg15
I20993
sg734
g735
sbsI7688
g0
(g726
g2
Ntp751
Rp752
(dp753
g730
g731
sg732
F-0.22685882319680142
sg733
F1.0
sg15
I7688
sg734
g735
sbsI13484
g0
(g726
g2
Ntp754
Rp755
(dp756
g730
g731
sg732
F1.73129174229477
sg733
F1.0
sg15
I13484
sg734
g735
sbsI15884
g0
(g726
g2
Ntp757
Rp758
(dp759
g730
g731
sg732
F0.1646212418747336
sg733
F1.0
sg15
I15884
sg734
g735
sbsI11280
g0
(g726
g2
Ntp760
Rp761
(dp762
g730
g731
sg732
F-1.4517502803238425
sg733
F1.0
sg15
I11280
sg734
g735
sbsI19986
g0
(g726
g2
Ntp763
Rp764
(dp765
g730
g731
sg732
F-0.16985216703294714
sg733
F1.0
sg15
I19986
sg734
g735
sbsI27160
g0
(g726
g2
Ntp766
Rp767
(dp768
g730
g731
sg732
F-0.9355714295957576
sg733
F1.0
sg15
I27160
sg734
g735
sbsI8731
g0
(g726
g2
Ntp769
Rp770
(dp771
g730
g731
sg732
F-0.6704215691026971
sg733
F1.0
sg15
I8731
sg734
g735
sbsI29228
g0
(g726
g2
Ntp772
Rp773
(dp774
g730
g731
sg732
F0.9612582783931299
sg733
F1.0
sg15
I29228
sg734
g735
sbsI22063
g0
(g726
g2
Ntp775
Rp776
(dp777
g730
g731
sg732
F-1.177706342987298
sg733
F1.0
sg15
I22063
sg734
g735
sbsI17843
g0
(g726
g2
Ntp778
Rp779
(dp780
g730
g731
sg732
F-0.4762047286329671
sg733
F1.0
sg15
I17843
sg734
g735
sbsI17973
g0
(g726
g2
Ntp781
Rp782
(dp783
g730
g731
sg732
F2.4722603785992114
sg733
F1.0
sg15
I17973
sg734
g735
sbsI10297
g0
(g726
g2
Ntp784
Rp785
(dp786
g730
g731
sg732
F0.2707039284993971
sg733
F1.0
sg15
I10297
sg734
g735
sbsI21055
g0
(g726
g2
Ntp787
Rp788
(dp789
g730
g731
sg732
F-1.7893032901970178
sg733
F1.0
sg15
I21055
sg734
g735
sbsI15945
g0
(g726
g2
Ntp790
Rp791
(dp792
g730
g731
sg732
F1.8224640050461667
sg733
F1.0
sg15
I15945
sg734
g735
sbsI14934
g0
(g726
g2
Ntp793
Rp794
(dp795
g730
g731
sg732
F-1.3103400834748034
sg733
F1.0
sg15
I14934
sg734
g735
sbsI13401
g0
(g726
g2
Ntp796
Rp797
(dp798
g730
g731
sg732
F0.15196385536522924
sg733
F1.0
sg15
I13401
sg734
g735
sbsI9307
g0
(g726
g2
Ntp799
Rp800
(dp801
g730
g731
sg732
F-3.223580515083179
sg733
F1.0
sg15
I9307
sg734
g735
sbsI6757
g0
(g726
g2
Ntp802
Rp803
(dp804
g730
g731
sg732
F1.0314056032815704
sg733
F1.0
sg15
I6757
sg734
g735
sbsI8809
g0
(g726
g2
Ntp805
Rp806
(dp807
g730
g731
sg732
F-0.4927081457066761
sg733
F1.0
sg15
I8809
sg734
g735
sbsI21611
g0
(g726
g2
Ntp808
Rp809
(dp810
g730
g731
sg732
F-0.7226028034128296
sg733
F1.0
sg15
I21611
sg734
g735
sbsI20589
g0
(g726
g2
Ntp811
Rp812
(dp813
g730
g731
sg732
F-0.12845917907388604
sg733
F1.0
sg15
I20589
sg734
g735
sbsI13935
g0
(g726
g2
Ntp814
Rp815
(dp816
g730
g731
sg732
F0.5059293585721139
sg733
F1.0
sg15
I13935
sg734
g735
sbsI21109
g0
(g726
g2
Ntp817
Rp818
(dp819
g730
g731
sg732
F0.7712430183190059
sg733
F1.0
sg15
I21109
sg734
g735
sbsI22135
g0
(g726
g2
Ntp820
Rp821
(dp822
g730
g731
sg732
F1.7608450464297345
sg733
F1.0
sg15
I22135
sg734
g735
sbsI9835
g0
(g726
g2
Ntp823
Rp824
(dp825
g730
g731
sg732
F1.2232336418723027
sg733
F1.0
sg15
I9835
sg734
g735
sbsI7302
g0
(g726
g2
Ntp826
Rp827
(dp828
g730
g731
sg732
F2.456237195042524
sg733
F1.0
sg15
I7302
sg734
g735
sbsI18568
g0
(g726
g2
Ntp829
Rp830
(dp831
g730
g731
sg732
F-1.415952042200289
sg733
F1.0
sg15
I18568
sg734
g735
sbsI16536
g0
(g726
g2
Ntp832
Rp833
(dp834
g730
g731
sg732
F-0.9865023840633365
sg733
F1.0
sg15
I16536
sg734
g735
sbsI10863
g0
(g726
g2
Ntp835
Rp836
(dp837
g730
g731
sg732
F0.6791113077286652
sg733
F1.0
sg15
I10863
sg734
g735
sbsI22177
g0
(g726
g2
Ntp838
Rp839
(dp840
g730
g731
sg732
F-2.856577198958129
sg733
F1.0
sg15
I22177
sg734
g735
sbsI20136
g0
(g726
g2
Ntp841
Rp842
(dp843
g730
g731
sg732
F0.006562594427187651
sg733
F1.0
sg15
I20136
sg734
g735
sbsI15020
g0
(g726
g2
Ntp844
Rp845
(dp846
g730
g731
sg732
F0.14550858862303068
sg733
F1.0
sg15
I15020
sg734
g735
sbsI14706
g0
(g726
g2
Ntp847
Rp848
(dp849
g730
g731
sg732
F0.10076595095666227
sg733
F1.0
sg15
I14706
sg734
g735
sbsI21680
g0
(g726
g2
Ntp850
Rp851
(dp852
g730
g731
sg732
F2.176472563410597
sg733
F1.0
sg15
I21680
sg734
g735
sbsI22193
g0
(g726
g2
Ntp853
Rp854
(dp855
g730
g731
sg732
F-1.4183105626811232
sg733
F1.0
sg15
I22193
sg734
g735
sbsI5310
g0
(g726
g2
Ntp856
Rp857
(dp858
g730
g731
sg732
F-0.7253317860972892
sg733
F1.0
sg15
I5310
sg734
g735
sbsI7374
g0
(g726
g2
Ntp859
Rp860
(dp861
g730
g731
sg732
F-0.19990647358404562
sg733
F1.0
sg15
I7374
sg734
g735
sbsI20176
g0
(g726
g2
Ntp862
Rp863
(dp864
g730
g731
sg732
F0.9777868007691971
sg733
F1.0
sg15
I20176
sg734
g735
sbsI13522
g0
(g726
g2
Ntp865
Rp866
(dp867
g730
g731
sg732
F2.482724951342372
sg733
F1.0
sg15
I13522
sg734
g735
sbsI10453
g0
(g726
g2
Ntp868
Rp869
(dp870
g730
g731
sg732
F0.04821174625648596
sg733
F1.0
sg15
I10453
sg734
g735
sbsI3961
g0
(g726
g2
Ntp871
Rp872
(dp873
g730
g731
sg732
F2.1732708284097852
sg733
F1.0
sg15
I3961
sg734
g735
sbsI18136
g0
(g726
g2
Ntp874
Rp875
(dp876
g730
g731
sg732
F-3.300068146643722
sg733
F1.0
sg15
I18136
sg734
g735
sbsI5337
g0
(g726
g2
Ntp877
Rp878
(dp879
g730
g731
sg732
F-0.9146447976781579
sg733
F1.0
sg15
I5337
sg734
g735
sbsI17630
g0
(g726
g2
Ntp880
Rp881
(dp882
g730
g731
sg732
F0.9382807979054605
sg733
F1.0
sg15
I17630
sg734
g735
sbsI13024
g0
(g726
g2
Ntp883
Rp884
(dp885
g730
g731
sg732
F4.327564944077275
sg733
F1.0
sg15
I13024
sg734
g735
sbsI21200
g0
(g726
g2
Ntp886
Rp887
(dp888
g730
g731
sg732
F-1.2740008518780614
sg733
F1.0
sg15
I21200
sg734
g735
sbsI29419
g0
(g726
g2
Ntp889
Rp890
(dp891
g730
g731
sg732
F-0.12641691680492817
sg733
F1.0
sg15
I29419
sg734
g735
sbsI26837
g0
(g726
g2
Ntp892
Rp893
(dp894
g730
g731
sg732
F2.281133012711921
sg733
F1.0
sg15
I26837
sg734
g735
sbsI2308
g0
(g726
g2
Ntp895
Rp896
(dp897
g730
g731
sg732
F0.19236861389150628
sg733
F1.0
sg15
I2308
sg734
g735
sbsI11535
g0
(g726
g2
Ntp898
Rp899
(dp900
g730
g731
sg732
F-0.04402827781261465
sg733
F1.0
sg15
I11535
sg734
g735
sbsI12335
g0
(g726
g2
Ntp901
Rp902
(dp903
g730
g731
sg732
F2.175233868477936
sg733
F1.0
sg15
I12335
sg734
g735
sbsI14123
g0
(g726
g2
Ntp904
Rp905
(dp906
g730
g731
sg732
F0.5241509092041445
sg733
F1.0
sg15
I14123
sg734
g735
sbsI26924
g0
(g726
g2
Ntp907
Rp908
(dp909
g730
g731
sg732
F0.9201827382092271
sg733
F1.0
sg15
I26924
sg734
g735
sbsI14638
g0
(g726
g2
Ntp910
Rp911
(dp912
g730
g731
sg732
F1.0083582835940805
sg733
F1.0
sg15
I14638
sg734
g735
sbsI5436
g0
(g726
g2
Ntp913
Rp914
(dp915
g730
g731
sg732
F1.7689201909542185
sg733
F1.0
sg15
I5436
sg734
g735
sbsI26949
g0
(g726
g2
Ntp916
Rp917
(dp918
g730
g731
sg732
F0.4931479269866845
sg733
F1.0
sg15
I26949
sg734
g735
sbsI8522
g0
(g726
g2
Ntp919
Rp920
(dp921
g730
g731
sg732
F1.2776108620111186
sg733
F1.0
sg15
I8522
sg734
g735
sbsI19789
g0
(g726
g2
Ntp922
Rp923
(dp924
g730
g731
sg732
F0.5653219554721699
sg733
F1.0
sg15
I19789
sg734
g735
sbsI12633
g0
(g726
g2
Ntp925
Rp926
(dp927
g730
g731
sg732
F-2.0532440234646936
sg733
F1.0
sg15
I12633
sg734
g735
sbsI11098
g0
(g726
g2
Ntp928
Rp929
(dp930
g730
g731
sg732
F1.0509889319082197
sg733
F1.0
sg15
I11098
sg734
g735
sbsI22363
g0
(g726
g2
Ntp931
Rp932
(dp933
g730
g731
sg732
F1.1884339963921213
sg733
F1.0
sg15
I22363
sg734
g735
sbsI18785
g0
(g726
g2
Ntp934
Rp935
(dp936
g730
g731
sg732
F-2.026111093858704
sg733
F1.0
sg15
I18785
sg734
g735
sbsI8553
g0
(g726
g2
Ntp937
Rp938
(dp939
g730
g731
sg732
F0.6947434146525941
sg733
F1.0
sg15
I8553
sg734
g735
sbsI20335
g0
(g726
g2
Ntp940
Rp941
(dp942
g730
g731
sg732
F0.9371880301727817
sg733
F1.0
sg15
I20335
sg734
g735
sbsI13170
g0
(g726
g2
Ntp943
Rp944
(dp945
g730
g731
sg732
F0.38678982072309254
sg733
F1.0
sg15
I13170
sg734
g735
sbsI12659
g0
(g726
g2
Ntp946
Rp947
(dp948
g730
g731
sg732
F1.727952699527139
sg733
F1.0
sg15
I12659
sg734
g735
sbsI28021
g0
(g726
g2
Ntp949
Rp950
(dp951
g730
g731
sg732
F1.0883220332883596
sg733
F1.0
sg15
I28021
sg734
g735
sbsI18297
g0
(g726
g2
Ntp952
Rp953
(dp954
g730
g731
sg732
F0.4591512837600042
sg733
F1.0
sg15
I18297
sg734
g735
sbsI29564
g0
(g726
g2
Ntp955
Rp956
(dp957
g730
g731
sg732
F0.5587632343655673
sg733
F1.0
sg15
I29564
sg734
g735
sbsI4996
g0
(g726
g2
Ntp958
Rp959
(dp960
g730
g731
sg732
F-2.094376783809099
sg733
F1.0
sg15
I4996
sg734
g735
sbsI10118
g0
(g726
g2
Ntp961
Rp962
(dp963
g730
g731
sg732
F0.5269528644367778
sg733
F1.0
sg15
I10118
sg734
g735
sbsI7049
g0
(g726
g2
Ntp964
Rp965
(dp966
g730
g731
sg732
F0.31129213139710654
sg733
F1.0
sg15
I7049
sg734
g735
sbsI27019
g0
(g726
g2
Ntp967
Rp968
(dp969
g730
g731
sg732
F-2.205277446261153
sg733
F1.0
sg15
I27019
sg734
g735
sbsI22415
g0
(g726
g2
Ntp970
Rp971
(dp972
g730
g731
sg732
F-1.6023395182215399
sg733
F1.0
sg15
I22415
sg734
g735
sbsI28054
g0
(g726
g2
Ntp973
Rp974
(dp975
g730
g731
sg732
F0.8998415404448209
sg733
F1.0
sg15
I28054
sg734
g735
sbsI19866
g0
(g726
g2
Ntp976
Rp977
(dp978
g730
g731
sg732
F-2.0168462485257157
sg733
F1.0
sg15
I19866
sg734
g735
sbsI21407
g0
(g726
g2
Ntp979
Rp980
(dp981
g730
g731
sg732
F-0.18713519470179193
sg733
F1.0
sg15
I21407
sg734
g735
sbsI13230
g0
(g726
g2
Ntp982
Rp983
(dp984
g730
g731
sg732
F-1.388794996796316
sg733
F1.0
sg15
I13230
sg734
g735
sbsI22451
g0
(g726
g2
Ntp985
Rp986
(dp987
g730
g731
sg732
F-0.8652274366546366
sg733
F1.0
sg15
I22451
sg734
g735
sbsI23485
g0
(g726
g2
Ntp988
Rp989
(dp990
g730
g731
sg732
F0.041114041028605476
sg733
F1.0
sg15
I23485
sg734
g735
sbsI7105
g0
(g726
g2
Ntp991
Rp992
(dp993
g730
g731
sg732
F4.295031849549634
sg733
F1.0
sg15
I7105
sg734
g735
sbsI13637
g0
(g726
g2
Ntp994
Rp995
(dp996
g730
g731
sg732
F0.004080131223991925
sg733
F1.0
sg15
I13637
sg734
g735
sbsI8136
g0
(g726
g2
Ntp997
Rp998
(dp999
g730
g731
sg732
F-0.7626883869603612
sg733
F1.0
sg15
I8136
sg734
g735
sbsI21961
g0
(g726
g2
Ntp1000
Rp1001
(dp1002
g730
g731
sg732
F2.355832237766724
sg733
F1.0
sg15
I21961
sg734
g735
sbsI15822
g0
(g726
g2
Ntp1003
Rp1004
(dp1005
g730
g731
sg732
F-1.0248019170163465
sg733
F1.0
sg15
I15822
sg734
g735
sbsI20943
g0
(g726
g2
Ntp1006
Rp1007
(dp1008
g730
g731
sg732
F0.28018966409719664
sg733
F1.0
sg15
I20943
sg734
g735
sbsI9168
g0
(g726
g2
Ntp1009
Rp1010
(dp1011
g730
g731
sg732
F-0.5182577787207714
sg733
F1.0
sg15
I9168
sg734
g735
sbsI12755
g0
(g726
g2
Ntp1012
Rp1013
(dp1014
g730
g731
sg732
F-1.2568993757829676
sg733
F1.0
sg15
I12755
sg734
g735
sbsI14294
g0
(g726
g2
Ntp1015
Rp1016
(dp1017
g730
g731
sg732
F1.340369384237536
sg733
F1.0
sg15
I14294
sg734
g735
sbsI16347
g0
(g726
g2
Ntp1018
Rp1019
(dp1020
g730
g731
sg732
F3.448995531880458
sg733
F1.0
sg15
I16347
sg734
g735
sbsI12253
g0
(g726
g2
Ntp1021
Rp1022
(dp1023
g730
g731
sg732
F-0.14263741929315243
sg733
F1.0
sg15
I12253
sg734
g735
sbsI15326
g0
(g726
g2
Ntp1024
Rp1025
(dp1026
g730
g731
sg732
F-0.2167381702079793
sg733
F1.0
sg15
I15326
sg734
g735
sbsI8673
g0
(g726
g2
Ntp1027
Rp1028
(dp1029
g730
g731
sg732
F5.4208692348983245
sg733
F1.0
sg15
I8673
sg734
g735
sbsI9699
g0
(g726
g2
Ntp1030
Rp1031
(dp1032
g730
g731
sg732
F1.4494803936197216
sg733
F1.0
sg15
I9699
sg734
g735
sbsI11237
g0
(g726
g2
Ntp1033
Rp1034
(dp1035
g730
g731
sg732
F-1.2675678707310745
sg733
F1.0
sg15
I11237
sg734
g735
sbsI18407
g0
(g726
g2
Ntp1036
Rp1037
(dp1038
g730
g731
sg732
F-0.08152540120330548
sg733
F1.0
sg15
I18407
sg734
g735
sbsI27632
g0
(g726
g2
Ntp1039
Rp1040
(dp1041
g730
g731
sg732
F0.09821653406707759
sg733
F1.0
sg15
I27632
sg734
g735
sbsI16371
g0
(g726
g2
Ntp1042
Rp1043
(dp1044
g730
g731
sg732
F-0.4217382382266138
sg733
F1.0
sg15
I16371
sg734
g735
sbsI20478
g0
(g726
g2
Ntp1045
Rp1046
(dp1047
g730
g731
sg732
F-0.7609751121187087
sg733
F1.0
sg15
I20478
sg734
g735
sbssg15
I89089
sS'fitness'
p1048
F-5.999999999999995
sb.