ccopy_reg
_reconstructor
p0
(cneat.genome
DefaultGenome
p1
c__builtin__
object
p2
Ntp3
Rp4
(dp5
S'connections'
p6
(dp7
(I19658
I7371
tp8
g0
(cneat.genes
DefaultConnectionGene
p9
g2
Ntp10
Rp11
(dp12
S'enabled'
p13
I01
sS'weight'
p14
F-1.1683092257508094
sS'key'
p15
g8
sbs(I21729
I14873
tp16
g0
(g9
g2
Ntp17
Rp18
(dp19
g13
I01
sg14
F1.0896083385024302
sg15
g16
sbs(I8832
I14809
tp20
g0
(g9
g2
Ntp21
Rp22
(dp23
g13
I01
sg14
F1.0556243108639225
sg15
g20
sbs(I9648
I4547
tp24
g0
(g9
g2
Ntp25
Rp26
(dp27
g13
I01
sg14
F-1.198097956010568
sg15
g24
sbs(I-3
I5059
tp28
g0
(g9
g2
Ntp29
Rp30
(dp31
g13
I00
sg14
F-1.4452506405148347
sg15
g28
sbs(I7937
I6417
tp32
g0
(g9
g2
Ntp33
Rp34
(dp35
g13
I01
sg14
F-0.1543745179277638
sg15
g32
sbs(I14155
I5465
tp36
g0
(g9
g2
Ntp37
Rp38
(dp39
g13
I00
sg14
F0.5485752923597471
sg15
g36
sbs(I7493
I25646
tp40
g0
(g9
g2
Ntp41
Rp42
(dp43
g13
I00
sg14
F0.39315289491644256
sg15
g40
sbs(I16654
I8832
tp44
g0
(g9
g2
Ntp45
Rp46
(dp47
g13
I00
sg14
F-0.14884452879049215
sg15
g44
sbs(I14809
I13876
tp48
g0
(g9
g2
Ntp49
Rp50
(dp51
g13
I01
sg14
F2.825667819488797
sg15
g48
sbs(I7013
I4187
tp52
g0
(g9
g2
Ntp53
Rp54
(dp55
g13
I00
sg14
F-0.19810384752317736
sg15
g52
sbs(I4996
I24351
tp56
g0
(g9
g2
Ntp57
Rp58
(dp59
g13
I01
sg14
F0.5981186799300258
sg15
g56
sbs(I3277
I8959
tp60
g0
(g9
g2
Ntp61
Rp62
(dp63
g13
I01
sg14
F-1.3909735401015912
sg15
g60
sbs(I8535
I11250
tp64
g0
(g9
g2
Ntp65
Rp66
(dp67
g13
I00
sg14
F2.257053923625466
sg15
g64
sbs(I19709
I6417
tp68
g0
(g9
g2
Ntp69
Rp70
(dp71
g13
I01
sg14
F-0.8777933140435283
sg15
g68
sbs(I19443
I4850
tp72
g0
(g9
g2
Ntp73
Rp74
(dp75
g13
I00
sg14
F3.570647702869154
sg15
g72
sbs(I-3
I21039
tp76
g0
(g9
g2
Ntp77
Rp78
(dp79
g13
I01
sg14
F-1.6475629280215125
sg15
g76
sbs(I7784
I22146
tp80
g0
(g9
g2
Ntp81
Rp82
(dp83
g13
I01
sg14
F-3.555904949246217
sg15
g80
sbs(I14745
I4996
tp84
g0
(g9
g2
Ntp85
Rp86
(dp87
g13
I01
sg14
F1.1647173500506969
sg15
g84
sbs(I8215
I6417
tp88
g0
(g9
g2
Ntp89
Rp90
(dp91
g13
I01
sg14
F2.1564119910766104
sg15
g88
sbs(I6475
I18824
tp92
g0
(g9
g2
Ntp93
Rp94
(dp95
g13
I01
sg14
F-0.22565847053278873
sg15
g92
sbs(I20802
I13499
tp96
g0
(g9
g2
Ntp97
Rp98
(dp99
g13
I01
sg14
F0.257394441394799
sg15
g96
sbs(I21134
I5465
tp100
g0
(g9
g2
Ntp101
Rp102
(dp103
g13
I00
sg14
F0.8427265878036561
sg15
g100
sbs(I5059
I7937
tp104
g0
(g9
g2
Ntp105
Rp106
(dp107
g13
I00
sg14
F-0.39148873120472927
sg15
g104
sbs(I9811
I19739
tp108
g0
(g9
g2
Ntp109
Rp110
(dp111
g13
I01
sg14
F-0.3410013657108396
sg15
g108
sbs(I13499
I3277
tp112
g0
(g9
g2
Ntp113
Rp114
(dp115
g13
I00
sg14
F0.5162143830768264
sg15
g112
sbs(I12584
I20190
tp116
g0
(g9
g2
Ntp117
Rp118
(dp119
g13
I01
sg14
F0.789952313309709
sg15
g116
sbs(I20190
I3985
tp120
g0
(g9
g2
Ntp121
Rp122
(dp123
g13
I01
sg14
F-2.944224141171884
sg15
g120
sbs(I8535
I18773
tp124
g0
(g9
g2
Ntp125
Rp126
(dp127
g13
I00
sg14
F0.2530993622537491
sg15
g124
sbs(I14745
I13745
tp128
g0
(g9
g2
Ntp129
Rp130
(dp131
g13
I01
sg14
F0.4598659703174396
sg15
g128
sbs(I14155
I9525
tp132
g0
(g9
g2
Ntp133
Rp134
(dp135
g13
I01
sg14
F-1.0163622923269198
sg15
g132
sbs(I17681
I10074
tp136
g0
(g9
g2
Ntp137
Rp138
(dp139
g13
I00
sg14
F0.9736866434696443
sg15
g136
sbs(I5503
I3
tp140
g0
(g9
g2
Ntp141
Rp142
(dp143
g13
I00
sg14
F-1.730245465054749
sg15
g140
sbs(I6475
I19443
tp144
g0
(g9
g2
Ntp145
Rp146
(dp147
g13
I01
sg14
F2.349959537090557
sg15
g144
sbs(I12584
I21167
tp148
g0
(g9
g2
Ntp149
Rp150
(dp151
g13
I01
sg14
F0.335180209259193
sg15
g148
sbs(I-3
I13745
tp152
g0
(g9
g2
Ntp153
Rp154
(dp155
g13
I01
sg14
F-0.4437929966171104
sg15
g152
sbs(I14793
I3
tp156
g0
(g9
g2
Ntp157
Rp158
(dp159
g13
I00
sg14
F-0.5331110519249398
sg15
g156
sbs(I7784
I9525
tp160
g0
(g9
g2
Ntp161
Rp162
(dp163
g13
I00
sg14
F-0.23403655400375784
sg15
g160
sbs(I10428
I13471
tp164
g0
(g9
g2
Ntp165
Rp166
(dp167
g13
I00
sg14
F2.5857786849497337
sg15
g164
sbs(I25859
I18773
tp168
g0
(g9
g2
Ntp169
Rp170
(dp171
g13
I01
sg14
F0.7300565261977237
sg15
g168
sbs(I21640
I11550
tp172
g0
(g9
g2
Ntp173
Rp174
(dp175
g13
I01
sg14
F1.2367125450794019
sg15
g172
sbs(I-3
I4547
tp176
g0
(g9
g2
Ntp177
Rp178
(dp179
g13
I01
sg14
F-4.260116552827922
sg15
g176
sbs(I19070
I21167
tp180
g0
(g9
g2
Ntp181
Rp182
(dp183
g13
I00
sg14
F0.70842139537591
sg15
g180
sbs(I29312
I4547
tp184
g0
(g9
g2
Ntp185
Rp186
(dp187
g13
I01
sg14
F-5.965508175098667
sg15
g184
sbs(I7493
I8215
tp188
g0
(g9
g2
Ntp189
Rp190
(dp191
g13
I00
sg14
F-0.1149605855455772
sg15
g188
sbs(I4996
I13921
tp192
g0
(g9
g2
Ntp193
Rp194
(dp195
g13
I00
sg14
F2.686924930579369
sg15
g192
sbs(I7158
I19443
tp196
g0
(g9
g2
Ntp197
Rp198
(dp199
g13
I00
sg14
F-0.8184130403141683
sg15
g196
sbs(I17542
I4850
tp200
g0
(g9
g2
Ntp201
Rp202
(dp203
g13
I01
sg14
F0.09190027454910499
sg15
g200
sbs(I7493
I19658
tp204
g0
(g9
g2
Ntp205
Rp206
(dp207
g13
I00
sg14
F0.6154782353437641
sg15
g204
sbs(I20921
I29330
tp208
g0
(g9
g2
Ntp209
Rp210
(dp211
g13
I01
sg14
F0.41959586502150986
sg15
g208
sbs(I-3
I29312
tp212
g0
(g9
g2
Ntp213
Rp214
(dp215
g13
I00
sg14
F0.21892143576684386
sg15
g212
sbs(I5503
I14956
tp216
g0
(g9
g2
Ntp217
Rp218
(dp219
g13
I01
sg14
F-0.2973386085084272
sg15
g216
sbs(I14873
I13499
tp220
g0
(g9
g2
Ntp221
Rp222
(dp223
g13
I00
sg14
F-0.6582456757858376
sg15
g220
sbs(I9811
I3
tp224
g0
(g9
g2
Ntp225
Rp226
(dp227
g13
I01
sg14
F1.6241348376382518
sg15
g224
sbs(I21039
I16654
tp228
g0
(g9
g2
Ntp229
Rp230
(dp231
g13
I01
sg14
F0.9926923253754143
sg15
g228
sbs(I8832
I2
tp232
g0
(g9
g2
Ntp233
Rp234
(dp235
g13
I00
sg14
F1.0825168463158765
sg15
g232
sbs(I-1
I12429
tp236
g0
(g9
g2
Ntp237
Rp238
(dp239
g13
I01
sg14
F0.26932985539578436
sg15
g236
sbs(I23348
I10074
tp240
g0
(g9
g2
Ntp241
Rp242
(dp243
g13
I00
sg14
F-0.8235557432179862
sg15
g240
sbs(I7158
I13145
tp244
g0
(g9
g2
Ntp245
Rp246
(dp247
g13
I01
sg14
F-1.2484798401890933
sg15
g244
sbs(I21588
I5465
tp248
g0
(g9
g2
Ntp249
Rp250
(dp251
g13
I01
sg14
F0.6993438026408381
sg15
g248
sbs(I11144
I13921
tp252
g0
(g9
g2
Ntp253
Rp254
(dp255
g13
I00
sg14
F1.0655873021395799
sg15
g252
sbs(I20831
I9811
tp256
g0
(g9
g2
Ntp257
Rp258
(dp259
g13
I01
sg14
F1.5885855306638117
sg15
g256
sbs(I-3
I7380
tp260
g0
(g9
g2
Ntp261
Rp262
(dp263
g13
I01
sg14
F2.649041189544266
sg15
g260
sbs(I19927
I4996
tp264
g0
(g9
g2
Ntp265
Rp266
(dp267
g13
I01
sg14
F-0.7496686517277716
sg15
g264
sbs(I4850
I16654
tp268
g0
(g9
g2
Ntp269
Rp270
(dp271
g13
I00
sg14
F-0.0538546410243539
sg15
g268
sbs(I7937
I4547
tp272
g0
(g9
g2
Ntp273
Rp274
(dp275
g13
I01
sg14
F1.3189995510306516
sg15
g272
sbs(I25646
I21167
tp276
g0
(g9
g2
Ntp277
Rp278
(dp279
g13
I01
sg14
F1.8148374329751373
sg15
g276
sbs(I21695
I5465
tp280
g0
(g9
g2
Ntp281
Rp282
(dp283
g13
I01
sg14
F0.03855642969426082
sg15
g280
sbs(I14956
I3
tp284
g0
(g9
g2
Ntp285
Rp286
(dp287
g13
I00
sg14
F-3.140193481440743
sg15
g284
sbs(I9648
I14155
tp288
g0
(g9
g2
Ntp289
Rp290
(dp291
g13
I00
sg14
F-0.9277223647237204
sg15
g288
sbs(I3985
I17542
tp292
g0
(g9
g2
Ntp293
Rp294
(dp295
g13
I00
sg14
F-0.6360542543019811
sg15
g292
sbs(I-3
I12584
tp296
g0
(g9
g2
Ntp297
Rp298
(dp299
g13
I01
sg14
F-0.9042641444916987
sg15
g296
sbs(I8215
I3985
tp300
g0
(g9
g2
Ntp301
Rp302
(dp303
g13
I01
sg14
F-1.328523391183383
sg15
g300
sbs(I29330
I20046
tp304
g0
(g9
g2
Ntp305
Rp306
(dp307
g13
I00
sg14
F0.09336951406568232
sg15
g304
sbs(I12429
I29397
tp308
g0
(g9
g2
Ntp309
Rp310
(dp311
g13
I01
sg14
F-0.19722727593116698
sg15
g308
sbs(I16654
I30849
tp312
g0
(g9
g2
Ntp313
Rp314
(dp315
g13
I01
sg14
F-2.1756462043972773
sg15
g312
sbs(I18288
I0
tp316
g0
(g9
g2
Ntp317
Rp318
(dp319
g13
I01
sg14
F-1.373732621391074
sg15
g316
sbs(I9811
I4547
tp320
g0
(g9
g2
Ntp321
Rp322
(dp323
g13
I01
sg14
F-0.6738885828901973
sg15
g320
sbs(I10428
I25760
tp324
g0
(g9
g2
Ntp325
Rp326
(dp327
g13
I01
sg14
F-2.2780976316494677
sg15
g324
sbs(I6417
I13499
tp328
g0
(g9
g2
Ntp329
Rp330
(dp331
g13
I01
sg14
F0.38156853986973793
sg15
g328
sbs(I24351
I13921
tp332
g0
(g9
g2
Ntp333
Rp334
(dp335
g13
I00
sg14
F-1.2609019540335868
sg15
g332
sbs(I-3
I17542
tp336
g0
(g9
g2
Ntp337
Rp338
(dp339
g13
I01
sg14
F2.479128121695356
sg15
g336
sbs(I13471
I29029
tp340
g0
(g9
g2
Ntp341
Rp342
(dp343
g13
I01
sg14
F-1.0349115002403462
sg15
g340
sbs(I12429
I2
tp344
g0
(g9
g2
Ntp345
Rp346
(dp347
g13
I01
sg14
F1.9837787481118527
sg15
g344
sbs(I21389
I11299
tp348
g0
(g9
g2
Ntp349
Rp350
(dp351
g13
I00
sg14
F-0.9530141675187962
sg15
g348
sbs(I7013
I12849
tp352
g0
(g9
g2
Ntp353
Rp354
(dp355
g13
I00
sg14
F-0.7902957978168053
sg15
g352
sbs(I11250
I7493
tp356
g0
(g9
g2
Ntp357
Rp358
(dp359
g13
I00
sg14
F-0.3715749383436514
sg15
g356
sbs(I13304
I14873
tp360
g0
(g9
g2
Ntp361
Rp362
(dp363
g13
I01
sg14
F-0.3113387407916538
sg15
g360
sbs(I8535
I25859
tp364
g0
(g9
g2
Ntp365
Rp366
(dp367
g13
I01
sg14
F0.012896124300788028
sg15
g364
sbs(I6475
I21134
tp368
g0
(g9
g2
Ntp369
Rp370
(dp371
g13
I00
sg14
F2.8104269605883028
sg15
g368
sbs(I29330
I5503
tp372
g0
(g9
g2
Ntp373
Rp374
(dp375
g13
I01
sg14
F0.5121395753765311
sg15
g372
sbs(I10771
I21418
tp376
g0
(g9
g2
Ntp377
Rp378
(dp379
g13
I01
sg14
F1.3664920633920468
sg15
g376
sbs(I12429
I5503
tp380
g0
(g9
g2
Ntp381
Rp382
(dp383
g13
I00
sg14
F2.7246861784648244
sg15
g380
sbs(I12849
I7182
tp384
g0
(g9
g2
Ntp385
Rp386
(dp387
g13
I00
sg14
F-0.5526086717817109
sg15
g384
sbs(I12532
I30830
tp388
g0
(g9
g2
Ntp389
Rp390
(dp391
g13
I01
sg14
F-0.11683196389267649
sg15
g388
sbs(I5503
I2730
tp392
g0
(g9
g2
Ntp393
Rp394
(dp395
g13
I01
sg14
F-0.09437055987896144
sg15
g392
sbs(I20831
I7937
tp396
g0
(g9
g2
Ntp397
Rp398
(dp399
g13
I01
sg14
F2.3948137051163747
sg15
g396
sbs(I11550
I4187
tp400
g0
(g9
g2
Ntp401
Rp402
(dp403
g13
I00
sg14
F-2.0338864286478002
sg15
g400
sbs(I14793
I0
tp404
g0
(g9
g2
Ntp405
Rp406
(dp407
g13
I00
sg14
F-2.865023470391658
sg15
g404
sbs(I-3
I9811
tp408
g0
(g9
g2
Ntp409
Rp410
(dp411
g13
I00
sg14
F-0.3982440286140132
sg15
g408
sbs(I20190
I17460
tp412
g0
(g9
g2
Ntp413
Rp414
(dp415
g13
I01
sg14
F-0.4088932824158909
sg15
g412
sbs(I1
I19739
tp416
g0
(g9
g2
Ntp417
Rp418
(dp419
g13
I01
sg14
F0.23261932712208372
sg15
g416
sbs(I8832
I12429
tp420
g0
(g9
g2
Ntp421
Rp422
(dp423
g13
I00
sg14
F1.0059233266657361
sg15
g420
sbs(I-3
I0
tp424
g0
(g9
g2
Ntp425
Rp426
(dp427
g13
I00
sg14
F-0.5079049303344542
sg15
g424
sbs(I9525
I4996
tp428
g0
(g9
g2
Ntp429
Rp430
(dp431
g13
I00
sg14
F-2.2724776218750486
sg15
g428
sbs(I14793
I29397
tp432
g0
(g9
g2
Ntp433
Rp434
(dp435
g13
I01
sg14
F-1.3325399252170511
sg15
g432
sbs(I21418
I7158
tp436
g0
(g9
g2
Ntp437
Rp438
(dp439
g13
I01
sg14
F-0.5259116570537553
sg15
g436
sbs(I10428
I9811
tp440
g0
(g9
g2
Ntp441
Rp442
(dp443
g13
I01
sg14
F1.1025625989190675
sg15
g440
sbs(I12429
I7371
tp444
g0
(g9
g2
Ntp445
Rp446
(dp447
g13
I01
sg14
F0.4434512614049644
sg15
g444
sbs(I12532
I8535
tp448
g0
(g9
g2
Ntp449
Rp450
(dp451
g13
I00
sg14
F0.9861583662401056
sg15
g448
sbs(I11250
I14809
tp452
g0
(g9
g2
Ntp453
Rp454
(dp455
g13
I00
sg14
F-1.8870520570448153
sg15
g452
sbs(I9939
I5503
tp456
g0
(g9
g2
Ntp457
Rp458
(dp459
g13
I00
sg14
F5.6498938744624665
sg15
g456
sbs(I18934
I13745
tp460
g0
(g9
g2
Ntp461
Rp462
(dp463
g13
I00
sg14
F-0.9648311177174504
sg15
g460
sbs(I-2
I20802
tp464
g0
(g9
g2
Ntp465
Rp466
(dp467
g13
I00
sg14
F-0.14928952354159317
sg15
g464
sbs(I11299
I7380
tp468
g0
(g9
g2
Ntp469
Rp470
(dp471
g13
I01
sg14
F-0.28258088923059255
sg15
g468
sbs(I5059
I6184
tp472
g0
(g9
g2
Ntp473
Rp474
(dp475
g13
I00
sg14
F1.439369144479277
sg15
g472
sbs(I19423
I7158
tp476
g0
(g9
g2
Ntp477
Rp478
(dp479
g13
I01
sg14
F-1.4334627942551257
sg15
g476
sbs(I7371
I4641
tp480
g0
(g9
g2
Ntp481
Rp482
(dp483
g13
I01
sg14
F-2.5780104986880747
sg15
g480
sbs(I20864
I7493
tp484
g0
(g9
g2
Ntp485
Rp486
(dp487
g13
I00
sg14
F0.10308071371415917
sg15
g484
sbs(I21525
I18824
tp488
g0
(g9
g2
Ntp489
Rp490
(dp491
g13
I01
sg14
F-2.530153849327473
sg15
g488
sbs(I4850
I4547
tp492
g0
(g9
g2
Ntp493
Rp494
(dp495
g13
I00
sg14
F1.7322241681984138
sg15
g492
sbs(I12584
I17460
tp496
g0
(g9
g2
Ntp497
Rp498
(dp499
g13
I01
sg14
F-0.6146488253072904
sg15
g496
sbs(I26324
I21167
tp500
g0
(g9
g2
Ntp501
Rp502
(dp503
g13
I01
sg14
F0.7650984670880485
sg15
g500
sbs(I14873
I8215
tp504
g0
(g9
g2
Ntp505
Rp506
(dp507
g13
I00
sg14
F2.6704249092613406
sg15
g504
sbs(I20802
I20046
tp508
g0
(g9
g2
Ntp509
Rp510
(dp511
g13
I01
sg14
F0.9199700085788518
sg15
g508
sbs(I13499
I9811
tp512
g0
(g9
g2
Ntp513
Rp514
(dp515
g13
I00
sg14
F0.2852442042165121
sg15
g512
sbs(I7493
I13304
tp516
g0
(g9
g2
Ntp517
Rp518
(dp519
g13
I01
sg14
F-0.437714461371176
sg15
g516
sbs(I29029
I9811
tp520
g0
(g9
g2
Ntp521
Rp522
(dp523
g13
I00
sg14
F-1.265734252636387
sg15
g520
sbs(I19039
I4996
tp524
g0
(g9
g2
Ntp525
Rp526
(dp527
g13
I01
sg14
F-0.13509378764371943
sg15
g524
sbs(I25760
I23403
tp528
g0
(g9
g2
Ntp529
Rp530
(dp531
g13
I01
sg14
F0.2944508349624779
sg15
g528
sbs(I7937
I7380
tp532
g0
(g9
g2
Ntp533
Rp534
(dp535
g13
I01
sg14
F1.734257033253365
sg15
g532
sbs(I21525
I21729
tp536
g0
(g9
g2
Ntp537
Rp538
(dp539
g13
I01
sg14
F1.2105846317898181
sg15
g536
sbs(I16654
I4547
tp540
g0
(g9
g2
Ntp541
Rp542
(dp543
g13
I00
sg14
F-3.1617318392283935
sg15
g540
sbs(I19564
I14793
tp544
g0
(g9
g2
Ntp545
Rp546
(dp547
g13
I00
sg14
F-1.7489574077585988
sg15
g544
sbs(I1
I24162
tp548
g0
(g9
g2
Ntp549
Rp550
(dp551
g13
I01
sg14
F-0.8540833255075783
sg15
g548
sbs(I30849
I4547
tp552
g0
(g9
g2
Ntp553
Rp554
(dp555
g13
I01
sg14
F-1.791611716768797
sg15
g552
sbs(I-4
I6417
tp556
g0
(g9
g2
Ntp557
Rp558
(dp559
g13
I01
sg14
F-1.6925556564460242
sg15
g556
sbs(I5465
I7784
tp560
g0
(g9
g2
Ntp561
Rp562
(dp563
g13
I00
sg14
F-1.075937904118809
sg15
g560
sbs(I6475
I5503
tp564
g0
(g9
g2
Ntp565
Rp566
(dp567
g13
I00
sg14
F2.865320988601774
sg15
g564
sbs(I22146
I2
tp568
g0
(g9
g2
Ntp569
Rp570
(dp571
g13
I01
sg14
F-1.4425718850281763
sg15
g568
sbs(I7158
I2
tp572
g0
(g9
g2
Ntp573
Rp574
(dp575
g13
I01
sg14
F-1.370878081121701
sg15
g572
sbs(I7371
I19389
tp576
g0
(g9
g2
Ntp577
Rp578
(dp579
g13
I01
sg14
F-1.9313483517336159
sg15
g576
sbs(I7937
I6184
tp580
g0
(g9
g2
Ntp581
Rp582
(dp583
g13
I01
sg14
F1.0175210264769465
sg15
g580
sbs(I10616
I3985
tp584
g0
(g9
g2
Ntp585
Rp586
(dp587
g13
I01
sg14
F2.2979507447083716
sg15
g584
sbs(I5059
I19709
tp588
g0
(g9
g2
Ntp589
Rp590
(dp591
g13
I01
sg14
F0.41114306452921673
sg15
g588
sbs(I0
I11550
tp592
g0
(g9
g2
Ntp593
Rp594
(dp595
g13
I00
sg14
F-4.733035172832994
sg15
g592
sbs(I0
I21640
tp596
g0
(g9
g2
Ntp597
Rp598
(dp599
g13
I01
sg14
F0.06699638188342108
sg15
g596
sbs(I8535
I22023
tp600
g0
(g9
g2
Ntp601
Rp602
(dp603
g13
I00
sg14
F0.46125881342232933
sg15
g600
sbs(I19564
I0
tp604
g0
(g9
g2
Ntp605
Rp606
(dp607
g13
I00
sg14
F-2.599858419175386
sg15
g604
sbs(I4850
I0
tp608
g0
(g9
g2
Ntp609
Rp610
(dp611
g13
I01
sg14
F-0.17423236590645386
sg15
g608
sbs(I12584
I11299
tp612
g0
(g9
g2
Ntp613
Rp614
(dp615
g13
I01
sg14
F2.346297287581745
sg15
g612
sbs(I-3
I4850
tp616
g0
(g9
g2
Ntp617
Rp618
(dp619
g13
I00
sg14
F1.7556448045117754
sg15
g616
sbs(I29255
I19927
tp620
g0
(g9
g2
Ntp621
Rp622
(dp623
g13
I01
sg14
F-0.012823984007776928
sg15
g620
sbs(I4850
I18288
tp624
g0
(g9
g2
Ntp625
Rp626
(dp627
g13
I00
sg14
F-1.20722140309646
sg15
g624
sbs(I7158
I4850
tp628
g0
(g9
g2
Ntp629
Rp630
(dp631
g13
I00
sg14
F-1.6983109070336537
sg15
g628
sbs(I7158
I7784
tp632
g0
(g9
g2
Ntp633
Rp634
(dp635
g13
I01
sg14
F-3.4750186599535753
sg15
g632
sbs(I14107
I7493
tp636
g0
(g9
g2
Ntp637
Rp638
(dp639
g13
I00
sg14
F-1.607747289786448
sg15
g636
sbs(I14155
I20507
tp640
g0
(g9
g2
Ntp641
Rp642
(dp643
g13
I01
sg14
F-1.4403457987071033
sg15
g640
sbs(I9525
I14745
tp644
g0
(g9
g2
Ntp645
Rp646
(dp647
g13
I00
sg14
F2.3289988007121973
sg15
g644
sbs(I7371
I2730
tp648
g0
(g9
g2
Ntp649
Rp650
(dp651
g13
I01
sg14
F0.35028900642897426
sg15
g648
sbs(I20507
I5465
tp652
g0
(g9
g2
Ntp653
Rp654
(dp655
g13
I00
sg14
F0.4023288562994044
sg15
g652
sbs(I10224
I7493
tp656
g0
(g9
g2
Ntp657
Rp658
(dp659
g13
I00
sg14
F1.2371773354013593
sg15
g656
sbs(I20921
I5503
tp660
g0
(g9
g2
Ntp661
Rp662
(dp663
g13
I00
sg14
F2.6333458183573573
sg15
g660
sbs(I21167
I11299
tp664
g0
(g9
g2
Ntp665
Rp666
(dp667
g13
I01
sg14
F-0.4344461171840919
sg15
g664
sbs(I9811
I10074
tp668
g0
(g9
g2
Ntp669
Rp670
(dp671
g13
I01
sg14
F-1.5185936579332766
sg15
g668
sbs(I11144
I0
tp672
g0
(g9
g2
Ntp673
Rp674
(dp675
g13
I01
sg14
F-0.11795523625629704
sg15
g672
sbs(I-3
I23403
tp676
g0
(g9
g2
Ntp677
Rp678
(dp679
g13
I00
sg14
F-0.06867450500515004
sg15
g676
sbs(I23403
I7380
tp680
g0
(g9
g2
Ntp681
Rp682
(dp683
g13
I01
sg14
F0.2626316935544408
sg15
g680
sbs(I5059
I19389
tp684
g0
(g9
g2
Ntp685
Rp686
(dp687
g13
I01
sg14
F-2.5340650061369776
sg15
g684
sbs(I-3
I7493
tp688
g0
(g9
g2
Ntp689
Rp690
(dp691
g13
I00
sg14
F1.32865293790246
sg15
g688
sbs(I10428
I11550
tp692
g0
(g9
g2
Ntp693
Rp694
(dp695
g13
I01
sg14
F0.27538139699595915
sg15
g692
sbs(I23281
I29255
tp696
g0
(g9
g2
Ntp697
Rp698
(dp699
g13
I01
sg14
F1.7246001464915834
sg15
g696
sbs(I19070
I26324
tp700
g0
(g9
g2
Ntp701
Rp702
(dp703
g13
I01
sg14
F-0.025543343841602284
sg15
g700
sbs(I19389
I2730
tp704
g0
(g9
g2
Ntp705
Rp706
(dp707
g13
I01
sg14
F-1.3729359408800967
sg15
g704
sbs(I-4
I3
tp708
g0
(g9
g2
Ntp709
Rp710
(dp711
g13
I00
sg14
F1.2914856355188793
sg15
g708
sbs(I29397
I3
tp712
g0
(g9
g2
Ntp713
Rp714
(dp715
g13
I01
sg14
F1.5745386800727146
sg15
g712
sbs(I17542
I24162
tp716
g0
(g9
g2
Ntp717
Rp718
(dp719
g13
I01
sg14
F1.7249136820435056
sg15
g716
sbs(I18773
I7493
tp720
g0
(g9
g2
Ntp721
Rp722
(dp723
g13
I01
sg14
F-1.0416208267551128
sg15
g720
sbs(I4996
I4547
tp724
g0
(g9
g2
Ntp725
Rp726
(dp727
g13
I01
sg14
F4.173330579454757
sg15
g724
sbs(I13471
I9811
tp728
g0
(g9
g2
Ntp729
Rp730
(dp731
g13
I01
sg14
F0.44998134435965886
sg15
g728
sbs(I7937
I19709
tp732
g0
(g9
g2
Ntp733
Rp734
(dp735
g13
I01
sg14
F1.850974595521516
sg15
g732
sbs(I7937
I21664
tp736
g0
(g9
g2
Ntp737
Rp738
(dp739
g13
I00
sg14
F1.141919178075364
sg15
g736
sbs(I30830
I8535
tp740
g0
(g9
g2
Ntp741
Rp742
(dp743
g13
I01
sg14
F-1.7071010449769732
sg15
g740
sbs(I19739
I10074
tp744
g0
(g9
g2
Ntp745
Rp746
(dp747
g13
I00
sg14
F-0.053700501031019976
sg15
g744
sbs(I7158
I20802
tp748
g0
(g9
g2
Ntp749
Rp750
(dp751
g13
I01
sg14
F-1.8753529605184902
sg15
g748
sbs(I7493
I7371
tp752
g0
(g9
g2
Ntp753
Rp754
(dp755
g13
I01
sg14
F0.9640045062271898
sg15
g752
sbs(I12429
I20921
tp756
g0
(g9
g2
Ntp757
Rp758
(dp759
g13
I01
sg14
F0.23645171171813817
sg15
g756
sbs(I4547
I2730
tp760
g0
(g9
g2
Ntp761
Rp762
(dp763
g13
I01
sg14
F0.17892201621718573
sg15
g760
sbs(I10224
I11144
tp764
g0
(g9
g2
Ntp765
Rp766
(dp767
g13
I01
sg14
F-0.3572387916508867
sg15
g764
sbs(I13745
I5982
tp768
g0
(g9
g2
Ntp769
Rp770
(dp771
g13
I01
sg14
F0.2785748792790979
sg15
g768
sbs(I10428
I20831
tp772
g0
(g9
g2
Ntp773
Rp774
(dp775
g13
I01
sg14
F2.6980834591516603
sg15
g772
sbs(I17460
I11550
tp776
g0
(g9
g2
Ntp777
Rp778
(dp779
g13
I01
sg14
F0.6668261614460417
sg15
g776
sbs(I-2
I6417
tp780
g0
(g9
g2
Ntp781
Rp782
(dp783
g13
I00
sg14
F-2.163720072326956
sg15
g780
sbs(I8697
I7013
tp784
g0
(g9
g2
Ntp785
Rp786
(dp787
g13
I00
sg14
F0.6007499348900412
sg15
g784
sbs(I25760
I20831
tp788
g0
(g9
g2
Ntp789
Rp790
(dp791
g13
I01
sg14
F1.050232744792961
sg15
g788
sbs(I17460
I4996
tp792
g0
(g9
g2
Ntp793
Rp794
(dp795
g13
I00
sg14
F-1.419317645395164
sg15
g792
sbs(I7013
I19805
tp796
g0
(g9
g2
Ntp797
Rp798
(dp799
g13
I01
sg14
F2.0063853068943787
sg15
g796
sbs(I7493
I11144
tp800
g0
(g9
g2
Ntp801
Rp802
(dp803
g13
I00
sg14
F-0.18627340254900301
sg15
g800
sbs(I19805
I12849
tp804
g0
(g9
g2
Ntp805
Rp806
(dp807
g13
I00
sg14
F-0.3461202023479965
sg15
g804
sbs(I8535
I7493
tp808
g0
(g9
g2
Ntp809
Rp810
(dp811
g13
I00
sg14
F-0.6229388186554294
sg15
g808
sbs(I20507
I21588
tp812
g0
(g9
g2
Ntp813
Rp814
(dp815
g13
I01
sg14
F0.5559198276215924
sg15
g812
sbs(I24162
I4850
tp816
g0
(g9
g2
Ntp817
Rp818
(dp819
g13
I01
sg14
F-2.870959436715934
sg15
g816
sbs(I-3
I5982
tp820
g0
(g9
g2
Ntp821
Rp822
(dp823
g13
I00
sg14
F-0.39189817888795914
sg15
g820
sbs(I4641
I19927
tp824
g0
(g9
g2
Ntp825
Rp826
(dp827
g13
I00
sg14
F2.997204100805954
sg15
g824
sbs(I-3
I2730
tp828
g0
(g9
g2
Ntp829
Rp830
(dp831
g13
I01
sg14
F-0.9850979437576153
sg15
g828
sbs(I22023
I11250
tp832
g0
(g9
g2
Ntp833
Rp834
(dp835
g13
I01
sg14
F0.2663346173199836
sg15
g832
sbs(I-3
I6475
tp836
g0
(g9
g2
Ntp837
Rp838
(dp839
g13
I00
sg14
F-0.8857229023588513
sg15
g836
sbs(I-3
I18934
tp840
g0
(g9
g2
Ntp841
Rp842
(dp843
g13
I01
sg14
F-2.383912965727842
sg15
g840
sbs(I6184
I11550
tp844
g0
(g9
g2
Ntp845
Rp846
(dp847
g13
I01
sg14
F3.3354599398839757
sg15
g844
sbs(I0
I7371
tp848
g0
(g9
g2
Ntp849
Rp850
(dp851
g13
I01
sg14
F0.8245110013616894
sg15
g848
sbs(I23281
I19927
tp852
g0
(g9
g2
Ntp853
Rp854
(dp855
g13
I01
sg14
F3.5108510956355485
sg15
g852
sbs(I6475
I5465
tp856
g0
(g9
g2
Ntp857
Rp858
(dp859
g13
I01
sg14
F-1.1306648039196063
sg15
g856
sbssS'nodes'
p860
(dp861
I0
g0
(cneat.genes
DefaultNodeGene
p862
g2
Ntp863
Rp864
(dp865
S'activation'
p866
S'sigmoid'
p867
sS'bias'
p868
F3.9296954477072883
sS'response'
p869
F1.0
sg15
I0
sS'aggregation'
p870
S'sum'
p871
sbsI1
g0
(g862
g2
Ntp872
Rp873
(dp874
g866
g867
sg868
F-0.4541160956570878
sg869
F1.0
sg15
I1
sg870
g871
sbsI2
g0
(g862
g2
Ntp875
Rp876
(dp877
g866
g867
sg868
F0.5862887325702723
sg869
F1.0
sg15
I2
sg870
g871
sbsI3
g0
(g862
g2
Ntp878
Rp879
(dp880
g866
g867
sg868
F-0.6764314499917001
sg869
F1.0
sg15
I3
sg870
g871
sbsI22023
g0
(g862
g2
Ntp881
Rp882
(dp883
g866
g867
sg868
F-0.27526291234374
sg869
F1.0
sg15
I22023
sg870
g871
sbsI7182
g0
(g862
g2
Ntp884
Rp885
(dp886
g866
g867
sg868
F2.0918489320954086
sg869
F1.0
sg15
I7182
sg870
g871
sbsI10771
g0
(g862
g2
Ntp887
Rp888
(dp889
g866
g867
sg868
F0.35773026241273614
sg869
F1.0
sg15
I10771
sg870
g871
sbsI21525
g0
(g862
g2
Ntp890
Rp891
(dp892
g866
g867
sg868
F0.6070457548430341
sg869
F1.0
sg15
I21525
sg870
g871
sbsI18966
g0
(g862
g2
Ntp893
Rp894
(dp895
g866
g867
sg868
F0.26157577239650964
sg869
F1.0
sg15
I18966
sg870
g871
sbsI8215
g0
(g862
g2
Ntp896
Rp897
(dp898
g866
g867
sg868
F-0.7954341612787543
sg869
F1.0
sg15
I8215
sg870
g871
sbsI14873
g0
(g862
g2
Ntp899
Rp900
(dp901
g866
g867
sg868
F0.7255878949293117
sg869
F1.0
sg15
I14873
sg870
g871
sbsI20507
g0
(g862
g2
Ntp902
Rp903
(dp904
g866
g867
sg868
F-0.20969995539554206
sg869
F1.0
sg15
I20507
sg870
g871
sbsI4641
g0
(g862
g2
Ntp905
Rp906
(dp907
g866
g867
sg868
F0.07029454899778827
sg869
F1.0
sg15
I4641
sg870
g871
sbsI11299
g0
(g862
g2
Ntp908
Rp909
(dp910
g866
g867
sg868
F0.8561310967743839
sg869
F1.0
sg15
I11299
sg870
g871
sbsI6184
g0
(g862
g2
Ntp911
Rp912
(dp913
g866
g867
sg868
F1.5776741831616699
sg869
F1.0
sg15
I6184
sg870
g871
sbsI25646
g0
(g862
g2
Ntp914
Rp915
(dp916
g866
g867
sg868
F0.24691377904376127
sg869
F1.0
sg15
I25646
sg870
g871
sbsI21039
g0
(g862
g2
Ntp917
Rp918
(dp919
g866
g867
sg868
F-1.5585039276726014
sg869
F1.0
sg15
I21039
sg870
g871
sbsI12849
g0
(g862
g2
Ntp920
Rp921
(dp922
g866
g867
sg868
F0.644499865541913
sg869
F1.0
sg15
I12849
sg870
g871
sbsI17460
g0
(g862
g2
Ntp923
Rp924
(dp925
g866
g867
sg868
F3.5976882905085996
sg869
F1.0
sg15
I17460
sg870
g871
sbsI29255
g0
(g862
g2
Ntp926
Rp927
(dp928
g866
g867
sg868
F0.7850688373013839
sg869
F1.0
sg15
I29255
sg870
g871
sbsI20046
g0
(g862
g2
Ntp929
Rp930
(dp931
g866
g867
sg868
F-0.895938226206822
sg869
F1.0
sg15
I20046
sg870
g871
sbsI9811
g0
(g862
g2
Ntp932
Rp933
(dp934
g866
g867
sg868
F0.7422109913738566
sg869
F1.0
sg15
I9811
sg870
g871
sbsI21588
g0
(g862
g2
Ntp935
Rp936
(dp937
g866
g867
sg868
F-0.5836870977658146
sg869
F1.0
sg15
I21588
sg870
g871
sbsI4187
g0
(g862
g2
Ntp938
Rp939
(dp940
g866
g867
sg868
F0.7756292023999709
sg869
F1.0
sg15
I4187
sg870
g871
sbsI19039
g0
(g862
g2
Ntp941
Rp942
(dp943
g866
g867
sg868
F-0.06871930264714199
sg869
F1.0
sg15
I19039
sg870
g871
sbsI13921
g0
(g862
g2
Ntp944
Rp945
(dp946
g866
g867
sg868
F0.9804706279680337
sg869
F1.0
sg15
I13921
sg870
g871
sbsI24162
g0
(g862
g2
Ntp947
Rp948
(dp949
g866
g867
sg868
F2.993601948772974
sg869
F1.0
sg15
I24162
sg870
g871
sbsI17681
g0
(g862
g2
Ntp950
Rp951
(dp952
g866
g867
sg868
F0.5741138351997388
sg869
F1.0
sg15
I17681
sg870
g871
sbsI7784
g0
(g862
g2
Ntp953
Rp954
(dp955
g866
g867
sg868
F0.17446943181265495
sg869
F1.0
sg15
I7784
sg870
g871
sbsI19564
g0
(g862
g2
Ntp956
Rp957
(dp958
g866
g867
sg868
F0.7751295983117015
sg869
F1.0
sg15
I19564
sg870
g871
sbsI30830
g0
(g862
g2
Ntp959
Rp960
(dp961
g866
g867
sg868
F-0.5204113058439066
sg869
F1.0
sg15
I30830
sg870
g871
sbsI19070
g0
(g862
g2
Ntp962
Rp963
(dp964
g866
g867
sg868
F1.6311468884412763
sg869
F1.0
sg15
I19070
sg870
g871
sbsI8832
g0
(g862
g2
Ntp965
Rp966
(dp967
g866
g867
sg868
F1.2180431045242908
sg869
F1.0
sg15
I8832
sg870
g871
sbsI30849
g0
(g862
g2
Ntp968
Rp969
(dp970
g866
g867
sg868
F0.3707390797414874
sg869
F1.0
sg15
I30849
sg870
g871
sbsI22146
g0
(g862
g2
Ntp971
Rp972
(dp973
g866
g867
sg868
F-0.3994434016512421
sg869
F1.0
sg15
I22146
sg870
g871
sbsI17542
g0
(g862
g2
Ntp974
Rp975
(dp976
g866
g867
sg868
F-0.40674666759908584
sg869
F1.0
sg15
I17542
sg870
g871
sbsI21640
g0
(g862
g2
Ntp977
Rp978
(dp979
g866
g867
sg868
F-0.6208522844435471
sg869
F1.0
sg15
I21640
sg870
g871
sbsI14956
g0
(g862
g2
Ntp980
Rp981
(dp982
g866
g867
sg868
F-2.2832357544410584
sg869
F1.0
sg15
I14956
sg870
g871
sbsI12429
g0
(g862
g2
Ntp983
Rp984
(dp985
g866
g867
sg868
F2.806381508635993
sg869
F1.0
sg15
I12429
sg870
g871
sbsI21134
g0
(g862
g2
Ntp986
Rp987
(dp988
g866
g867
sg868
F0.7536836953027439
sg869
F1.0
sg15
I21134
sg870
g871
sbsI29330
g0
(g862
g2
Ntp989
Rp990
(dp991
g866
g867
sg868
F0.4787059966894592
sg869
F1.0
sg15
I29330
sg870
g871
sbsI4547
g0
(g862
g2
Ntp992
Rp993
(dp994
g866
g867
sg868
F-0.21625998112834988
sg869
F1.0
sg15
I4547
sg870
g871
sbsI29312
g0
(g862
g2
Ntp995
Rp996
(dp997
g866
g867
sg868
F1.2021899651444075
sg869
F1.0
sg15
I29312
sg870
g871
sbsI13471
g0
(g862
g2
Ntp998
Rp999
(dp1000
g866
g867
sg868
F1.7283933178218653
sg869
F1.0
sg15
I13471
sg870
g871
sbsI21664
g0
(g862
g2
Ntp1001
Rp1002
(dp1003
g866
g867
sg868
F3.6356957076320455
sg869
F1.0
sg15
I21664
sg870
g871
sbsI14107
g0
(g862
g2
Ntp1004
Rp1005
(dp1006
g866
g867
sg868
F1.8389361161895343
sg869
F1.0
sg15
I14107
sg870
g871
sbsI2730
g0
(g862
g2
Ntp1007
Rp1008
(dp1009
g866
g867
sg868
F1.3069333949527953
sg869
F1.0
sg15
I2730
sg870
g871
sbsI21167
g0
(g862
g2
Ntp1010
Rp1011
(dp1012
g866
g867
sg868
F-0.7534175087478171
sg869
F1.0
sg15
I21167
sg870
g871
sbsI13499
g0
(g862
g2
Ntp1013
Rp1014
(dp1015
g866
g867
sg868
F-2.5089238499956075
sg869
F1.0
sg15
I13499
sg870
g871
sbsI10428
g0
(g862
g2
Ntp1016
Rp1017
(dp1018
g866
g867
sg868
F-0.46614159257570775
sg869
F1.0
sg15
I10428
sg870
g871
sbsI21695
g0
(g862
g2
Ntp1019
Rp1020
(dp1021
g866
g867
sg868
F-1.4420096795625454
sg869
F1.0
sg15
I21695
sg870
g871
sbsI19658
g0
(g862
g2
Ntp1022
Rp1023
(dp1024
g866
g867
sg868
F-0.12890341955884316
sg869
F1.0
sg15
I19658
sg870
g871
sbsI7371
g0
(g862
g2
Ntp1025
Rp1026
(dp1027
g866
g867
sg868
F0.7357532196430737
sg869
F1.0
sg15
I7371
sg870
g871
sbsI3277
g0
(g862
g2
Ntp1028
Rp1029
(dp1030
g866
g867
sg868
F0.3481025587063564
sg869
F1.0
sg15
I3277
sg870
g871
sbsI9939
g0
(g862
g2
Ntp1031
Rp1032
(dp1033
g866
g867
sg868
F-1.6420193549878102
sg869
F1.0
sg15
I9939
sg870
g871
sbsI7380
g0
(g862
g2
Ntp1034
Rp1035
(dp1036
g866
g867
sg868
F0.4368003636312599
sg869
F1.0
sg15
I7380
sg870
g871
sbsI29397
g0
(g862
g2
Ntp1037
Rp1038
(dp1039
g866
g867
sg868
F-2.280998200650735
sg869
F1.0
sg15
I29397
sg870
g871
sbsI20190
g0
(g862
g2
Ntp1040
Rp1041
(dp1042
g866
g867
sg868
F-1.227262150128851
sg869
F1.0
sg15
I20190
sg870
g871
sbsI21729
g0
(g862
g2
Ntp1043
Rp1044
(dp1045
g866
g867
sg868
F-0.357760009802046
sg869
F1.0
sg15
I21729
sg870
g871
sbsI23281
g0
(g862
g2
Ntp1046
Rp1047
(dp1048
g866
g867
sg868
F1.3304590527689557
sg869
F1.0
sg15
I23281
sg870
g871
sbsI4850
g0
(g862
g2
Ntp1049
Rp1050
(dp1051
g866
g867
sg868
F-0.45814993633045814
sg869
F1.0
sg15
I4850
sg870
g871
sbsI12532
g0
(g862
g2
Ntp1052
Rp1053
(dp1054
g866
g867
sg868
F-0.6374185938791469
sg869
F1.0
sg15
I12532
sg870
g871
sbsI26324
g0
(g862
g2
Ntp1055
Rp1056
(dp1057
g866
g867
sg868
F-2.957549282649883
sg869
F1.0
sg15
I26324
sg870
g871
sbsI19709
g0
(g862
g2
Ntp1058
Rp1059
(dp1060
g866
g867
sg868
F-0.956513898827329
sg869
F1.0
sg15
I19709
sg870
g871
sbsI8959
g0
(g862
g2
Ntp1061
Rp1062
(dp1063
g866
g867
sg868
F-2.391058467919748
sg869
F1.0
sg15
I8959
sg870
g871
sbsI7937
g0
(g862
g2
Ntp1064
Rp1065
(dp1066
g866
g867
sg868
F0.4975873348783174
sg869
F1.0
sg15
I7937
sg870
g871
sbsI25859
g0
(g862
g2
Ntp1067
Rp1068
(dp1069
g866
g867
sg868
F-1.2913119032559652
sg869
F1.0
sg15
I25859
sg870
g871
sbsI16654
g0
(g862
g2
Ntp1070
Rp1071
(dp1072
g866
g867
sg868
F-0.7248324447753969
sg869
F1.0
sg15
I16654
sg870
g871
sbsI6417
g0
(g862
g2
Ntp1073
Rp1074
(dp1075
g866
g867
sg868
F0.2590831681584007
sg869
F1.0
sg15
I6417
sg870
g871
sbsI19739
g0
(g862
g2
Ntp1076
Rp1077
(dp1078
g866
g867
sg868
F1.0199759271388895
sg869
F1.0
sg15
I19739
sg870
g871
sbsI11550
g0
(g862
g2
Ntp1079
Rp1080
(dp1081
g866
g867
sg868
F2.4184419688198764
sg869
F1.0
sg15
I11550
sg870
g871
sbsI24351
g0
(g862
g2
Ntp1082
Rp1083
(dp1084
g866
g867
sg868
F0.9126992343164508
sg869
F1.0
sg15
I24351
sg870
g871
sbsI12584
g0
(g862
g2
Ntp1085
Rp1086
(dp1087
g866
g867
sg868
F-0.15753830768572502
sg869
F1.0
sg15
I12584
sg870
g871
sbsI18824
g0
(g862
g2
Ntp1088
Rp1089
(dp1090
g866
g867
sg868
F1.2073326519553045
sg869
F1.0
sg15
I18824
sg870
g871
sbsI23348
g0
(g862
g2
Ntp1091
Rp1092
(dp1093
g866
g867
sg868
F5.269364254136057
sg869
F1.0
sg15
I23348
sg870
g871
sbsI9525
g0
(g862
g2
Ntp1094
Rp1095
(dp1096
g866
g867
sg868
F-0.2633736238944145
sg869
F1.0
sg15
I9525
sg870
g871
sbsI13876
g0
(g862
g2
Ntp1097
Rp1098
(dp1099
g866
g867
sg868
F0.772314280203792
sg869
F1.0
sg15
I13876
sg870
g871
sbsI20802
g0
(g862
g2
Ntp1100
Rp1101
(dp1102
g866
g867
sg868
F5.113467912252684
sg869
F1.0
sg15
I20802
sg870
g871
sbsI7493
g0
(g862
g2
Ntp1103
Rp1104
(dp1105
g866
g867
sg868
F-3.741676487635613
sg869
F1.0
sg15
I7493
sg870
g871
sbsI14155
g0
(g862
g2
Ntp1106
Rp1107
(dp1108
g866
g867
sg868
F-0.12799414124935465
sg869
F1.0
sg15
I14155
sg870
g871
sbsI18773
g0
(g862
g2
Ntp1109
Rp1110
(dp1111
g866
g867
sg868
F1.1025717269749296
sg869
F1.0
sg15
I18773
sg870
g871
sbsI8535
g0
(g862
g2
Ntp1112
Rp1113
(dp1114
g866
g867
sg868
F-0.627842211640983
sg869
F1.0
sg15
I8535
sg870
g871
sbsI13145
g0
(g862
g2
Ntp1115
Rp1116
(dp1117
g866
g867
sg868
F-0.35349467507383664
sg869
F1.0
sg15
I13145
sg870
g871
sbsI10074
g0
(g862
g2
Ntp1118
Rp1119
(dp1120
g866
g867
sg868
F4.5368259840090985
sg869
F1.0
sg15
I10074
sg870
g871
sbsI19805
g0
(g862
g2
Ntp1121
Rp1122
(dp1123
g866
g867
sg868
F-0.15882098569684275
sg869
F1.0
sg15
I19805
sg870
g871
sbsI5982
g0
(g862
g2
Ntp1124
Rp1125
(dp1126
g866
g867
sg868
F1.7972338126511413
sg869
F1.0
sg15
I5982
sg870
g871
sbsI20831
g0
(g862
g2
Ntp1127
Rp1128
(dp1129
g866
g867
sg868
F-0.9323874100864173
sg869
F1.0
sg15
I20831
sg870
g871
sbsI7013
g0
(g862
g2
Ntp1130
Rp1131
(dp1132
g866
g867
sg868
F0.8236677510858794
sg869
F1.0
sg15
I7013
sg870
g871
sbsI29029
g0
(g862
g2
Ntp1133
Rp1134
(dp1135
g866
g867
sg868
F-0.6490448128958273
sg869
F1.0
sg15
I29029
sg870
g871
sbsI23403
g0
(g862
g2
Ntp1136
Rp1137
(dp1138
g866
g867
sg868
F-0.5048048027579108
sg869
F1.0
sg15
I23403
sg870
g871
sbsI18288
g0
(g862
g2
Ntp1139
Rp1140
(dp1141
g866
g867
sg868
F-0.4832441445808203
sg869
F1.0
sg15
I18288
sg870
g871
sbsI10101
g0
(g862
g2
Ntp1142
Rp1143
(dp1144
g866
g867
sg868
F0.9172182700212188
sg869
F1.0
sg15
I10101
sg870
g871
sbsI10616
g0
(g862
g2
Ntp1145
Rp1146
(dp1147
g866
g867
sg868
F0.3975843601893967
sg869
F1.0
sg15
I10616
sg870
g871
sbsI5503
g0
(g862
g2
Ntp1148
Rp1149
(dp1150
g866
g867
sg868
F-0.9634701917700905
sg869
F1.0
sg15
I5503
sg870
g871
sbsI20864
g0
(g862
g2
Ntp1151
Rp1152
(dp1153
g866
g867
sg868
F0.8504313379917808
sg869
F1.0
sg15
I20864
sg870
g871
sbsI4996
g0
(g862
g2
Ntp1154
Rp1155
(dp1156
g866
g867
sg868
F1.6614487041856756
sg869
F1.0
sg15
I4996
sg870
g871
sbsI11144
g0
(g862
g2
Ntp1157
Rp1158
(dp1159
g866
g867
sg868
F-0.7957069306567397
sg869
F1.0
sg15
I11144
sg870
g871
sbsI21389
g0
(g862
g2
Ntp1160
Rp1161
(dp1162
g866
g867
sg868
F-0.11605362933602237
sg869
F1.0
sg15
I21389
sg870
g871
sbsI3985
g0
(g862
g2
Ntp1163
Rp1164
(dp1165
g866
g867
sg868
F-1.2024318343507865
sg869
F1.0
sg15
I3985
sg870
g871
sbsI14745
g0
(g862
g2
Ntp1166
Rp1167
(dp1168
g866
g867
sg868
F-0.5912437807647234
sg869
F1.0
sg15
I14745
sg870
g871
sbsI6475
g0
(g862
g2
Ntp1169
Rp1170
(dp1171
g866
g867
sg868
F0.11871076596436278
sg869
F1.0
sg15
I6475
sg870
g871
sbsI5465
g0
(g862
g2
Ntp1172
Rp1173
(dp1174
g866
g867
sg868
F2.2018147950997906
sg869
F1.0
sg15
I5465
sg870
g871
sbsI21418
g0
(g862
g2
Ntp1175
Rp1176
(dp1177
g866
g867
sg868
F-1.4907499876492558
sg869
F1.0
sg15
I21418
sg870
g871
sbsI9648
g0
(g862
g2
Ntp1178
Rp1179
(dp1180
g866
g867
sg868
F0.7178866616774338
sg869
F1.0
sg15
I9648
sg870
g871
sbsI13745
g0
(g862
g2
Ntp1181
Rp1182
(dp1183
g866
g867
sg868
F0.6529978461076156
sg869
F1.0
sg15
I13745
sg870
g871
sbsI20921
g0
(g862
g2
Ntp1184
Rp1185
(dp1186
g866
g867
sg868
F-1.5517666512675126
sg869
F1.0
sg15
I20921
sg870
g871
sbsI19389
g0
(g862
g2
Ntp1187
Rp1188
(dp1189
g866
g867
sg868
F0.2514269448291816
sg869
F1.0
sg15
I19389
sg870
g871
sbsI25760
g0
(g862
g2
Ntp1190
Rp1191
(dp1192
g866
g867
sg868
F0.25086935895059154
sg869
F1.0
sg15
I25760
sg870
g871
sbsI5059
g0
(g862
g2
Ntp1193
Rp1194
(dp1195
g866
g867
sg868
F-2.5998616791787086
sg869
F1.0
sg15
I5059
sg870
g871
sbsI18934
g0
(g862
g2
Ntp1196
Rp1197
(dp1198
g866
g867
sg868
F-0.05020111595210719
sg869
F1.0
sg15
I18934
sg870
g871
sbsI14793
g0
(g862
g2
Ntp1199
Rp1200
(dp1201
g866
g867
sg868
F-1.1665148349590098
sg869
F1.0
sg15
I14793
sg870
g871
sbsI19927
g0
(g862
g2
Ntp1202
Rp1203
(dp1204
g866
g867
sg868
F1.3896120324229888
sg869
F1.0
sg15
I19927
sg870
g871
sbsI14809
g0
(g862
g2
Ntp1205
Rp1206
(dp1207
g866
g867
sg868
F-1.904682388339237
sg869
F1.0
sg15
I14809
sg870
g871
sbsI19423
g0
(g862
g2
Ntp1208
Rp1209
(dp1210
g866
g867
sg868
F1.4846513402707715
sg869
F1.0
sg15
I19423
sg870
g871
sbsI10224
g0
(g862
g2
Ntp1211
Rp1212
(dp1213
g866
g867
sg868
F1.104370418988324
sg869
F1.0
sg15
I10224
sg870
g871
sbsI11250
g0
(g862
g2
Ntp1214
Rp1215
(dp1216
g866
g867
sg868
F-1.24592624648109
sg869
F1.0
sg15
I11250
sg870
g871
sbsI19443
g0
(g862
g2
Ntp1217
Rp1218
(dp1219
g866
g867
sg868
F-0.04651741893946311
sg869
F1.0
sg15
I19443
sg870
g871
sbsI7158
g0
(g862
g2
Ntp1220
Rp1221
(dp1222
g866
g867
sg868
F-3.4032101128111583
sg869
F1.0
sg15
I7158
sg870
g871
sbsI13304
g0
(g862
g2
Ntp1223
Rp1224
(dp1225
g866
g867
sg868
F-3.309014103945386
sg869
F1.0
sg15
I13304
sg870
g871
sbsI8697
g0
(g862
g2
Ntp1226
Rp1227
(dp1228
g866
g867
sg868
F-0.7873257399619249
sg869
F1.0
sg15
I8697
sg870
g871
sbssg15
I93696
sS'fitness'
p1229
F-5.999999999999995
sb.