ccopy_reg
_reconstructor
p0
(cneat.genome
DefaultGenome
p1
c__builtin__
object
p2
Ntp3
Rp4
(dp5
S'connections'
p6
(dp7
(I-1
I3
tp8
g0
(cneat.genes
DefaultConnectionGene
p9
g2
Ntp10
Rp11
(dp12
S'enabled'
p13
I01
sS'weight'
p14
F-0.4642110436365663
sS'key'
p15
g8
sbs(I-1
I1
tp16
g0
(g9
g2
Ntp17
Rp18
(dp19
g13
I01
sg14
F0.16920401124058335
sg15
g16
sbs(I-4
I2
tp20
g0
(g9
g2
Ntp21
Rp22
(dp23
g13
I01
sg14
F-1.575837007093871
sg15
g20
sbs(I-2
I3
tp24
g0
(g9
g2
Ntp25
Rp26
(dp27
g13
I01
sg14
F0.657284795815847
sg15
g24
sbs(I-3
I1
tp28
g0
(g9
g2
Ntp29
Rp30
(dp31
g13
I01
sg14
F-1.9854601240071872
sg15
g28
sbs(I-3
I2
tp32
g0
(g9
g2
Ntp33
Rp34
(dp35
g13
I01
sg14
F-1.3580395690055898
sg15
g32
sbs(I-3
I3
tp36
g0
(g9
g2
Ntp37
Rp38
(dp39
g13
I01
sg14
F-0.0717658148394189
sg15
g36
sbs(I-4
I1
tp40
g0
(g9
g2
Ntp41
Rp42
(dp43
g13
I01
sg14
F-0.26131515971116437
sg15
g40
sbssS'nodes'
p44
(dp45
I0
g0
(cneat.genes
DefaultNodeGene
p46
g2
Ntp47
Rp48
(dp49
S'activation'
p50
S'sigmoid'
p51
sS'bias'
p52
F0.031161090780857794
sS'response'
p53
F1.0
sg15
I0
sS'aggregation'
p54
S'sum'
p55
sbsI1
g0
(g46
g2
Ntp56
Rp57
(dp58
g50
g51
sg52
F1.7922831153665106
sg53
F1.0
sg15
I1
sg54
g55
sbsI2
g0
(g46
g2
Ntp59
Rp60
(dp61
g50
g51
sg52
F1.2470915953913304
sg53
F1.0
sg15
I2
sg54
g55
sbsI3
g0
(g46
g2
Ntp62
Rp63
(dp64
g50
g51
sg52
F-0.9669870406965485
sg53
F1.0
sg15
I3
sg54
g55
sbssg15
I4
sS'fitness'
p65
F-5.999999999999995
sb.