ccopy_reg
_reconstructor
p0
(cneat.genome
DefaultGenome
p1
c__builtin__
object
p2
Ntp3
Rp4
(dp5
S'connections'
p6
(dp7
(I-3
I18
tp8
g0
(cneat.genes
DefaultConnectionGene
p9
g2
Ntp10
Rp11
(dp12
S'enabled'
p13
I00
sS'weight'
p14
F-1.9328947666957064
sS'key'
p15
g8
sbs(I33
I18
tp16
g0
(g9
g2
Ntp17
Rp18
(dp19
g13
I01
sg14
F-1.3761556660431034
sg15
g16
sbs(I-4
I2
tp20
g0
(g9
g2
Ntp21
Rp22
(dp23
g13
I01
sg14
F-0.8767150991738226
sg15
g20
sbs(I-3
I45
tp24
g0
(g9
g2
Ntp25
Rp26
(dp27
g13
I01
sg14
F0.7989311073840597
sg15
g24
sbs(I-3
I121
tp28
g0
(g9
g2
Ntp29
Rp30
(dp31
g13
I01
sg14
F-0.3212351267550276
sg15
g28
sbs(I-3
I59
tp32
g0
(g9
g2
Ntp33
Rp34
(dp35
g13
I01
sg14
F0.5445583801490114
sg15
g32
sbs(I-2
I3
tp36
g0
(g9
g2
Ntp37
Rp38
(dp39
g13
I00
sg14
F-2.655872488699137
sg15
g36
sbs(I-2
I1
tp40
g0
(g9
g2
Ntp41
Rp42
(dp43
g13
I00
sg14
F-1.5714595888265794
sg15
g40
sbs(I113
I1
tp44
g0
(g9
g2
Ntp45
Rp46
(dp47
g13
I00
sg14
F-0.9737563363434948
sg15
g44
sbs(I-3
I2
tp48
g0
(g9
g2
Ntp49
Rp50
(dp51
g13
I00
sg14
F1.5323312597503078
sg15
g48
sbs(I-4
I135
tp52
g0
(g9
g2
Ntp53
Rp54
(dp55
g13
I01
sg14
F1.0
sg15
g52
sbs(I83
I1
tp56
g0
(g9
g2
Ntp57
Rp58
(dp59
g13
I01
sg14
F-0.9102839215561503
sg15
g56
sbs(I79
I113
tp60
g0
(g9
g2
Ntp61
Rp62
(dp63
g13
I01
sg14
F0.09983910944472364
sg15
g60
sbs(I45
I3
tp64
g0
(g9
g2
Ntp65
Rp66
(dp67
g13
I01
sg14
F-1.1412926016545186
sg15
g64
sbs(I113
I125
tp68
g0
(g9
g2
Ntp69
Rp70
(dp71
g13
I01
sg14
F1.472732572126146
sg15
g68
sbs(I2
I125
tp72
g0
(g9
g2
Ntp73
Rp74
(dp75
g13
I01
sg14
F-0.8834964899079557
sg15
g72
sbs(I79
I1
tp76
g0
(g9
g2
Ntp77
Rp78
(dp79
g13
I01
sg14
F1.4227447925006809
sg15
g76
sbs(I125
I1
tp80
g0
(g9
g2
Ntp81
Rp82
(dp83
g13
I01
sg14
F0.9850577919876117
sg15
g80
sbs(I113
I121
tp84
g0
(g9
g2
Ntp85
Rp86
(dp87
g13
I01
sg14
F0.8760365850808691
sg15
g84
sbs(I-4
I0
tp88
g0
(g9
g2
Ntp89
Rp90
(dp91
g13
I00
sg14
F-1.827723666821929
sg15
g88
sbs(I31
I3
tp92
g0
(g9
g2
Ntp93
Rp94
(dp95
g13
I01
sg14
F-0.3379860660321298
sg15
g92
sbs(I14
I2
tp96
g0
(g9
g2
Ntp97
Rp98
(dp99
g13
I00
sg14
F-0.07413763864399403
sg15
g96
sbs(I72
I14
tp100
g0
(g9
g2
Ntp101
Rp102
(dp103
g13
I01
sg14
F0.5081361623725306
sg15
g100
sbs(I-3
I79
tp104
g0
(g9
g2
Ntp105
Rp106
(dp107
g13
I00
sg14
F-0.6046167418650799
sg15
g104
sbs(I135
I0
tp108
g0
(g9
g2
Ntp109
Rp110
(dp111
g13
I01
sg14
F-2.656544687804158
sg15
g108
sbs(I-3
I1
tp112
g0
(g9
g2
Ntp113
Rp114
(dp115
g13
I00
sg14
F-0.10517290201836849
sg15
g112
sbs(I-1
I3
tp116
g0
(g9
g2
Ntp117
Rp118
(dp119
g13
I01
sg14
F-2.453027167738164
sg15
g116
sbs(I-3
I33
tp120
g0
(g9
g2
Ntp121
Rp122
(dp123
g13
I01
sg14
F1.8570884480872074
sg15
g120
sbs(I121
I1
tp124
g0
(g9
g2
Ntp125
Rp126
(dp127
g13
I01
sg14
F1.2477884511782156
sg15
g124
sbs(I-2
I18
tp128
g0
(g9
g2
Ntp129
Rp130
(dp131
g13
I01
sg14
F-0.8832231222887231
sg15
g128
sbssS'nodes'
p132
(dp133
I0
g0
(cneat.genes
DefaultNodeGene
p134
g2
Ntp135
Rp136
(dp137
S'activation'
p138
S'sigmoid'
p139
sS'bias'
p140
F-4.317647701867264
sS'response'
p141
F1.0
sg15
I0
sS'aggregation'
p142
S'sum'
p143
sbsI1
g0
(g134
g2
Ntp144
Rp145
(dp146
g138
g139
sg140
F-1.0691037156325653
sg141
F1.0
sg15
I1
sg142
g143
sbsI2
g0
(g134
g2
Ntp147
Rp148
(dp149
g138
g139
sg140
F0.20618150202504948
sg141
F1.0
sg15
I2
sg142
g143
sbsI3
g0
(g134
g2
Ntp150
Rp151
(dp152
g138
g139
sg140
F-1.59750941703973
sg141
F1.0
sg15
I3
sg142
g143
sbsI33
g0
(g134
g2
Ntp153
Rp154
(dp155
g138
g139
sg140
F2.4755454386720555
sg141
F1.0
sg15
I33
sg142
g143
sbsI72
g0
(g134
g2
Ntp156
Rp157
(dp158
g138
g139
sg140
F-1.9373352007895108
sg141
F1.0
sg15
I72
sg142
g143
sbsI135
g0
(g134
g2
Ntp159
Rp160
(dp161
g138
g139
sg140
F0.09895725408990858
sg141
F1.0
sg15
I135
sg142
g143
sbsI45
g0
(g134
g2
Ntp162
Rp163
(dp164
g138
g139
sg140
F-0.8369774280074712
sg141
F1.0
sg15
I45
sg142
g143
sbsI14
g0
(g134
g2
Ntp165
Rp166
(dp167
g138
g139
sg140
F-1.8035231537318914
sg141
F1.0
sg15
I14
sg142
g143
sbsI79
g0
(g134
g2
Ntp168
Rp169
(dp170
g138
g139
sg140
F2.1330810453718745
sg141
F1.0
sg15
I79
sg142
g143
sbsI113
g0
(g134
g2
Ntp171
Rp172
(dp173
g138
g139
sg140
F-0.589310514838485
sg141
F1.0
sg15
I113
sg142
g143
sbsI18
g0
(g134
g2
Ntp174
Rp175
(dp176
g138
g139
sg140
F0.1336280611229063
sg141
F1.0
sg15
I18
sg142
g143
sbsI83
g0
(g134
g2
Ntp177
Rp178
(dp179
g138
g139
sg140
F-0.8967837713412201
sg141
F1.0
sg15
I83
sg142
g143
sbsI121
g0
(g134
g2
Ntp180
Rp181
(dp182
g138
g139
sg140
F1.0251295856924978
sg141
F1.0
sg15
I121
sg142
g143
sbsI59
g0
(g134
g2
Ntp183
Rp184
(dp185
g138
g139
sg140
F1.322255917175272
sg141
F1.0
sg15
I59
sg142
g143
sbsI125
g0
(g134
g2
Ntp186
Rp187
(dp188
g138
g139
sg140
F-1.391376096034684
sg141
F1.0
sg15
I125
sg142
g143
sbsI31
g0
(g134
g2
Ntp189
Rp190
(dp191
g138
g139
sg140
F0.5439602252667944
sg141
F1.0
sg15
I31
sg142
g143
sbssg15
I396
sS'fitness'
p192
F-20.000000000000014
sb.