ccopy_reg
_reconstructor
p0
(cneat.genome
DefaultGenome
p1
c__builtin__
object
p2
Ntp3
Rp4
(dp5
S'connections'
p6
(dp7
(I325
I4553
tp8
g0
(cneat.genes
DefaultConnectionGene
p9
g2
Ntp10
Rp11
(dp12
S'enabled'
p13
I01
sS'weight'
p14
F0.5860204978645199
sS'key'
p15
g8
sbs(I-2
I1058
tp16
g0
(g9
g2
Ntp17
Rp18
(dp19
g13
I01
sg14
F0.5956846474641224
sg15
g16
sbs(I2788
I4846
tp20
g0
(g9
g2
Ntp21
Rp22
(dp23
g13
I01
sg14
F0.12864142150073454
sg15
g20
sbs(I-4
I2
tp24
g0
(g9
g2
Ntp25
Rp26
(dp27
g13
I01
sg14
F0.20231527710880332
sg15
g24
sbs(I4123
I2858
tp28
g0
(g9
g2
Ntp29
Rp30
(dp31
g13
I01
sg14
F-0.35662076309702084
sg15
g28
sbs(I-4
I4123
tp32
g0
(g9
g2
Ntp33
Rp34
(dp35
g13
I01
sg14
F-3.3015148181497813
sg15
g32
sbs(I4553
I696
tp36
g0
(g9
g2
Ntp37
Rp38
(dp39
g13
I01
sg14
F-0.09770254023976768
sg15
g36
sbs(I4123
I4553
tp40
g0
(g9
g2
Ntp41
Rp42
(dp43
g13
I01
sg14
F-3.2071010564726894
sg15
g40
sbs(I2
I2788
tp44
g0
(g9
g2
Ntp45
Rp46
(dp47
g13
I01
sg14
F-0.8061888988041327
sg15
g44
sbs(I2858
I2
tp48
g0
(g9
g2
Ntp49
Rp50
(dp51
g13
I01
sg14
F1.3168534687625217
sg15
g48
sbs(I-2
I1
tp52
g0
(g9
g2
Ntp53
Rp54
(dp55
g13
I00
sg14
F2.317810614209402
sg15
g52
sbs(I6002
I2
tp56
g0
(g9
g2
Ntp57
Rp58
(dp59
g13
I00
sg14
F0.6727629716523706
sg15
g56
sbs(I1058
I3218
tp60
g0
(g9
g2
Ntp61
Rp62
(dp63
g13
I00
sg14
F0.3013394763384133
sg15
g60
sbs(I-4
I3
tp64
g0
(g9
g2
Ntp65
Rp66
(dp67
g13
I00
sg14
F-2.766600456422174
sg15
g64
sbs(I-4
I3732
tp68
g0
(g9
g2
Ntp69
Rp70
(dp71
g13
I00
sg14
F3.987452770910723
sg15
g68
sbs(I1821
I3
tp72
g0
(g9
g2
Ntp73
Rp74
(dp75
g13
I00
sg14
F0.3812859653997237
sg15
g72
sbs(I2984
I2897
tp76
g0
(g9
g2
Ntp77
Rp78
(dp79
g13
I00
sg14
F-1.0844983307974243
sg15
g76
sbs(I3
I325
tp80
g0
(g9
g2
Ntp81
Rp82
(dp83
g13
I00
sg14
F0.17376683521974534
sg15
g80
sbs(I1058
I2897
tp84
g0
(g9
g2
Ntp85
Rp86
(dp87
g13
I01
sg14
F2.555001926312598
sg15
g84
sbs(I4846
I325
tp88
g0
(g9
g2
Ntp89
Rp90
(dp91
g13
I01
sg14
F-0.09170327748996242
sg15
g88
sbs(I1058
I2984
tp92
g0
(g9
g2
Ntp93
Rp94
(dp95
g13
I00
sg14
F0.022070247163757318
sg15
g92
sbs(I-1
I2
tp96
g0
(g9
g2
Ntp97
Rp98
(dp99
g13
I00
sg14
F1.8835411540939684
sg15
g96
sbs(I4846
I696
tp100
g0
(g9
g2
Ntp101
Rp102
(dp103
g13
I01
sg14
F-0.7931349643288473
sg15
g100
sbs(I-2
I325
tp104
g0
(g9
g2
Ntp105
Rp106
(dp107
g13
I00
sg14
F-2.733941284367118
sg15
g104
sbs(I325
I1
tp108
g0
(g9
g2
Ntp109
Rp110
(dp111
g13
I00
sg14
F-0.14558180825705094
sg15
g108
sbs(I-1
I6002
tp112
g0
(g9
g2
Ntp113
Rp114
(dp115
g13
I01
sg14
F-0.9374267271101535
sg15
g112
sbs(I1058
I4123
tp116
g0
(g9
g2
Ntp117
Rp118
(dp119
g13
I01
sg14
F-0.20439342480707015
sg15
g116
sbs(I-4
I696
tp120
g0
(g9
g2
Ntp121
Rp122
(dp123
g13
I00
sg14
F-2.0179099162576724
sg15
g120
sbs(I2788
I696
tp124
g0
(g9
g2
Ntp125
Rp126
(dp127
g13
I00
sg14
F-1.366252952145229
sg15
g124
sbs(I-4
I1821
tp128
g0
(g9
g2
Ntp129
Rp130
(dp131
g13
I00
sg14
F0.8952829826444368
sg15
g128
sbs(I3019
I325
tp132
g0
(g9
g2
Ntp133
Rp134
(dp135
g13
I01
sg14
F0.7725380855417587
sg15
g132
sbs(I1058
I3
tp136
g0
(g9
g2
Ntp137
Rp138
(dp139
g13
I00
sg14
F0.48267530719273155
sg15
g136
sbs(I3218
I2984
tp140
g0
(g9
g2
Ntp141
Rp142
(dp143
g13
I01
sg14
F1.1261469378693387
sg15
g140
sbs(I4123
I3
tp144
g0
(g9
g2
Ntp145
Rp146
(dp147
g13
I01
sg14
F-0.701622300542644
sg15
g144
sbs(I4149
I696
tp148
g0
(g9
g2
Ntp149
Rp150
(dp151
g13
I01
sg14
F-1.1649119487181177
sg15
g148
sbssS'nodes'
p152
(dp153
I0
g0
(cneat.genes
DefaultNodeGene
p154
g2
Ntp155
Rp156
(dp157
S'activation'
p158
S'sigmoid'
p159
sS'bias'
p160
F-0.3179649432783831
sS'response'
p161
F1.0
sg15
I0
sS'aggregation'
p162
S'sum'
p163
sbsI1
g0
(g154
g2
Ntp164
Rp165
(dp166
g158
g159
sg160
F-1.777577283533908
sg161
F1.0
sg15
I1
sg162
g163
sbsI2
g0
(g154
g2
Ntp167
Rp168
(dp169
g158
g159
sg160
F0.008684410385163153
sg161
F1.0
sg15
I2
sg162
g163
sbsI3
g0
(g154
g2
Ntp170
Rp171
(dp172
g158
g159
sg160
F0.9203783826020169
sg161
F1.0
sg15
I3
sg162
g163
sbsI2788
g0
(g154
g2
Ntp173
Rp174
(dp175
g158
g159
sg160
F1.047607260705238
sg161
F1.0
sg15
I2788
sg162
g163
sbsI325
g0
(g154
g2
Ntp176
Rp177
(dp178
g158
g159
sg160
F2.27815459730833
sg161
F1.0
sg15
I325
sg162
g163
sbsI2984
g0
(g154
g2
Ntp179
Rp180
(dp181
g158
g159
sg160
F-2.7217003980916434
sg161
F1.0
sg15
I2984
sg162
g163
sbsI4553
g0
(g154
g2
Ntp182
Rp183
(dp184
g158
g159
sg160
F0.008014901768500726
sg161
F1.0
sg15
I4553
sg162
g163
sbsI2858
g0
(g154
g2
Ntp185
Rp186
(dp187
g158
g159
sg160
F-1.42230510205811
sg161
F1.0
sg15
I2858
sg162
g163
sbsI3019
g0
(g154
g2
Ntp188
Rp189
(dp190
g158
g159
sg160
F-1.2711662479827317
sg161
F1.0
sg15
I3019
sg162
g163
sbsI1058
g0
(g154
g2
Ntp191
Rp192
(dp193
g158
g159
sg160
F-0.5304069710856599
sg161
F1.0
sg15
I1058
sg162
g163
sbsI4846
g0
(g154
g2
Ntp194
Rp195
(dp196
g158
g159
sg160
F-1.755156292629673
sg161
F1.0
sg15
I4846
sg162
g163
sbsI2897
g0
(g154
g2
Ntp197
Rp198
(dp199
g158
g159
sg160
F1.5241006037159044
sg161
F1.0
sg15
I2897
sg162
g163
sbsI3218
g0
(g154
g2
Ntp200
Rp201
(dp202
g158
g159
sg160
F-1.558991488422619
sg161
F1.0
sg15
I3218
sg162
g163
sbsI3732
g0
(g154
g2
Ntp203
Rp204
(dp205
g158
g159
sg160
F2.8198598397368846
sg161
F1.0
sg15
I3732
sg162
g163
sbsI4149
g0
(g154
g2
Ntp206
Rp207
(dp208
g158
g159
sg160
F2.391480206606224
sg161
F1.0
sg15
I4149
sg162
g163
sbsI6002
g0
(g154
g2
Ntp209
Rp210
(dp211
g158
g159
sg160
F1.020362525033438
sg161
F1.0
sg15
I6002
sg162
g163
sbsI696
g0
(g154
g2
Ntp212
Rp213
(dp214
g158
g159
sg160
F-1.250951956161522
sg161
F1.0
sg15
I696
sg162
g163
sbsI4123
g0
(g154
g2
Ntp215
Rp216
(dp217
g158
g159
sg160
F-0.8578288076597025
sg161
F1.0
sg15
I4123
sg162
g163
sbsI1821
g0
(g154
g2
Ntp218
Rp219
(dp220
g158
g159
sg160
F0.3924814335216746
sg161
F1.0
sg15
I1821
sg162
g163
sbssg15
I19007
sS'fitness'
p221
F-5.999999999999995
sb.