ccopy_reg
_reconstructor
p0
(cneat.genome
DefaultGenome
p1
c__builtin__
object
p2
Ntp3
Rp4
(dp5
S'connections'
p6
(dp7
(I325
I4553
tp8
g0
(cneat.genes
DefaultConnectionGene
p9
g2
Ntp10
Rp11
(dp12
S'enabled'
p13
I01
sS'weight'
p14
F-1.6949080257979383
sS'key'
p15
g8
sbs(I-2
I1058
tp16
g0
(g9
g2
Ntp17
Rp18
(dp19
g13
I01
sg14
F1.1434930631408535
sg15
g16
sbs(I-3
I3218
tp20
g0
(g9
g2
Ntp21
Rp22
(dp23
g13
I00
sg14
F-1.6458798996110158
sg15
g20
sbs(I2788
I4846
tp24
g0
(g9
g2
Ntp25
Rp26
(dp27
g13
I01
sg14
F-3.0788763988708086
sg15
g24
sbs(I7274
I3218
tp28
g0
(g9
g2
Ntp29
Rp30
(dp31
g13
I01
sg14
F-0.24612432515949512
sg15
g28
sbs(I-4
I2
tp32
g0
(g9
g2
Ntp33
Rp34
(dp35
g13
I01
sg14
F-1.295885309934808
sg15
g32
sbs(I4123
I2858
tp36
g0
(g9
g2
Ntp37
Rp38
(dp39
g13
I01
sg14
F-1.4537830938312977
sg15
g36
sbs(I7224
I696
tp40
g0
(g9
g2
Ntp41
Rp42
(dp43
g13
I01
sg14
F-0.23955238199901174
sg15
g40
sbs(I-4
I4123
tp44
g0
(g9
g2
Ntp45
Rp46
(dp47
g13
I01
sg14
F-2.0930887776396068
sg15
g44
sbs(I4553
I696
tp48
g0
(g9
g2
Ntp49
Rp50
(dp51
g13
I01
sg14
F0.3298604167704372
sg15
g48
sbs(I4123
I4553
tp52
g0
(g9
g2
Ntp53
Rp54
(dp55
g13
I01
sg14
F1.047387027842201
sg15
g52
sbs(I2
I2788
tp56
g0
(g9
g2
Ntp57
Rp58
(dp59
g13
I01
sg14
F5.127865716879928
sg15
g56
sbs(I4149
I6168
tp60
g0
(g9
g2
Ntp61
Rp62
(dp63
g13
I01
sg14
F-0.27213553868697005
sg15
g60
sbs(I3
I325
tp64
g0
(g9
g2
Ntp65
Rp66
(dp67
g13
I00
sg14
F3.0393873657466766
sg15
g64
sbs(I2984
I7257
tp68
g0
(g9
g2
Ntp69
Rp70
(dp71
g13
I01
sg14
F-0.9983301923310938
sg15
g68
sbs(I-2
I1
tp72
g0
(g9
g2
Ntp73
Rp74
(dp75
g13
I00
sg14
F0.15482756586631996
sg15
g72
sbs(I6002
I2
tp76
g0
(g9
g2
Ntp77
Rp78
(dp79
g13
I00
sg14
F-0.49819388500904155
sg15
g76
sbs(I1058
I3218
tp80
g0
(g9
g2
Ntp81
Rp82
(dp83
g13
I00
sg14
F3.6370614310357676
sg15
g80
sbs(I6016
I4846
tp84
g0
(g9
g2
Ntp85
Rp86
(dp87
g13
I01
sg14
F-0.03361428590095952
sg15
g84
sbs(I-3
I7274
tp88
g0
(g9
g2
Ntp89
Rp90
(dp91
g13
I01
sg14
F1.1230754466987274
sg15
g88
sbs(I3019
I4149
tp92
g0
(g9
g2
Ntp93
Rp94
(dp95
g13
I01
sg14
F1.4090547900127042
sg15
g92
sbs(I-4
I3
tp96
g0
(g9
g2
Ntp97
Rp98
(dp99
g13
I00
sg14
F1.5674877892394399
sg15
g96
sbs(I-4
I3732
tp100
g0
(g9
g2
Ntp101
Rp102
(dp103
g13
I00
sg14
F-0.899521413088929
sg15
g100
sbs(I4553
I2788
tp104
g0
(g9
g2
Ntp105
Rp106
(dp107
g13
I01
sg14
F-0.8946335468804185
sg15
g104
sbs(I1821
I3
tp108
g0
(g9
g2
Ntp109
Rp110
(dp111
g13
I00
sg14
F0.9199797283740103
sg15
g108
sbs(I2984
I2897
tp112
g0
(g9
g2
Ntp113
Rp114
(dp115
g13
I00
sg14
F4.135853166553721
sg15
g112
sbs(I6168
I696
tp116
g0
(g9
g2
Ntp117
Rp118
(dp119
g13
I01
sg14
F2.0094113722616904
sg15
g116
sbs(I2858
I2
tp120
g0
(g9
g2
Ntp121
Rp122
(dp123
g13
I01
sg14
F0.23226556523776276
sg15
g120
sbs(I1058
I2897
tp124
g0
(g9
g2
Ntp125
Rp126
(dp127
g13
I00
sg14
F4.279901259014789
sg15
g124
sbs(I1058
I2984
tp128
g0
(g9
g2
Ntp129
Rp130
(dp131
g13
I00
sg14
F2.550464833983966
sg15
g128
sbs(I-1
I2
tp132
g0
(g9
g2
Ntp133
Rp134
(dp135
g13
I00
sg14
F-0.12639256052530407
sg15
g132
sbs(I4846
I696
tp136
g0
(g9
g2
Ntp137
Rp138
(dp139
g13
I00
sg14
F-0.026698124807640278
sg15
g136
sbs(I6168
I7170
tp140
g0
(g9
g2
Ntp141
Rp142
(dp143
g13
I01
sg14
F-0.35625462310721845
sg15
g140
sbs(I-2
I325
tp144
g0
(g9
g2
Ntp145
Rp146
(dp147
g13
I00
sg14
F-2.0506115696927836
sg15
g144
sbs(I7170
I696
tp148
g0
(g9
g2
Ntp149
Rp150
(dp151
g13
I01
sg14
F-0.6113863919679748
sg15
g148
sbs(I325
I1
tp152
g0
(g9
g2
Ntp153
Rp154
(dp155
g13
I00
sg14
F-2.1113920467706944
sg15
g152
sbs(I-1
I6002
tp156
g0
(g9
g2
Ntp157
Rp158
(dp159
g13
I01
sg14
F1.1794607025475259
sg15
g156
sbs(I1058
I4123
tp160
g0
(g9
g2
Ntp161
Rp162
(dp163
g13
I01
sg14
F1.6111172268194687
sg15
g160
sbs(I6002
I4308
tp164
g0
(g9
g2
Ntp165
Rp166
(dp167
g13
I01
sg14
F-2.000024980222264
sg15
g164
sbs(I-4
I696
tp168
g0
(g9
g2
Ntp169
Rp170
(dp171
g13
I00
sg14
F-1.5188455539493144
sg15
g168
sbs(I2788
I696
tp172
g0
(g9
g2
Ntp173
Rp174
(dp175
g13
I00
sg14
F-1.0514686824408266
sg15
g172
sbs(I6096
I696
tp176
g0
(g9
g2
Ntp177
Rp178
(dp179
g13
I01
sg14
F-2.903239034274399
sg15
g176
sbs(I7257
I2897
tp180
g0
(g9
g2
Ntp181
Rp182
(dp183
g13
I01
sg14
F2.6964529132935686
sg15
g180
sbs(I-4
I6096
tp184
g0
(g9
g2
Ntp185
Rp186
(dp187
g13
I01
sg14
F0.5652621040952562
sg15
g184
sbs(I-4
I1821
tp188
g0
(g9
g2
Ntp189
Rp190
(dp191
g13
I00
sg14
F1.1139924593565769
sg15
g188
sbs(I3019
I325
tp192
g0
(g9
g2
Ntp193
Rp194
(dp195
g13
I01
sg14
F-0.9260764062985866
sg15
g192
sbs(I1058
I7188
tp196
g0
(g9
g2
Ntp197
Rp198
(dp199
g13
I01
sg14
F-0.22165486672590273
sg15
g196
sbs(I7188
I3218
tp200
g0
(g9
g2
Ntp201
Rp202
(dp203
g13
I01
sg14
F-0.5154981053553017
sg15
g200
sbs(I325
I4308
tp204
g0
(g9
g2
Ntp205
Rp206
(dp207
g13
I01
sg14
F2.915561907220365
sg15
g204
sbs(I1058
I3
tp208
g0
(g9
g2
Ntp209
Rp210
(dp211
g13
I00
sg14
F1.490196627849235
sg15
g208
sbs(I6168
I7224
tp212
g0
(g9
g2
Ntp213
Rp214
(dp215
g13
I01
sg14
F1.3396505136387973
sg15
g212
sbs(I3218
I2984
tp216
g0
(g9
g2
Ntp217
Rp218
(dp219
g13
I01
sg14
F1.1556506754945506
sg15
g216
sbs(I4553
I6168
tp220
g0
(g9
g2
Ntp221
Rp222
(dp223
g13
I01
sg14
F-1.575574755048653
sg15
g220
sbs(I4123
I3
tp224
g0
(g9
g2
Ntp225
Rp226
(dp227
g13
I01
sg14
F1.5916597693660088
sg15
g224
sbs(I4149
I696
tp228
g0
(g9
g2
Ntp229
Rp230
(dp231
g13
I01
sg14
F1.3857120830559364
sg15
g228
sbs(I2788
I6016
tp232
g0
(g9
g2
Ntp233
Rp234
(dp235
g13
I01
sg14
F-0.012080038221932932
sg15
g232
sbssS'nodes'
p236
(dp237
I0
g0
(cneat.genes
DefaultNodeGene
p238
g2
Ntp239
Rp240
(dp241
S'activation'
p242
S'sigmoid'
p243
sS'bias'
p244
F1.1079574583488796
sS'response'
p245
F1.0
sg15
I0
sS'aggregation'
p246
S'sum'
p247
sbsI1
g0
(g238
g2
Ntp248
Rp249
(dp250
g242
g243
sg244
F0.539688402026086
sg245
F1.0
sg15
I1
sg246
g247
sbsI2
g0
(g238
g2
Ntp251
Rp252
(dp253
g242
g243
sg244
F5.432141489184842
sg245
F1.0
sg15
I2
sg246
g247
sbsI3
g0
(g238
g2
Ntp254
Rp255
(dp256
g242
g243
sg244
F-1.1812187162655392
sg245
F1.0
sg15
I3
sg246
g247
sbsI7170
g0
(g238
g2
Ntp257
Rp258
(dp259
g242
g243
sg244
F1.2913257396688187
sg245
F1.0
sg15
I7170
sg246
g247
sbsI3218
g0
(g238
g2
Ntp260
Rp261
(dp262
g242
g243
sg244
F1.2506122651396965
sg245
F1.0
sg15
I3218
sg246
g247
sbsI3732
g0
(g238
g2
Ntp263
Rp264
(dp265
g242
g243
sg244
F2.7516136449664295
sg245
F1.0
sg15
I3732
sg246
g247
sbsI6168
g0
(g238
g2
Ntp266
Rp267
(dp268
g242
g243
sg244
F-0.3930606323593109
sg245
F1.0
sg15
I6168
sg246
g247
sbsI4123
g0
(g238
g2
Ntp269
Rp270
(dp271
g242
g243
sg244
F-0.6030162016014089
sg245
F1.0
sg15
I4123
sg246
g247
sbsI1821
g0
(g238
g2
Ntp272
Rp273
(dp274
g242
g243
sg244
F2.6005747177076537
sg245
F1.0
sg15
I1821
sg246
g247
sbsI1058
g0
(g238
g2
Ntp275
Rp276
(dp277
g242
g243
sg244
F-1.3679686630699506
sg245
F1.0
sg15
I1058
sg246
g247
sbsI2984
g0
(g238
g2
Ntp278
Rp279
(dp280
g242
g243
sg244
F-0.17173512158065984
sg245
F1.0
sg15
I2984
sg246
g247
sbsI2858
g0
(g238
g2
Ntp281
Rp282
(dp283
g242
g243
sg244
F1.4654214675360437
sg245
F1.0
sg15
I2858
sg246
g247
sbsI4149
g0
(g238
g2
Ntp284
Rp285
(dp286
g242
g243
sg244
F-0.032523801717369794
sg245
F1.0
sg15
I4149
sg246
g247
sbsI696
g0
(g238
g2
Ntp287
Rp288
(dp289
g242
g243
sg244
F-0.636588133897083
sg245
F1.0
sg15
I696
sg246
g247
sbsI6016
g0
(g238
g2
Ntp290
Rp291
(dp292
g242
g243
sg244
F-0.5494844441378406
sg245
F1.0
sg15
I6016
sg246
g247
sbsI325
g0
(g238
g2
Ntp293
Rp294
(dp295
g242
g243
sg244
F-0.1483755860241515
sg245
F1.0
sg15
I325
sg246
g247
sbsI4553
g0
(g238
g2
Ntp296
Rp297
(dp298
g242
g243
sg244
F-0.5759619599330988
sg245
F1.0
sg15
I4553
sg246
g247
sbsI3019
g0
(g238
g2
Ntp299
Rp300
(dp301
g242
g243
sg244
F0.7383297021107255
sg245
F1.0
sg15
I3019
sg246
g247
sbsI6096
g0
(g238
g2
Ntp302
Rp303
(dp304
g242
g243
sg244
F0.560696724384052
sg245
F1.0
sg15
I6096
sg246
g247
sbsI2897
g0
(g238
g2
Ntp305
Rp306
(dp307
g242
g243
sg244
F0.10659550253669114
sg245
F1.0
sg15
I2897
sg246
g247
sbsI4308
g0
(g238
g2
Ntp308
Rp309
(dp310
g242
g243
sg244
F0.1960556444187575
sg245
F1.0
sg15
I4308
sg246
g247
sbsI7257
g0
(g238
g2
Ntp311
Rp312
(dp313
g242
g243
sg244
F0.019936474316916586
sg245
F1.0
sg15
I7257
sg246
g247
sbsI2788
g0
(g238
g2
Ntp314
Rp315
(dp316
g242
g243
sg244
F-3.361853293021672
sg245
F1.0
sg15
I2788
sg246
g247
sbsI7274
g0
(g238
g2
Ntp317
Rp318
(dp319
g242
g243
sg244
F-1.1550194611337843
sg245
F1.0
sg15
I7274
sg246
g247
sbsI4846
g0
(g238
g2
Ntp320
Rp321
(dp322
g242
g243
sg244
F-0.015078484539423731
sg245
F1.0
sg15
I4846
sg246
g247
sbsI6002
g0
(g238
g2
Ntp323
Rp324
(dp325
g242
g243
sg244
F1.6717509627101574
sg245
F1.0
sg15
I6002
sg246
g247
sbsI7224
g0
(g238
g2
Ntp326
Rp327
(dp328
g242
g243
sg244
F-1.3668224127489088
sg245
F1.0
sg15
I7224
sg246
g247
sbsI7188
g0
(g238
g2
Ntp329
Rp330
(dp331
g242
g243
sg244
F0.08678936728718976
sg245
F1.0
sg15
I7188
sg246
g247
sbssg15
I22272
sS'fitness'
p332
F-5.999999999999995
sb.