ccopy_reg
_reconstructor
p0
(cneat.genome
DefaultGenome
p1
c__builtin__
object
p2
Ntp3
Rp4
(dp5
S'connections'
p6
(dp7
(I-2
I1
tp8
g0
(cneat.genes
DefaultConnectionGene
p9
g2
Ntp10
Rp11
(dp12
S'enabled'
p13
I01
sS'weight'
p14
F-0.581412690226651
sS'key'
p15
g8
sbs(I-4
I2
tp16
g0
(g9
g2
Ntp17
Rp18
(dp19
g13
I01
sg14
F0.782422377489654
sg15
g16
sbs(I-1
I3
tp20
g0
(g9
g2
Ntp21
Rp22
(dp23
g13
I01
sg14
F0.7905059364660172
sg15
g20
sbs(I-4
I3
tp24
g0
(g9
g2
Ntp25
Rp26
(dp27
g13
I01
sg14
F-0.6667999314715175
sg15
g24
sbs(I-2
I3
tp28
g0
(g9
g2
Ntp29
Rp30
(dp31
g13
I01
sg14
F0.8412002145962678
sg15
g28
sbs(I-3
I2
tp32
g0
(g9
g2
Ntp33
Rp34
(dp35
g13
I01
sg14
F2.3474136454068546
sg15
g32
sbs(I-3
I0
tp36
g0
(g9
g2
Ntp37
Rp38
(dp39
g13
I01
sg14
F0.38110037314670764
sg15
g36
sbssS'nodes'
p40
(dp41
I0
g0
(cneat.genes
DefaultNodeGene
p42
g2
Ntp43
Rp44
(dp45
S'activation'
p46
S'sigmoid'
p47
sS'bias'
p48
F2.0280210392112052
sS'response'
p49
F1.0
sg15
I0
sS'aggregation'
p50
S'sum'
p51
sbsI1
g0
(g42
g2
Ntp52
Rp53
(dp54
g46
g47
sg48
F1.1920608820805327
sg49
F1.0
sg15
I1
sg50
g51
sbsI2
g0
(g42
g2
Ntp55
Rp56
(dp57
g46
g47
sg48
F-0.9026344064543559
sg49
F1.0
sg15
I2
sg50
g51
sbsI3
g0
(g42
g2
Ntp58
Rp59
(dp60
g46
g47
sg48
F-2.7362430787757823
sg49
F1.0
sg15
I3
sg50
g51
sbssg15
I65
sS'fitness'
p61
F-0.09999999999999964
sb.