ccopy_reg
_reconstructor
p0
(cneat.genome
DefaultGenome
p1
c__builtin__
object
p2
Ntp3
Rp4
(dp5
S'connections'
p6
(dp7
(I-2
I1
tp8
g0
(cneat.genes
DefaultConnectionGene
p9
g2
Ntp10
Rp11
(dp12
S'enabled'
p13
I01
sS'weight'
p14
F-0.6871463252405984
sS'key'
p15
g8
sbs(I-2
I0
tp16
g0
(g9
g2
Ntp17
Rp18
(dp19
g13
I01
sg14
F-0.35180032029072306
sg15
g16
sbs(I-2
I3
tp20
g0
(g9
g2
Ntp21
Rp22
(dp23
g13
I01
sg14
F0.8412002145962678
sg15
g20
sbs(I-4
I2
tp24
g0
(g9
g2
Ntp25
Rp26
(dp27
g13
I01
sg14
F1.4191552295677436
sg15
g24
sbs(I-3
I2
tp28
g0
(g9
g2
Ntp29
Rp30
(dp31
g13
I01
sg14
F1.0386388043243826
sg15
g28
sbssS'nodes'
p32
(dp33
I0
g0
(cneat.genes
DefaultNodeGene
p34
g2
Ntp35
Rp36
(dp37
S'activation'
p38
S'sigmoid'
p39
sS'bias'
p40
F0.6203877124655699
sS'response'
p41
F1.0
sg15
I0
sS'aggregation'
p42
S'sum'
p43
sbsI1
g0
(g34
g2
Ntp44
Rp45
(dp46
g38
g39
sg40
F0.9772313541352838
sg41
F1.0
sg15
I1
sg42
g43
sbsI2
g0
(g34
g2
Ntp47
Rp48
(dp49
g38
g39
sg40
F-2.7976162995446465
sg41
F1.0
sg15
I2
sg42
g43
sbsI3
g0
(g34
g2
Ntp50
Rp51
(dp52
g38
g39
sg40
F-3.4876117804958957
sg41
F1.0
sg15
I3
sg42
g43
sbssg15
I64
sS'fitness'
p53
F-0.09999999999999964
sb.