ccopy_reg
_reconstructor
p0
(cneat.genome
DefaultGenome
p1
c__builtin__
object
p2
Ntp3
Rp4
(dp5
S'connections'
p6
(dp7
(I39
I3
tp8
g0
(cneat.genes
DefaultConnectionGene
p9
g2
Ntp10
Rp11
(dp12
S'enabled'
p13
I00
sS'weight'
p14
F3.144940654000227
sS'key'
p15
g8
sbs(I-2
I1
tp16
g0
(g9
g2
Ntp17
Rp18
(dp19
g13
I01
sg14
F0.4921055479445781
sg15
g16
sbs(I-2
I2
tp20
g0
(g9
g2
Ntp21
Rp22
(dp23
g13
I01
sg14
F0.575959291622268
sg15
g20
sbs(I-2
I0
tp24
g0
(g9
g2
Ntp25
Rp26
(dp27
g13
I01
sg14
F0.08004575878871233
sg15
g24
sbs(I-1
I2
tp28
g0
(g9
g2
Ntp29
Rp30
(dp31
g13
I01
sg14
F1.3962092853964425
sg15
g28
sbs(I-4
I3
tp32
g0
(g9
g2
Ntp33
Rp34
(dp35
g13
I01
sg14
F-1.7916305633501872
sg15
g32
sbs(I39
I57
tp36
g0
(g9
g2
Ntp37
Rp38
(dp39
g13
I01
sg14
F2.09530937117144
sg15
g36
sbs(I-4
I2
tp40
g0
(g9
g2
Ntp41
Rp42
(dp43
g13
I01
sg14
F-0.006053738886276472
sg15
g40
sbs(I0
I39
tp44
g0
(g9
g2
Ntp45
Rp46
(dp47
g13
I01
sg14
F1.4715645607046124
sg15
g44
sbs(I-4
I0
tp48
g0
(g9
g2
Ntp49
Rp50
(dp51
g13
I01
sg14
F-1.3236088262545789
sg15
g48
sbs(I22
I1
tp52
g0
(g9
g2
Ntp53
Rp54
(dp55
g13
I01
sg14
F-1.5816612520936257
sg15
g52
sbs(I57
I3
tp56
g0
(g9
g2
Ntp57
Rp58
(dp59
g13
I01
sg14
F0.30915353920877875
sg15
g56
sbs(I-4
I39
tp60
g0
(g9
g2
Ntp61
Rp62
(dp63
g13
I01
sg14
F0.03718056614613896
sg15
g60
sbs(I39
I2
tp64
g0
(g9
g2
Ntp65
Rp66
(dp67
g13
I01
sg14
F0.6445382106491195
sg15
g64
sbssS'nodes'
p68
(dp69
I0
g0
(cneat.genes
DefaultNodeGene
p70
g2
Ntp71
Rp72
(dp73
S'activation'
p74
S'sigmoid'
p75
sS'bias'
p76
F-3.8060444550163774
sS'response'
p77
F1.0
sg15
I0
sS'aggregation'
p78
S'sum'
p79
sbsI1
g0
(g70
g2
Ntp80
Rp81
(dp82
g74
g75
sg76
F-0.5663296185513703
sg77
F1.0
sg15
I1
sg78
g79
sbsI2
g0
(g70
g2
Ntp83
Rp84
(dp85
g74
g75
sg76
F0.6911097569038398
sg77
F1.0
sg15
I2
sg78
g79
sbsI3
g0
(g70
g2
Ntp86
Rp87
(dp88
g74
g75
sg76
F-1.6662473562798383
sg77
F1.0
sg15
I3
sg78
g79
sbsI39
g0
(g70
g2
Ntp89
Rp90
(dp91
g74
g75
sg76
F0.41513537246645205
sg77
F1.0
sg15
I39
sg78
g79
sbsI22
g0
(g70
g2
Ntp92
Rp93
(dp94
g74
g75
sg76
F0.9743764095708436
sg77
F1.0
sg15
I22
sg78
g79
sbsI57
g0
(g70
g2
Ntp95
Rp96
(dp97
g74
g75
sg76
F0.03650322322019345
sg77
F1.0
sg15
I57
sg78
g79
sbssg15
I461
sS'fitness'
p98
F9.4
sb.