ccopy_reg
_reconstructor
p0
(cneat.genome
DefaultGenome
p1
c__builtin__
object
p2
Ntp3
Rp4
(dp5
S'connections'
p6
(dp7
(I-2
I1
tp8
g0
(cneat.genes
DefaultConnectionGene
p9
g2
Ntp10
Rp11
(dp12
S'enabled'
p13
I01
sS'weight'
p14
F-0.634382279426418
sS'key'
p15
g8
sbs(I-2
I0
tp16
g0
(g9
g2
Ntp17
Rp18
(dp19
g13
I01
sg14
F1.5646841641447171
sg15
g16
sbs(I-4
I2
tp20
g0
(g9
g2
Ntp21
Rp22
(dp23
g13
I01
sg14
F0.32609163865381846
sg15
g20
sbs(I-2
I3
tp24
g0
(g9
g2
Ntp25
Rp26
(dp27
g13
I01
sg14
F0.9326849367893436
sg15
g24
sbs(I-1
I1
tp28
g0
(g9
g2
Ntp29
Rp30
(dp31
g13
I01
sg14
F1.3570420941700438
sg15
g28
sbs(I2671
I1
tp32
g0
(g9
g2
Ntp33
Rp34
(dp35
g13
I01
sg14
F0.08098718181225661
sg15
g32
sbs(I-3
I1
tp36
g0
(g9
g2
Ntp37
Rp38
(dp39
g13
I00
sg14
F0.4596613828224768
sg15
g36
sbs(I-4
I1
tp40
g0
(g9
g2
Ntp41
Rp42
(dp43
g13
I01
sg14
F-2.2149873413089147
sg15
g40
sbs(I-3
I3
tp44
g0
(g9
g2
Ntp45
Rp46
(dp47
g13
I01
sg14
F-0.7438560408200126
sg15
g44
sbs(I-3
I2671
tp48
g0
(g9
g2
Ntp49
Rp50
(dp51
g13
I01
sg14
F1.548718389107759
sg15
g48
sbssS'nodes'
p52
(dp53
I0
g0
(cneat.genes
DefaultNodeGene
p54
g2
Ntp55
Rp56
(dp57
S'activation'
p58
S'sigmoid'
p59
sS'bias'
p60
F0.5238190471183324
sS'response'
p61
F1.0
sg15
I0
sS'aggregation'
p62
S'sum'
p63
sbsI1
g0
(g54
g2
Ntp64
Rp65
(dp66
g58
g59
sg60
F1.0675947369845047
sg61
F1.0
sg15
I1
sg62
g63
sbsI2
g0
(g54
g2
Ntp67
Rp68
(dp69
g58
g59
sg60
F0.8103302244627756
sg61
F1.0
sg15
I2
sg62
g63
sbsI3
g0
(g54
g2
Ntp70
Rp71
(dp72
g58
g59
sg60
F0.25720350194838465
sg61
F1.0
sg15
I3
sg62
g63
sbsI2671
g0
(g54
g2
Ntp73
Rp74
(dp75
g58
g59
sg60
F-1.204113465588617
sg61
F1.0
sg15
I2671
sg62
g63
sbssg15
I7996
sS'fitness'
p76
F-5.999999999999995
sb.