ccopy_reg
_reconstructor
p0
(cneat.genome
DefaultGenome
p1
c__builtin__
object
p2
Ntp3
Rp4
(dp5
S'connections'
p6
(dp7
(I4330
I959
tp8
g0
(cneat.genes
DefaultConnectionGene
p9
g2
Ntp10
Rp11
(dp12
S'enabled'
p13
I01
sS'weight'
p14
F1.5723994683490687
sS'key'
p15
g8
sbs(I6663
I4271
tp16
g0
(g9
g2
Ntp17
Rp18
(dp19
g13
I01
sg14
F0.3774932581635892
sg15
g16
sbs(I1195
I2952
tp20
g0
(g9
g2
Ntp21
Rp22
(dp23
g13
I00
sg14
F0.18524561315737098
sg15
g20
sbs(I2691
I2273
tp24
g0
(g9
g2
Ntp25
Rp26
(dp27
g13
I01
sg14
F0.9180414224427368
sg15
g24
sbs(I1195
I3
tp28
g0
(g9
g2
Ntp29
Rp30
(dp31
g13
I01
sg14
F1.2946894580088635
sg15
g28
sbs(I4359
I850
tp32
g0
(g9
g2
Ntp33
Rp34
(dp35
g13
I01
sg14
F-0.6606320096488896
sg15
g32
sbs(I-1
I2891
tp36
g0
(g9
g2
Ntp37
Rp38
(dp39
g13
I01
sg14
F4.64894140585325
sg15
g36
sbs(I4034
I4271
tp40
g0
(g9
g2
Ntp41
Rp42
(dp43
g13
I01
sg14
F-1.5889505530867511
sg15
g40
sbs(I4214
I4306
tp44
g0
(g9
g2
Ntp45
Rp46
(dp47
g13
I01
sg14
F3.027387375434655
sg15
g44
sbs(I4271
I3944
tp48
g0
(g9
g2
Ntp49
Rp50
(dp51
g13
I01
sg14
F-2.9751901184585754
sg15
g48
sbs(I959
I2
tp52
g0
(g9
g2
Ntp53
Rp54
(dp55
g13
I01
sg14
F2.512517764967827
sg15
g52
sbs(I-3
I2691
tp56
g0
(g9
g2
Ntp57
Rp58
(dp59
g13
I01
sg14
F0.8830879081204079
sg15
g56
sbs(I-1
I2579
tp60
g0
(g9
g2
Ntp61
Rp62
(dp63
g13
I00
sg14
F2.277169261107006
sg15
g60
sbs(I348
I3944
tp64
g0
(g9
g2
Ntp65
Rp66
(dp67
g13
I01
sg14
F-1.5383413544245284
sg15
g64
sbs(I2691
I484
tp68
g0
(g9
g2
Ntp69
Rp70
(dp71
g13
I00
sg14
F2.4463207669402247
sg15
g68
sbs(I2273
I1
tp72
g0
(g9
g2
Ntp73
Rp74
(dp75
g13
I00
sg14
F0.1498391794140141
sg15
g72
sbs(I2891
I1766
tp76
g0
(g9
g2
Ntp77
Rp78
(dp79
g13
I01
sg14
F1.071560471561921
sg15
g76
sbs(I3844
I0
tp80
g0
(g9
g2
Ntp81
Rp82
(dp83
g13
I01
sg14
F0.43771555222027114
sg15
g80
sbs(I-4
I850
tp84
g0
(g9
g2
Ntp85
Rp86
(dp87
g13
I00
sg14
F-1.9343592936404486
sg15
g84
sbs(I-3
I348
tp88
g0
(g9
g2
Ntp89
Rp90
(dp91
g13
I00
sg14
F-1.594608526159174
sg15
g88
sbs(I-3
I4359
tp92
g0
(g9
g2
Ntp93
Rp94
(dp95
g13
I01
sg14
F2.564699638672957
sg15
g92
sbs(I-3
I2273
tp96
g0
(g9
g2
Ntp97
Rp98
(dp99
g13
I00
sg14
F1.2683405977830822
sg15
g96
sbs(I484
I1
tp100
g0
(g9
g2
Ntp101
Rp102
(dp103
g13
I00
sg14
F0.8156169834668159
sg15
g100
sbs(I484
I3823
tp104
g0
(g9
g2
Ntp105
Rp106
(dp107
g13
I00
sg14
F-0.604997949342916
sg15
g104
sbs(I1766
I0
tp108
g0
(g9
g2
Ntp109
Rp110
(dp111
g13
I01
sg14
F-0.005576317656337759
sg15
g108
sbs(I1328
I850
tp112
g0
(g9
g2
Ntp113
Rp114
(dp115
g13
I01
sg14
F-0.6337121390392666
sg15
g112
sbs(I6419
I4271
tp116
g0
(g9
g2
Ntp117
Rp118
(dp119
g13
I01
sg14
F-0.8358390569029344
sg15
g116
sbs(I-3
I5582
tp120
g0
(g9
g2
Ntp121
Rp122
(dp123
g13
I01
sg14
F0.8326109124810948
sg15
g120
sbs(I2273
I6419
tp124
g0
(g9
g2
Ntp125
Rp126
(dp127
g13
I01
sg14
F1.287034665371654
sg15
g124
sbs(I-3
I1328
tp128
g0
(g9
g2
Ntp129
Rp130
(dp131
g13
I01
sg14
F-2.0790498513481226
sg15
g128
sbs(I348
I2828
tp132
g0
(g9
g2
Ntp133
Rp134
(dp135
g13
I01
sg14
F0.18602545706572277
sg15
g132
sbs(I1369
I2
tp136
g0
(g9
g2
Ntp137
Rp138
(dp139
g13
I01
sg14
F0.14969875466605967
sg15
g136
sbs(I484
I2
tp140
g0
(g9
g2
Ntp141
Rp142
(dp143
g13
I01
sg14
F0.9633338678753849
sg15
g140
sbs(I-4
I4359
tp144
g0
(g9
g2
Ntp145
Rp146
(dp147
g13
I01
sg14
F-0.5330969879745235
sg15
g144
sbs(I388
I0
tp148
g0
(g9
g2
Ntp149
Rp150
(dp151
g13
I01
sg14
F0.6531854701187573
sg15
g148
sbs(I-1
I3640
tp152
g0
(g9
g2
Ntp153
Rp154
(dp155
g13
I01
sg14
F1.3337514223030005
sg15
g152
sbs(I2105
I1328
tp156
g0
(g9
g2
Ntp157
Rp158
(dp159
g13
I00
sg14
F-2.1788145799430034
sg15
g156
sbs(I348
I388
tp160
g0
(g9
g2
Ntp161
Rp162
(dp163
g13
I00
sg14
F-0.6603909678399066
sg15
g160
sbs(I1650
I3
tp164
g0
(g9
g2
Ntp165
Rp166
(dp167
g13
I01
sg14
F-0.30089461059898803
sg15
g164
sbs(I2273
I1369
tp168
g0
(g9
g2
Ntp169
Rp170
(dp171
g13
I01
sg14
F-1.2320338735316516
sg15
g168
sbs(I484
I3944
tp172
g0
(g9
g2
Ntp173
Rp174
(dp175
g13
I00
sg14
F2.240565166581159
sg15
g172
sbs(I1650
I388
tp176
g0
(g9
g2
Ntp177
Rp178
(dp179
g13
I01
sg14
F-1.206543605297967
sg15
g176
sbs(I-1
I2
tp180
g0
(g9
g2
Ntp181
Rp182
(dp183
g13
I00
sg14
F-2.943344438038685
sg15
g180
sbs(I-2
I1
tp184
g0
(g9
g2
Ntp185
Rp186
(dp187
g13
I01
sg14
F-1.7741131875158058
sg15
g184
sbs(I-3
I1
tp188
g0
(g9
g2
Ntp189
Rp190
(dp191
g13
I00
sg14
F-2.821400168466986
sg15
g188
sbs(I850
I484
tp192
g0
(g9
g2
Ntp193
Rp194
(dp195
g13
I01
sg14
F-0.13125021430427772
sg15
g192
sbs(I6663
I850
tp196
g0
(g9
g2
Ntp197
Rp198
(dp199
g13
I01
sg14
F0.03367602344341263
sg15
g196
sbs(I-3
I3864
tp200
g0
(g9
g2
Ntp201
Rp202
(dp203
g13
I00
sg14
F0.19489304641289595
sg15
g200
sbs(I3864
I2273
tp204
g0
(g9
g2
Ntp205
Rp206
(dp207
g13
I00
sg14
F1.6025664238898978
sg15
g204
sbs(I484
I1369
tp208
g0
(g9
g2
Ntp209
Rp210
(dp211
g13
I01
sg14
F0.49274490690519407
sg15
g208
sbs(I1195
I1369
tp212
g0
(g9
g2
Ntp213
Rp214
(dp215
g13
I00
sg14
F0.7794981038108928
sg15
g212
sbs(I-4
I6663
tp216
g0
(g9
g2
Ntp217
Rp218
(dp219
g13
I01
sg14
F2.4052291901604113
sg15
g216
sbs(I5596
I2579
tp220
g0
(g9
g2
Ntp221
Rp222
(dp223
g13
I01
sg14
F-3.1735343703898904
sg15
g220
sbs(I959
I5038
tp224
g0
(g9
g2
Ntp225
Rp226
(dp227
g13
I01
sg14
F0.407808531413355
sg15
g224
sbs(I2952
I3
tp228
g0
(g9
g2
Ntp229
Rp230
(dp231
g13
I00
sg14
F-2.3722106465320336
sg15
g228
sbs(I-3
I1650
tp232
g0
(g9
g2
Ntp233
Rp234
(dp235
g13
I01
sg14
F2.0962434501208045
sg15
g232
sbs(I2891
I1195
tp236
g0
(g9
g2
Ntp237
Rp238
(dp239
g13
I00
sg14
F-6.1984952601480074
sg15
g236
sbs(I4214
I484
tp240
g0
(g9
g2
Ntp241
Rp242
(dp243
g13
I00
sg14
F3.2301981359370107
sg15
g240
sbs(I-1
I3
tp244
g0
(g9
g2
Ntp245
Rp246
(dp247
g13
I00
sg14
F1.5856604681037225
sg15
g244
sbs(I4034
I3944
tp248
g0
(g9
g2
Ntp249
Rp250
(dp251
g13
I01
sg14
F-0.6203373166187414
sg15
g248
sbs(I2828
I0
tp252
g0
(g9
g2
Ntp253
Rp254
(dp255
g13
I01
sg14
F-0.3906348761201978
sg15
g252
sbs(I-3
I4181
tp256
g0
(g9
g2
Ntp257
Rp258
(dp259
g13
I01
sg14
F1.3403517093090094
sg15
g256
sbs(I-3
I0
tp260
g0
(g9
g2
Ntp261
Rp262
(dp263
g13
I00
sg14
F0.3054900854981859
sg15
g260
sbs(I3823
I1
tp264
g0
(g9
g2
Ntp265
Rp266
(dp267
g13
I01
sg14
F-1.8396215549032564
sg15
g264
sbs(I348
I2
tp268
g0
(g9
g2
Ntp269
Rp270
(dp271
g13
I01
sg14
F-1.0781131618472837
sg15
g268
sbs(I6419
I1369
tp272
g0
(g9
g2
Ntp273
Rp274
(dp275
g13
I01
sg14
F0.4449472998137453
sg15
g272
sbs(I-1
I5596
tp276
g0
(g9
g2
Ntp277
Rp278
(dp279
g13
I01
sg14
F-0.8545042235626166
sg15
g276
sbs(I3640
I2
tp280
g0
(g9
g2
Ntp281
Rp282
(dp283
g13
I01
sg14
F-1.2752472642659047
sg15
g280
sbs(I388
I3
tp284
g0
(g9
g2
Ntp285
Rp286
(dp287
g13
I00
sg14
F-1.445918897238769
sg15
g284
sbs(I348
I4330
tp288
g0
(g9
g2
Ntp289
Rp290
(dp291
g13
I01
sg14
F1.173166075591784
sg15
g288
sbs(I5038
I2
tp292
g0
(g9
g2
Ntp293
Rp294
(dp295
g13
I01
sg14
F-1.0160367326143123
sg15
g292
sbs(I-4
I1766
tp296
g0
(g9
g2
Ntp297
Rp298
(dp299
g13
I01
sg14
F0.5971011564337839
sg15
g296
sbs(I5582
I2691
tp300
g0
(g9
g2
Ntp301
Rp302
(dp303
g13
I01
sg14
F-1.0736760630484086
sg15
g300
sbs(I4181
I1
tp304
g0
(g9
g2
Ntp305
Rp306
(dp307
g13
I00
sg14
F-1.720637966558179
sg15
g304
sbssS'nodes'
p308
(dp309
I0
g0
(cneat.genes
DefaultNodeGene
p310
g2
Ntp311
Rp312
(dp313
S'activation'
p314
S'sigmoid'
p315
sS'bias'
p316
F0.50744901484333
sS'response'
p317
F1.0
sg15
I0
sS'aggregation'
p318
S'sum'
p319
sbsI1
g0
(g310
g2
Ntp320
Rp321
(dp322
g314
g315
sg316
F-0.6902521850040442
sg317
F1.0
sg15
I1
sg318
g319
sbsI2
g0
(g310
g2
Ntp323
Rp324
(dp325
g314
g315
sg316
F-0.6920893181876028
sg317
F1.0
sg15
I2
sg318
g319
sbsI3
g0
(g310
g2
Ntp326
Rp327
(dp328
g314
g315
sg316
F-1.8021236828385723
sg317
F1.0
sg15
I3
sg318
g319
sbsI388
g0
(g310
g2
Ntp329
Rp330
(dp331
g314
g315
sg316
F2.7622544274764165
sg317
F1.0
sg15
I388
sg318
g319
sbsI4359
g0
(g310
g2
Ntp332
Rp333
(dp334
g314
g315
sg316
F0.6387010891176481
sg317
F1.0
sg15
I4359
sg318
g319
sbsI2952
g0
(g310
g2
Ntp335
Rp336
(dp337
g314
g315
sg316
F0.8530835402272432
sg317
F1.0
sg15
I2952
sg318
g319
sbsI2828
g0
(g310
g2
Ntp338
Rp339
(dp340
g314
g315
sg316
F-2.9037408684597987
sg317
F1.0
sg15
I2828
sg318
g319
sbsI2579
g0
(g310
g2
Ntp341
Rp342
(dp343
g314
g315
sg316
F2.327500454158853
sg317
F1.0
sg15
I2579
sg318
g319
sbsI3864
g0
(g310
g2
Ntp344
Rp345
(dp346
g314
g315
sg316
F-0.21033219329933384
sg317
F1.0
sg15
I3864
sg318
g319
sbsI3844
g0
(g310
g2
Ntp347
Rp348
(dp349
g314
g315
sg316
F0.25504754977380684
sg317
F1.0
sg15
I3844
sg318
g319
sbsI348
g0
(g310
g2
Ntp350
Rp351
(dp352
g314
g315
sg316
F0.15567789003476876
sg317
F1.0
sg15
I348
sg318
g319
sbsI6663
g0
(g310
g2
Ntp353
Rp354
(dp355
g314
g315
sg316
F2.1705631287850182
sg317
F1.0
sg15
I6663
sg318
g319
sbsI5038
g0
(g310
g2
Ntp356
Rp357
(dp358
g314
g315
sg316
F0.5505665956126
sg317
F1.0
sg15
I5038
sg318
g319
sbsI4271
g0
(g310
g2
Ntp359
Rp360
(dp361
g314
g315
sg316
F3.9238080196872898
sg317
F1.0
sg15
I4271
sg318
g319
sbsI1328
g0
(g310
g2
Ntp362
Rp363
(dp364
g314
g315
sg316
F-1.856540236427107
sg317
F1.0
sg15
I1328
sg318
g319
sbsI2691
g0
(g310
g2
Ntp365
Rp366
(dp367
g314
g315
sg316
F2.132181261457483
sg317
F1.0
sg15
I2691
sg318
g319
sbsI1195
g0
(g310
g2
Ntp368
Rp369
(dp370
g314
g315
sg316
F-1.3537233142416616
sg317
F1.0
sg15
I1195
sg318
g319
sbsI3640
g0
(g310
g2
Ntp371
Rp372
(dp373
g314
g315
sg316
F-1.0746154317867551
sg317
F1.0
sg15
I3640
sg318
g319
sbsI2105
g0
(g310
g2
Ntp374
Rp375
(dp376
g314
g315
sg316
F-0.9206638897260522
sg317
F1.0
sg15
I2105
sg318
g319
sbsI959
g0
(g310
g2
Ntp377
Rp378
(dp379
g314
g315
sg316
F-1.269093670487433
sg317
F1.0
sg15
I959
sg318
g319
sbsI4034
g0
(g310
g2
Ntp380
Rp381
(dp382
g314
g315
sg316
F0.5583843870249187
sg317
F1.0
sg15
I4034
sg318
g319
sbsI2891
g0
(g310
g2
Ntp383
Rp384
(dp385
g314
g315
sg316
F0.4321604416527357
sg317
F1.0
sg15
I2891
sg318
g319
sbsI5582
g0
(g310
g2
Ntp386
Rp387
(dp388
g314
g315
sg316
F-0.5151352096281122
sg317
F1.0
sg15
I5582
sg318
g319
sbsI850
g0
(g310
g2
Ntp389
Rp390
(dp391
g314
g315
sg316
F1.5360467290046502
sg317
F1.0
sg15
I850
sg318
g319
sbsI4181
g0
(g310
g2
Ntp392
Rp393
(dp394
g314
g315
sg316
F0.1411395837844172
sg317
F1.0
sg15
I4181
sg318
g319
sbsI1369
g0
(g310
g2
Ntp395
Rp396
(dp397
g314
g315
sg316
F0.5226863651699141
sg317
F1.0
sg15
I1369
sg318
g319
sbsI5596
g0
(g310
g2
Ntp398
Rp399
(dp400
g314
g315
sg316
F1.2239073666810705
sg317
F1.0
sg15
I5596
sg318
g319
sbsI2273
g0
(g310
g2
Ntp401
Rp402
(dp403
g314
g315
sg316
F0.26711048350580635
sg317
F1.0
sg15
I2273
sg318
g319
sbsI484
g0
(g310
g2
Ntp404
Rp405
(dp406
g314
g315
sg316
F-0.3140787776044638
sg317
F1.0
sg15
I484
sg318
g319
sbsI1766
g0
(g310
g2
Ntp407
Rp408
(dp409
g314
g315
sg316
F-0.378038704579188
sg317
F1.0
sg15
I1766
sg318
g319
sbsI3944
g0
(g310
g2
Ntp410
Rp411
(dp412
g314
g315
sg316
F-1.5398015954007878
sg317
F1.0
sg15
I3944
sg318
g319
sbsI4330
g0
(g310
g2
Ntp413
Rp414
(dp415
g314
g315
sg316
F-0.7981540890733163
sg317
F1.0
sg15
I4330
sg318
g319
sbsI4306
g0
(g310
g2
Ntp416
Rp417
(dp418
g314
g315
sg316
F0.7816465666144838
sg317
F1.0
sg15
I4306
sg318
g319
sbsI3823
g0
(g310
g2
Ntp419
Rp420
(dp421
g314
g315
sg316
F1.9660480075411924
sg317
F1.0
sg15
I3823
sg318
g319
sbsI1650
g0
(g310
g2
Ntp422
Rp423
(dp424
g314
g315
sg316
F4.968879717279548
sg317
F1.0
sg15
I1650
sg318
g319
sbsI6419
g0
(g310
g2
Ntp425
Rp426
(dp427
g314
g315
sg316
F-2.4015291638613547
sg317
F1.0
sg15
I6419
sg318
g319
sbsI4214
g0
(g310
g2
Ntp428
Rp429
(dp430
g314
g315
sg316
F-1.1570887063772488
sg317
F1.0
sg15
I4214
sg318
g319
sbssg15
I22656
sS'fitness'
p431
F-5.999999999999995
sb.