ccopy_reg
_reconstructor
p0
(cneat.genome
DefaultGenome
p1
c__builtin__
object
p2
Ntp3
Rp4
(dp5
S'connections'
p6
(dp7
(I1841
I1650
tp8
g0
(cneat.genes
DefaultConnectionGene
p9
g2
Ntp10
Rp11
(dp12
S'enabled'
p13
I00
sS'weight'
p14
F-3.0085535504495047
sS'key'
p15
g8
sbs(I2934
I2
tp16
g0
(g9
g2
Ntp17
Rp18
(dp19
g13
I01
sg14
F3.2360343305718233
sg15
g16
sbs(I1195
I2952
tp20
g0
(g9
g2
Ntp21
Rp22
(dp23
g13
I01
sg14
F-3.3952370650595367
sg15
g20
sbs(I-3
I1650
tp24
g0
(g9
g2
Ntp25
Rp26
(dp27
g13
I01
sg14
F1.3737284306346262
sg15
g24
sbs(I3580
I348
tp28
g0
(g9
g2
Ntp29
Rp30
(dp31
g13
I01
sg14
F0.5308155992758928
sg15
g28
sbs(I1195
I3
tp32
g0
(g9
g2
Ntp33
Rp34
(dp35
g13
I00
sg14
F2.3938862987762586
sg15
g32
sbs(I1841
I959
tp36
g0
(g9
g2
Ntp37
Rp38
(dp39
g13
I01
sg14
F0.5422484642490912
sg15
g36
sbs(I-1
I2891
tp40
g0
(g9
g2
Ntp41
Rp42
(dp43
g13
I01
sg14
F2.101508482899954
sg15
g40
sbs(I2232
I2691
tp44
g0
(g9
g2
Ntp45
Rp46
(dp47
g13
I01
sg14
F-0.7685182840506493
sg15
g44
sbs(I-3
I2691
tp48
g0
(g9
g2
Ntp49
Rp50
(dp51
g13
I01
sg14
F2.4438592881744974
sg15
g48
sbs(I-1
I2579
tp52
g0
(g9
g2
Ntp53
Rp54
(dp55
g13
I00
sg14
F-0.004677486454804314
sg15
g52
sbs(I2691
I484
tp56
g0
(g9
g2
Ntp57
Rp58
(dp59
g13
I00
sg14
F-0.7347894405345686
sg15
g56
sbs(I2273
I1
tp60
g0
(g9
g2
Ntp61
Rp62
(dp63
g13
I00
sg14
F-3.45521618934663
sg15
g60
sbs(I-4
I850
tp64
g0
(g9
g2
Ntp65
Rp66
(dp67
g13
I01
sg14
F2.2990040751425003
sg15
g64
sbs(I-3
I348
tp68
g0
(g9
g2
Ntp69
Rp70
(dp71
g13
I00
sg14
F-0.5644717804198754
sg15
g68
sbs(I-3
I903
tp72
g0
(g9
g2
Ntp73
Rp74
(dp75
g13
I01
sg14
F0.8974636482575387
sg15
g72
sbs(I1735
I0
tp76
g0
(g9
g2
Ntp77
Rp78
(dp79
g13
I01
sg14
F1.0981483777053231
sg15
g76
sbs(I484
I1
tp80
g0
(g9
g2
Ntp81
Rp82
(dp83
g13
I00
sg14
F0.2444389416393642
sg15
g80
sbs(I2673
I1
tp84
g0
(g9
g2
Ntp85
Rp86
(dp87
g13
I01
sg14
F-0.20343724411876124
sg15
g84
sbs(I2273
I3329
tp88
g0
(g9
g2
Ntp89
Rp90
(dp91
g13
I01
sg14
F1.0640652611090158
sg15
g88
sbs(I-3
I2273
tp92
g0
(g9
g2
Ntp93
Rp94
(dp95
g13
I00
sg14
F-2.054140525198157
sg15
g92
sbs(I348
I0
tp96
g0
(g9
g2
Ntp97
Rp98
(dp99
g13
I01
sg14
F0.8198442387864666
sg15
g96
sbs(I1369
I2
tp100
g0
(g9
g2
Ntp101
Rp102
(dp103
g13
I01
sg14
F0.9308744223059471
sg15
g100
sbs(I484
I2
tp104
g0
(g9
g2
Ntp105
Rp106
(dp107
g13
I01
sg14
F-0.31940884998805436
sg15
g104
sbs(I348
I2934
tp108
g0
(g9
g2
Ntp109
Rp110
(dp111
g13
I01
sg14
F3.652045097823098
sg15
g108
sbs(I-2
I2023
tp112
g0
(g9
g2
Ntp113
Rp114
(dp115
g13
I00
sg14
F2.7234042009092723
sg15
g112
sbs(I2673
I0
tp116
g0
(g9
g2
Ntp117
Rp118
(dp119
g13
I00
sg14
F0.05809133315725229
sg15
g116
sbs(I2105
I1328
tp120
g0
(g9
g2
Ntp121
Rp122
(dp123
g13
I00
sg14
F0.7572783981160812
sg15
g120
sbs(I-3
I3580
tp124
g0
(g9
g2
Ntp125
Rp126
(dp127
g13
I01
sg14
F0.8294503585820047
sg15
g124
sbs(I348
I388
tp128
g0
(g9
g2
Ntp129
Rp130
(dp131
g13
I00
sg14
F-1.015525667835258
sg15
g128
sbs(I3051
I484
tp132
g0
(g9
g2
Ntp133
Rp134
(dp135
g13
I01
sg14
F-1.5435493175743797
sg15
g132
sbs(I2891
I2
tp136
g0
(g9
g2
Ntp137
Rp138
(dp139
g13
I01
sg14
F-0.32905025588653686
sg15
g136
sbs(I-1
I2
tp140
g0
(g9
g2
Ntp141
Rp142
(dp143
g13
I00
sg14
F-0.1822586110124732
sg15
g140
sbs(I-2
I1
tp144
g0
(g9
g2
Ntp145
Rp146
(dp147
g13
I01
sg14
F-0.7497275684501603
sg15
g144
sbs(I-3
I1
tp148
g0
(g9
g2
Ntp149
Rp150
(dp151
g13
I00
sg14
F-3.0263132425094352
sg15
g148
sbs(I2673
I2828
tp152
g0
(g9
g2
Ntp153
Rp154
(dp155
g13
I01
sg14
F-0.3814692541288408
sg15
g152
sbs(I-4
I0
tp156
g0
(g9
g2
Ntp157
Rp158
(dp159
g13
I01
sg14
F-1.0591330841265985
sg15
g156
sbs(I-3
I2105
tp160
g0
(g9
g2
Ntp161
Rp162
(dp163
g13
I00
sg14
F-6.226893643379541
sg15
g160
sbs(I2232
I3051
tp164
g0
(g9
g2
Ntp165
Rp166
(dp167
g13
I01
sg14
F-1.4582918140752819
sg15
g164
sbs(I2232
I484
tp168
g0
(g9
g2
Ntp169
Rp170
(dp171
g13
I00
sg14
F-2.341895506158207
sg15
g168
sbs(I-3
I1328
tp172
g0
(g9
g2
Ntp173
Rp174
(dp175
g13
I00
sg14
F-0.2705485157110828
sg15
g172
sbs(I-3
I3
tp176
g0
(g9
g2
Ntp177
Rp178
(dp179
g13
I01
sg14
F0.3435072565075683
sg15
g176
sbs(I903
I484
tp180
g0
(g9
g2
Ntp181
Rp182
(dp183
g13
I01
sg14
F0.48740168241216497
sg15
g180
sbs(I2952
I3
tp184
g0
(g9
g2
Ntp185
Rp186
(dp187
g13
I01
sg14
F1.7980704618039727
sg15
g184
sbs(I-4
I1841
tp188
g0
(g9
g2
Ntp189
Rp190
(dp191
g13
I00
sg14
F-0.6308767452920662
sg15
g188
sbs(I2891
I1195
tp192
g0
(g9
g2
Ntp193
Rp194
(dp195
g13
I01
sg14
F1.3354664079371108
sg15
g192
sbs(I-4
I959
tp196
g0
(g9
g2
Ntp197
Rp198
(dp199
g13
I00
sg14
F0.9811701550309656
sg15
g196
sbs(I2828
I0
tp200
g0
(g9
g2
Ntp201
Rp202
(dp203
g13
I01
sg14
F-0.3965163880879102
sg15
g200
sbs(I-1
I3
tp204
g0
(g9
g2
Ntp205
Rp206
(dp207
g13
I01
sg14
F1.6062710818856285
sg15
g204
sbs(I388
I1
tp208
g0
(g9
g2
Ntp209
Rp210
(dp211
g13
I01
sg14
F1.4719755876303706
sg15
g208
sbs(I1650
I388
tp212
g0
(g9
g2
Ntp213
Rp214
(dp215
g13
I00
sg14
F-2.899696442314195
sg15
g212
sbs(I-3
I0
tp216
g0
(g9
g2
Ntp217
Rp218
(dp219
g13
I00
sg14
F-2.4660868391799626
sg15
g216
sbs(I3329
I1
tp220
g0
(g9
g2
Ntp221
Rp222
(dp223
g13
I01
sg14
F0.9748812950442605
sg15
g220
sbs(I348
I2
tp224
g0
(g9
g2
Ntp225
Rp226
(dp227
g13
I01
sg14
F-1.3862973909976368
sg15
g224
sbs(I2721
I2579
tp228
g0
(g9
g2
Ntp229
Rp230
(dp231
g13
I01
sg14
F0.4745153445464896
sg15
g228
sbs(I484
I1369
tp232
g0
(g9
g2
Ntp233
Rp234
(dp235
g13
I00
sg14
F1.0396909671780425
sg15
g232
sbs(I1328
I1735
tp236
g0
(g9
g2
Ntp237
Rp238
(dp239
g13
I01
sg14
F1.053327725224212
sg15
g236
sbs(I388
I3
tp240
g0
(g9
g2
Ntp241
Rp242
(dp243
g13
I00
sg14
F0.33845672184358316
sg15
g240
sbs(I1841
I2891
tp244
g0
(g9
g2
Ntp245
Rp246
(dp247
g13
I01
sg14
F-0.5186006586257098
sg15
g244
sbs(I903
I1195
tp248
g0
(g9
g2
Ntp249
Rp250
(dp251
g13
I00
sg14
F1.5328898678197433
sg15
g248
sbs(I-4
I1766
tp252
g0
(g9
g2
Ntp253
Rp254
(dp255
g13
I01
sg14
F0.45410048649784773
sg15
g252
sbs(I-1
I2721
tp256
g0
(g9
g2
Ntp257
Rp258
(dp259
g13
I00
sg14
F0.3653024861127581
sg15
g256
sbssS'nodes'
p260
(dp261
I0
g0
(cneat.genes
DefaultNodeGene
p262
g2
Ntp263
Rp264
(dp265
S'activation'
p266
S'sigmoid'
p267
sS'bias'
p268
F-0.10314014313977721
sS'response'
p269
F1.0
sg15
I0
sS'aggregation'
p270
S'sum'
p271
sbsI1
g0
(g262
g2
Ntp272
Rp273
(dp274
g266
g267
sg268
F0.7963494530026087
sg269
F1.0
sg15
I1
sg270
g271
sbsI2
g0
(g262
g2
Ntp275
Rp276
(dp277
g266
g267
sg268
F-1.5683351444208746
sg269
F1.0
sg15
I2
sg270
g271
sbsI3
g0
(g262
g2
Ntp278
Rp279
(dp280
g266
g267
sg268
F2.284187586181659
sg269
F1.0
sg15
I3
sg270
g271
sbsI388
g0
(g262
g2
Ntp281
Rp282
(dp283
g266
g267
sg268
F-0.027326106327153432
sg269
F1.0
sg15
I388
sg270
g271
sbsI3329
g0
(g262
g2
Ntp284
Rp285
(dp286
g266
g267
sg268
F2.5150708604864547
sg269
F1.0
sg15
I3329
sg270
g271
sbsI2952
g0
(g262
g2
Ntp287
Rp288
(dp289
g266
g267
sg268
F2.03112798281525
sg269
F1.0
sg15
I2952
sg270
g271
sbsI2828
g0
(g262
g2
Ntp290
Rp291
(dp292
g266
g267
sg268
F0.2876846206212903
sg269
F1.0
sg15
I2828
sg270
g271
sbsI2579
g0
(g262
g2
Ntp293
Rp294
(dp295
g266
g267
sg268
F-0.06725367080247643
sg269
F1.0
sg15
I2579
sg270
g271
sbsI2721
g0
(g262
g2
Ntp296
Rp297
(dp298
g266
g267
sg268
F1.1432240556468958
sg269
F1.0
sg15
I2721
sg270
g271
sbsI903
g0
(g262
g2
Ntp299
Rp300
(dp301
g266
g267
sg268
F-2.7496460535189393
sg269
F1.0
sg15
I903
sg270
g271
sbsI1328
g0
(g262
g2
Ntp302
Rp303
(dp304
g266
g267
sg268
F1.774132445430508
sg269
F1.0
sg15
I1328
sg270
g271
sbsI1841
g0
(g262
g2
Ntp305
Rp306
(dp307
g266
g267
sg268
F0.9632655564224685
sg269
F1.0
sg15
I1841
sg270
g271
sbsI2691
g0
(g262
g2
Ntp308
Rp309
(dp310
g266
g267
sg268
F-0.37127737291873075
sg269
F1.0
sg15
I2691
sg270
g271
sbsI1195
g0
(g262
g2
Ntp311
Rp312
(dp313
g266
g267
sg268
F0.4136997778293253
sg269
F1.0
sg15
I1195
sg270
g271
sbsI2232
g0
(g262
g2
Ntp314
Rp315
(dp316
g266
g267
sg268
F0.11642513646894848
sg269
F1.0
sg15
I2232
sg270
g271
sbsI2105
g0
(g262
g2
Ntp317
Rp318
(dp319
g266
g267
sg268
F-1.7657502161312348
sg269
F1.0
sg15
I2105
sg270
g271
sbsI959
g0
(g262
g2
Ntp320
Rp321
(dp322
g266
g267
sg268
F-2.0705075587373605
sg269
F1.0
sg15
I959
sg270
g271
sbsI1735
g0
(g262
g2
Ntp323
Rp324
(dp325
g266
g267
sg268
F0.5892071114029971
sg269
F1.0
sg15
I1735
sg270
g271
sbsI2891
g0
(g262
g2
Ntp326
Rp327
(dp328
g266
g267
sg268
F-0.321484208135159
sg269
F1.0
sg15
I2891
sg270
g271
sbsI850
g0
(g262
g2
Ntp329
Rp330
(dp331
g266
g267
sg268
F-0.6037604113714756
sg269
F1.0
sg15
I850
sg270
g271
sbsI1369
g0
(g262
g2
Ntp332
Rp333
(dp334
g266
g267
sg268
F0.3980293164662462
sg269
F1.0
sg15
I1369
sg270
g271
sbsI348
g0
(g262
g2
Ntp335
Rp336
(dp337
g266
g267
sg268
F-1.1660408048347746
sg269
F1.0
sg15
I348
sg270
g271
sbsI2273
g0
(g262
g2
Ntp338
Rp339
(dp340
g266
g267
sg268
F2.1563478647641947
sg269
F1.0
sg15
I2273
sg270
g271
sbsI484
g0
(g262
g2
Ntp341
Rp342
(dp343
g266
g267
sg268
F-1.871631446747846
sg269
F1.0
sg15
I484
sg270
g271
sbsI1766
g0
(g262
g2
Ntp344
Rp345
(dp346
g266
g267
sg268
F-0.7969514564674259
sg269
F1.0
sg15
I1766
sg270
g271
sbsI2023
g0
(g262
g2
Ntp347
Rp348
(dp349
g266
g267
sg268
F-1.933651138851647
sg269
F1.0
sg15
I2023
sg270
g271
sbsI3051
g0
(g262
g2
Ntp350
Rp351
(dp352
g266
g267
sg268
F0.749713284259836
sg269
F1.0
sg15
I3051
sg270
g271
sbsI2673
g0
(g262
g2
Ntp353
Rp354
(dp355
g266
g267
sg268
F0.2567481257998365
sg269
F1.0
sg15
I2673
sg270
g271
sbsI1650
g0
(g262
g2
Ntp356
Rp357
(dp358
g266
g267
sg268
F1.1871078239544623
sg269
F1.0
sg15
I1650
sg270
g271
sbsI2934
g0
(g262
g2
Ntp359
Rp360
(dp361
g266
g267
sg268
F0.014621482699000765
sg269
F1.0
sg15
I2934
sg270
g271
sbsI3580
g0
(g262
g2
Ntp362
Rp363
(dp364
g266
g267
sg268
F-2.2957358251654942
sg269
F1.0
sg15
I3580
sg270
g271
sbssg15
I10928
sS'fitness'
p365
F-5.999999999999995
sb.