ccopy_reg
_reconstructor
p0
(cneat.genome
DefaultGenome
p1
c__builtin__
object
p2
Ntp3
Rp4
(dp5
S'connections'
p6
(dp7
(I-3
I444
tp8
g0
(cneat.genes
DefaultConnectionGene
p9
g2
Ntp10
Rp11
(dp12
S'enabled'
p13
I00
sS'weight'
p14
F-0.8285347603811012
sS'key'
p15
g8
sbs(I-1
I0
tp16
g0
(g9
g2
Ntp17
Rp18
(dp19
g13
I00
sg14
F-0.8374564712541946
sg15
g16
sbs(I1747
I2544
tp20
g0
(g9
g2
Ntp21
Rp22
(dp23
g13
I01
sg14
F1.6458334111882749
sg15
g20
sbs(I-4
I2944
tp24
g0
(g9
g2
Ntp25
Rp26
(dp27
g13
I01
sg14
F-0.9012167221655587
sg15
g24
sbs(I855
I1
tp28
g0
(g9
g2
Ntp29
Rp30
(dp31
g13
I01
sg14
F0.7393362261802467
sg15
g28
sbs(I1077
I2205
tp32
g0
(g9
g2
Ntp33
Rp34
(dp35
g13
I01
sg14
F-1.2037085626730444
sg15
g32
sbs(I-2
I2486
tp36
g0
(g9
g2
Ntp37
Rp38
(dp39
g13
I01
sg14
F1.9749306296339584
sg15
g36
sbs(I-2
I2763
tp40
g0
(g9
g2
Ntp41
Rp42
(dp43
g13
I01
sg14
F0.15125005693049337
sg15
g40
sbs(I-4
I2
tp44
g0
(g9
g2
Ntp45
Rp46
(dp47
g13
I00
sg14
F-0.46173940706201066
sg15
g44
sbs(I855
I2
tp48
g0
(g9
g2
Ntp49
Rp50
(dp51
g13
I01
sg14
F0.6382628613420733
sg15
g48
sbs(I-3
I3
tp52
g0
(g9
g2
Ntp53
Rp54
(dp55
g13
I00
sg14
F1.2715593052033751
sg15
g52
sbs(I1
I1194
tp56
g0
(g9
g2
Ntp57
Rp58
(dp59
g13
I01
sg14
F2.0713548890267934
sg15
g56
sbs(I1747
I1194
tp60
g0
(g9
g2
Ntp61
Rp62
(dp63
g13
I00
sg14
F1.2408439453900282
sg15
g60
sbs(I1132
I3
tp64
g0
(g9
g2
Ntp65
Rp66
(dp67
g13
I01
sg14
F0.3939662502868677
sg15
g64
sbs(I2694
I1747
tp68
g0
(g9
g2
Ntp69
Rp70
(dp71
g13
I01
sg14
F0.740030322199844
sg15
g68
sbs(I-2
I1
tp72
g0
(g9
g2
Ntp73
Rp74
(dp75
g13
I00
sg14
F0.39951238123132776
sg15
g72
sbs(I2544
I1194
tp76
g0
(g9
g2
Ntp77
Rp78
(dp79
g13
I01
sg14
F-1.0305964809839228
sg15
g76
sbs(I2205
I1747
tp80
g0
(g9
g2
Ntp81
Rp82
(dp83
g13
I00
sg14
F-0.02521750648685528
sg15
g80
sbs(I-2
I444
tp84
g0
(g9
g2
Ntp85
Rp86
(dp87
g13
I00
sg14
F0.11467723229097629
sg15
g84
sbs(I2734
I0
tp88
g0
(g9
g2
Ntp89
Rp90
(dp91
g13
I01
sg14
F-0.01051278016699253
sg15
g88
sbs(I-2
I1132
tp92
g0
(g9
g2
Ntp93
Rp94
(dp95
g13
I00
sg14
F-2.075348998235582
sg15
g92
sbs(I454
I1194
tp96
g0
(g9
g2
Ntp97
Rp98
(dp99
g13
I00
sg14
F-0.19725556144704398
sg15
g96
sbs(I-1
I2734
tp100
g0
(g9
g2
Ntp101
Rp102
(dp103
g13
I01
sg14
F-0.1205453907533508
sg15
g100
sbs(I855
I444
tp104
g0
(g9
g2
Ntp105
Rp106
(dp107
g13
I01
sg14
F-0.6919464566947761
sg15
g104
sbs(I2300
I1194
tp108
g0
(g9
g2
Ntp109
Rp110
(dp111
g13
I01
sg14
F0.13970690819433373
sg15
g108
sbs(I-2
I2
tp112
g0
(g9
g2
Ntp113
Rp114
(dp115
g13
I01
sg14
F-0.725959740778751
sg15
g112
sbs(I-1
I855
tp116
g0
(g9
g2
Ntp117
Rp118
(dp119
g13
I01
sg14
F2.0286822576040957
sg15
g116
sbs(I444
I2
tp120
g0
(g9
g2
Ntp121
Rp122
(dp123
g13
I00
sg14
F0.9142839897945159
sg15
g120
sbs(I-4
I0
tp124
g0
(g9
g2
Ntp125
Rp126
(dp127
g13
I01
sg14
F-4.019939756453518
sg15
g124
sbs(I-2
I1747
tp128
g0
(g9
g2
Ntp129
Rp130
(dp131
g13
I01
sg14
F0.9240655444256614
sg15
g128
sbs(I2486
I3
tp132
g0
(g9
g2
Ntp133
Rp134
(dp135
g13
I01
sg14
F-2.0152627269841807
sg15
g132
sbs(I2205
I444
tp136
g0
(g9
g2
Ntp137
Rp138
(dp139
g13
I01
sg14
F-0.11206280633085589
sg15
g136
sbs(I-2
I1077
tp140
g0
(g9
g2
Ntp141
Rp142
(dp143
g13
I01
sg14
F-1.0581717624519607
sg15
g140
sbs(I855
I3
tp144
g0
(g9
g2
Ntp145
Rp146
(dp147
g13
I01
sg14
F-0.42642490557958523
sg15
g144
sbs(I-2
I3
tp148
g0
(g9
g2
Ntp149
Rp150
(dp151
g13
I01
sg14
F-0.6184611852035415
sg15
g148
sbs(I454
I2300
tp152
g0
(g9
g2
Ntp153
Rp154
(dp155
g13
I01
sg14
F-0.05749925623941147
sg15
g152
sbs(I-4
I444
tp156
g0
(g9
g2
Ntp157
Rp158
(dp159
g13
I00
sg14
F1.6300774392193456
sg15
g156
sbs(I-3
I0
tp160
g0
(g9
g2
Ntp161
Rp162
(dp163
g13
I00
sg14
F0.43169715453227797
sg15
g160
sbs(I2944
I2
tp164
g0
(g9
g2
Ntp165
Rp166
(dp167
g13
I01
sg14
F-0.02701848019167583
sg15
g164
sbs(I454
I3
tp168
g0
(g9
g2
Ntp169
Rp170
(dp171
g13
I01
sg14
F-1.8598266147506002
sg15
g168
sbs(I-4
I2205
tp172
g0
(g9
g2
Ntp173
Rp174
(dp175
g13
I01
sg14
F1.5062080637718807
sg15
g172
sbs(I-3
I1132
tp176
g0
(g9
g2
Ntp177
Rp178
(dp179
g13
I01
sg14
F0.4442314700598425
sg15
g176
sbs(I2486
I0
tp180
g0
(g9
g2
Ntp181
Rp182
(dp183
g13
I01
sg14
F1.776054115112414
sg15
g180
sbssS'nodes'
p184
(dp185
I0
g0
(cneat.genes
DefaultNodeGene
p186
g2
Ntp187
Rp188
(dp189
S'activation'
p190
S'sigmoid'
p191
sS'bias'
p192
F-1.8652671932763405
sS'response'
p193
F1.0
sg15
I0
sS'aggregation'
p194
S'sum'
p195
sbsI1
g0
(g186
g2
Ntp196
Rp197
(dp198
g190
g191
sg192
F1.5065537637153248
sg193
F1.0
sg15
I1
sg194
g195
sbsI2
g0
(g186
g2
Ntp199
Rp200
(dp201
g190
g191
sg192
F-0.20340485440638856
sg193
F1.0
sg15
I2
sg194
g195
sbsI3
g0
(g186
g2
Ntp202
Rp203
(dp204
g190
g191
sg192
F0.5182370022704399
sg193
F1.0
sg15
I3
sg194
g195
sbsI2694
g0
(g186
g2
Ntp205
Rp206
(dp207
g190
g191
sg192
F-0.911448220349729
sg193
F1.0
sg15
I2694
sg194
g195
sbsI454
g0
(g186
g2
Ntp208
Rp209
(dp210
g190
g191
sg192
F1.189594490875295
sg193
F1.0
sg15
I454
sg194
g195
sbsI444
g0
(g186
g2
Ntp211
Rp212
(dp213
g190
g191
sg192
F-2.3860521806993997
sg193
F1.0
sg15
I444
sg194
g195
sbsI1194
g0
(g186
g2
Ntp214
Rp215
(dp216
g190
g191
sg192
F-0.5925160102094328
sg193
F1.0
sg15
I1194
sg194
g195
sbsI2763
g0
(g186
g2
Ntp217
Rp218
(dp219
g190
g191
sg192
F1.6677916239551585
sg193
F1.0
sg15
I2763
sg194
g195
sbsI1132
g0
(g186
g2
Ntp220
Rp221
(dp222
g190
g191
sg192
F0.37586436516270816
sg193
F1.0
sg15
I1132
sg194
g195
sbsI2944
g0
(g186
g2
Ntp223
Rp224
(dp225
g190
g191
sg192
F0.6210070895888473
sg193
F1.0
sg15
I2944
sg194
g195
sbsI2734
g0
(g186
g2
Ntp226
Rp227
(dp228
g190
g191
sg192
F0.7238386991276864
sg193
F1.0
sg15
I2734
sg194
g195
sbsI2544
g0
(g186
g2
Ntp229
Rp230
(dp231
g190
g191
sg192
F-0.16362060387763705
sg193
F1.0
sg15
I2544
sg194
g195
sbsI1747
g0
(g186
g2
Ntp232
Rp233
(dp234
g190
g191
sg192
F-0.943389489457769
sg193
F1.0
sg15
I1747
sg194
g195
sbsI1077
g0
(g186
g2
Ntp235
Rp236
(dp237
g190
g191
sg192
F0.17515292521449854
sg193
F1.0
sg15
I1077
sg194
g195
sbsI2486
g0
(g186
g2
Ntp238
Rp239
(dp240
g190
g191
sg192
F0.3407465563037937
sg193
F1.0
sg15
I2486
sg194
g195
sbsI855
g0
(g186
g2
Ntp241
Rp242
(dp243
g190
g191
sg192
F-0.028434648443128263
sg193
F1.0
sg15
I855
sg194
g195
sbsI2300
g0
(g186
g2
Ntp244
Rp245
(dp246
g190
g191
sg192
F-4.369582530022392
sg193
F1.0
sg15
I2300
sg194
g195
sbsI2205
g0
(g186
g2
Ntp247
Rp248
(dp249
g190
g191
sg192
F-0.753796424326002
sg193
F1.0
sg15
I2205
sg194
g195
sbssg15
I9216
sS'fitness'
p250
F18.7
sb.