ccopy_reg
_reconstructor
p0
(cneat.genome
DefaultGenome
p1
c__builtin__
object
p2
Ntp3
Rp4
(dp5
S'connections'
p6
(dp7
(I-3
I444
tp8
g0
(cneat.genes
DefaultConnectionGene
p9
g2
Ntp10
Rp11
(dp12
S'enabled'
p13
I00
sS'weight'
p14
F-0.6718140920562301
sS'key'
p15
g8
sbs(I-1
I0
tp16
g0
(g9
g2
Ntp17
Rp18
(dp19
g13
I00
sg14
F-0.03962783934454333
sg15
g16
sbs(I1747
I2544
tp20
g0
(g9
g2
Ntp21
Rp22
(dp23
g13
I01
sg14
F3.069643886179965
sg15
g20
sbs(I855
I1
tp24
g0
(g9
g2
Ntp25
Rp26
(dp27
g13
I00
sg14
F1.1892725938235131
sg15
g24
sbs(I1077
I2205
tp28
g0
(g9
g2
Ntp29
Rp30
(dp31
g13
I01
sg14
F0.36650601122147636
sg15
g28
sbs(I-2
I2486
tp32
g0
(g9
g2
Ntp33
Rp34
(dp35
g13
I01
sg14
F1.7791355124075654
sg15
g32
sbs(I-4
I2
tp36
g0
(g9
g2
Ntp37
Rp38
(dp39
g13
I00
sg14
F-0.6271736254716999
sg15
g36
sbs(I-3
I3
tp40
g0
(g9
g2
Ntp41
Rp42
(dp43
g13
I00
sg14
F-1.9754660379510853
sg15
g40
sbs(I1
I1194
tp44
g0
(g9
g2
Ntp45
Rp46
(dp47
g13
I01
sg14
F2.3702659364236878
sg15
g44
sbs(I1747
I1194
tp48
g0
(g9
g2
Ntp49
Rp50
(dp51
g13
I00
sg14
F1.6576281928771905
sg15
g48
sbs(I1132
I3
tp52
g0
(g9
g2
Ntp53
Rp54
(dp55
g13
I01
sg14
F0.4532154517950293
sg15
g52
sbs(I2694
I1747
tp56
g0
(g9
g2
Ntp57
Rp58
(dp59
g13
I01
sg14
F-0.47150982275251363
sg15
g56
sbs(I-2
I1
tp60
g0
(g9
g2
Ntp61
Rp62
(dp63
g13
I00
sg14
F0.2697288346727637
sg15
g60
sbs(I444
I3088
tp64
g0
(g9
g2
Ntp65
Rp66
(dp67
g13
I01
sg14
F-0.29115251666138353
sg15
g64
sbs(I2544
I1194
tp68
g0
(g9
g2
Ntp69
Rp70
(dp71
g13
I01
sg14
F-0.7069697648366576
sg15
g68
sbs(I-1
I2734
tp72
g0
(g9
g2
Ntp73
Rp74
(dp75
g13
I00
sg14
F0.7703007075920181
sg15
g72
sbs(I-2
I444
tp76
g0
(g9
g2
Ntp77
Rp78
(dp79
g13
I00
sg14
F-0.12595480607552711
sg15
g76
sbs(I2734
I0
tp80
g0
(g9
g2
Ntp81
Rp82
(dp83
g13
I01
sg14
F1.1022970020156895
sg15
g80
sbs(I-2
I1132
tp84
g0
(g9
g2
Ntp85
Rp86
(dp87
g13
I00
sg14
F1.9306004935931804
sg15
g84
sbs(I-2
I2
tp88
g0
(g9
g2
Ntp89
Rp90
(dp91
g13
I01
sg14
F1.6906088103208854
sg15
g88
sbs(I2205
I1747
tp92
g0
(g9
g2
Ntp93
Rp94
(dp95
g13
I01
sg14
F-1.6624030452576801
sg15
g92
sbs(I855
I444
tp96
g0
(g9
g2
Ntp97
Rp98
(dp99
g13
I01
sg14
F0.3927894558060676
sg15
g96
sbs(I2300
I1194
tp100
g0
(g9
g2
Ntp101
Rp102
(dp103
g13
I01
sg14
F-0.37621699761028216
sg15
g100
sbs(I3046
I1
tp104
g0
(g9
g2
Ntp105
Rp106
(dp107
g13
I01
sg14
F1.8122431519789763
sg15
g104
sbs(I454
I1194
tp108
g0
(g9
g2
Ntp109
Rp110
(dp111
g13
I00
sg14
F-0.1933480503827143
sg15
g108
sbs(I-1
I855
tp112
g0
(g9
g2
Ntp113
Rp114
(dp115
g13
I01
sg14
F1.7803794149697203
sg15
g112
sbs(I2544
I2300
tp116
g0
(g9
g2
Ntp117
Rp118
(dp119
g13
I01
sg14
F-1.2365744590466878
sg15
g116
sbs(I444
I2
tp120
g0
(g9
g2
Ntp121
Rp122
(dp123
g13
I00
sg14
F1.7493744150896047
sg15
g120
sbs(I-4
I0
tp124
g0
(g9
g2
Ntp125
Rp126
(dp127
g13
I01
sg14
F-5.0880773407538085
sg15
g124
sbs(I-4
I2944
tp128
g0
(g9
g2
Ntp129
Rp130
(dp131
g13
I01
sg14
F-0.37495901768635226
sg15
g128
sbs(I-2
I1747
tp132
g0
(g9
g2
Ntp133
Rp134
(dp135
g13
I01
sg14
F1.2139461071909854
sg15
g132
sbs(I855
I3046
tp136
g0
(g9
g2
Ntp137
Rp138
(dp139
g13
I01
sg14
F-0.8309241207520972
sg15
g136
sbs(I2486
I3
tp140
g0
(g9
g2
Ntp141
Rp142
(dp143
g13
I00
sg14
F-0.45314493931769717
sg15
g140
sbs(I2205
I444
tp144
g0
(g9
g2
Ntp145
Rp146
(dp147
g13
I01
sg14
F0.9460746323798856
sg15
g144
sbs(I-2
I1077
tp148
g0
(g9
g2
Ntp149
Rp150
(dp151
g13
I01
sg14
F1.6020185451908895
sg15
g148
sbs(I855
I3
tp152
g0
(g9
g2
Ntp153
Rp154
(dp155
g13
I01
sg14
F-0.16547511866290085
sg15
g152
sbs(I-2
I3
tp156
g0
(g9
g2
Ntp157
Rp158
(dp159
g13
I01
sg14
F4.18513609689869
sg15
g156
sbs(I454
I2300
tp160
g0
(g9
g2
Ntp161
Rp162
(dp163
g13
I01
sg14
F3.73982557764531
sg15
g160
sbs(I-4
I444
tp164
g0
(g9
g2
Ntp165
Rp166
(dp167
g13
I00
sg14
F2.4148233645706934
sg15
g164
sbs(I-3
I0
tp168
g0
(g9
g2
Ntp169
Rp170
(dp171
g13
I00
sg14
F4.392510631281901
sg15
g168
sbs(I2486
I0
tp172
g0
(g9
g2
Ntp173
Rp174
(dp175
g13
I01
sg14
F1.021747160027746
sg15
g172
sbs(I454
I3
tp176
g0
(g9
g2
Ntp177
Rp178
(dp179
g13
I01
sg14
F0.5976425995543857
sg15
g176
sbs(I-4
I2205
tp180
g0
(g9
g2
Ntp181
Rp182
(dp183
g13
I01
sg14
F-0.8224924694986019
sg15
g180
sbs(I-3
I1132
tp184
g0
(g9
g2
Ntp185
Rp186
(dp187
g13
I01
sg14
F0.6810523095774398
sg15
g184
sbs(I3088
I2
tp188
g0
(g9
g2
Ntp189
Rp190
(dp191
g13
I01
sg14
F1.7493744150896047
sg15
g188
sbs(I2944
I2
tp192
g0
(g9
g2
Ntp193
Rp194
(dp195
g13
I01
sg14
F-1.0377531844589594
sg15
g192
sbssS'nodes'
p196
(dp197
I0
g0
(cneat.genes
DefaultNodeGene
p198
g2
Ntp199
Rp200
(dp201
S'activation'
p202
S'sigmoid'
p203
sS'bias'
p204
F-1.341780159863063
sS'response'
p205
F1.0
sg15
I0
sS'aggregation'
p206
S'sum'
p207
sbsI1
g0
(g198
g2
Ntp208
Rp209
(dp210
g202
g203
sg204
F0.32909424731033254
sg205
F1.0
sg15
I1
sg206
g207
sbsI2
g0
(g198
g2
Ntp211
Rp212
(dp213
g202
g203
sg204
F-1.0325030315707815
sg205
F1.0
sg15
I2
sg206
g207
sbsI3
g0
(g198
g2
Ntp214
Rp215
(dp216
g202
g203
sg204
F-0.45338935283802606
sg205
F1.0
sg15
I3
sg206
g207
sbsI2694
g0
(g198
g2
Ntp217
Rp218
(dp219
g202
g203
sg204
F2.710546491864043
sg205
F1.0
sg15
I2694
sg206
g207
sbsI454
g0
(g198
g2
Ntp220
Rp221
(dp222
g202
g203
sg204
F-0.3688435241386905
sg205
F1.0
sg15
I454
sg206
g207
sbsI2300
g0
(g198
g2
Ntp223
Rp224
(dp225
g202
g203
sg204
F-3.633884564638813
sg205
F1.0
sg15
I2300
sg206
g207
sbsI1194
g0
(g198
g2
Ntp226
Rp227
(dp228
g202
g203
sg204
F2.3603263249816973
sg205
F1.0
sg15
I1194
sg206
g207
sbsI2763
g0
(g198
g2
Ntp229
Rp230
(dp231
g202
g203
sg204
F0.37447915044891233
sg205
F1.0
sg15
I2763
sg206
g207
sbsI1132
g0
(g198
g2
Ntp232
Rp233
(dp234
g202
g203
sg204
F2.174379344894003
sg205
F1.0
sg15
I1132
sg206
g207
sbsI2944
g0
(g198
g2
Ntp235
Rp236
(dp237
g202
g203
sg204
F-0.13344355876198843
sg205
F1.0
sg15
I2944
sg206
g207
sbsI2734
g0
(g198
g2
Ntp238
Rp239
(dp240
g202
g203
sg204
F-0.5064392742059942
sg205
F1.0
sg15
I2734
sg206
g207
sbsI2544
g0
(g198
g2
Ntp241
Rp242
(dp243
g202
g203
sg204
F-1.8926116159016875
sg205
F1.0
sg15
I2544
sg206
g207
sbsI1747
g0
(g198
g2
Ntp244
Rp245
(dp246
g202
g203
sg204
F0.4170450791249901
sg205
F1.0
sg15
I1747
sg206
g207
sbsI1077
g0
(g198
g2
Ntp247
Rp248
(dp249
g202
g203
sg204
F-0.8682514954259019
sg205
F1.0
sg15
I1077
sg206
g207
sbsI2486
g0
(g198
g2
Ntp250
Rp251
(dp252
g202
g203
sg204
F2.84886807126659
sg205
F1.0
sg15
I2486
sg206
g207
sbsI855
g0
(g198
g2
Ntp253
Rp254
(dp255
g202
g203
sg204
F-1.256272747062578
sg205
F1.0
sg15
I855
sg206
g207
sbsI3088
g0
(g198
g2
Ntp256
Rp257
(dp258
g202
g203
sg204
F-0.0003127140066728762
sg205
F1.0
sg15
I3088
sg206
g207
sbsI3046
g0
(g198
g2
Ntp259
Rp260
(dp261
g202
g203
sg204
F0.09525610677006269
sg205
F1.0
sg15
I3046
sg206
g207
sbsI444
g0
(g198
g2
Ntp262
Rp263
(dp264
g202
g203
sg204
F-2.8390229312988917
sg205
F1.0
sg15
I444
sg206
g207
sbsI2205
g0
(g198
g2
Ntp265
Rp266
(dp267
g202
g203
sg204
F0.5518274297174985
sg205
F1.0
sg15
I2205
sg206
g207
sbssg15
I9476
sS'fitness'
p268
F38.49999999999998
sb.