ccopy_reg
_reconstructor
p0
(cneat.genome
DefaultGenome
p1
c__builtin__
object
p2
Ntp3
Rp4
(dp5
S'connections'
p6
(dp7
(I513
I2
tp8
g0
(cneat.genes
DefaultConnectionGene
p9
g2
Ntp10
Rp11
(dp12
S'enabled'
p13
I01
sS'weight'
p14
F1.164957996350818
sS'key'
p15
g8
sbs(I-1
I399
tp16
g0
(g9
g2
Ntp17
Rp18
(dp19
g13
I01
sg14
F-1.4525157851336603
sg15
g16
sbs(I325
I299
tp20
g0
(g9
g2
Ntp21
Rp22
(dp23
g13
I00
sg14
F2.3458601971975317
sg15
g20
sbs(I-2
I3
tp24
g0
(g9
g2
Ntp25
Rp26
(dp27
g13
I01
sg14
F-3.9848265735370068
sg15
g24
sbs(I299
I2
tp28
g0
(g9
g2
Ntp29
Rp30
(dp31
g13
I01
sg14
F1.1033048133205219
sg15
g28
sbs(I3
I513
tp32
g0
(g9
g2
Ntp33
Rp34
(dp35
g13
I01
sg14
F2.2317666026296434
sg15
g32
sbs(I-2
I349
tp36
g0
(g9
g2
Ntp37
Rp38
(dp39
g13
I01
sg14
F-0.6879976498941084
sg15
g36
sbs(I499
I299
tp40
g0
(g9
g2
Ntp41
Rp42
(dp43
g13
I00
sg14
F-3.3064877369242622
sg15
g40
sbs(I-1
I299
tp44
g0
(g9
g2
Ntp45
Rp46
(dp47
g13
I00
sg14
F2.5655109665638958
sg15
g44
sbs(I399
I299
tp48
g0
(g9
g2
Ntp49
Rp50
(dp51
g13
I01
sg14
F-1.1775515073162723
sg15
g48
sbs(I299
I513
tp52
g0
(g9
g2
Ntp53
Rp54
(dp55
g13
I01
sg14
F2.019722517174182
sg15
g52
sbs(I-1
I325
tp56
g0
(g9
g2
Ntp57
Rp58
(dp59
g13
I01
sg14
F-0.6415124611356351
sg15
g56
sbs(I-2
I499
tp60
g0
(g9
g2
Ntp61
Rp62
(dp63
g13
I01
sg14
F0.7157846889333325
sg15
g60
sbs(I513
I0
tp64
g0
(g9
g2
Ntp65
Rp66
(dp67
g13
I01
sg14
F0.2647333125352806
sg15
g64
sbs(I325
I349
tp68
g0
(g9
g2
Ntp69
Rp70
(dp71
g13
I01
sg14
F1.7858039689682652
sg15
g68
sbssS'nodes'
p72
(dp73
I0
g0
(cneat.genes
DefaultNodeGene
p74
g2
Ntp75
Rp76
(dp77
S'activation'
p78
S'sigmoid'
p79
sS'bias'
p80
F-0.18912516326252746
sS'response'
p81
F1.0
sg15
I0
sS'aggregation'
p82
S'sum'
p83
sbsI1
g0
(g74
g2
Ntp84
Rp85
(dp86
g78
g79
sg80
F1.2984569134219017
sg81
F1.0
sg15
I1
sg82
g83
sbsI2
g0
(g74
g2
Ntp87
Rp88
(dp89
g78
g79
sg80
F4.98584914224128
sg81
F1.0
sg15
I2
sg82
g83
sbsI3
g0
(g74
g2
Ntp90
Rp91
(dp92
g78
g79
sg80
F-0.1319994035752714
sg81
F1.0
sg15
I3
sg82
g83
sbsI325
g0
(g74
g2
Ntp93
Rp94
(dp95
g78
g79
sg80
F0.07835559735996707
sg81
F1.0
sg15
I325
sg82
g83
sbsI513
g0
(g74
g2
Ntp96
Rp97
(dp98
g78
g79
sg80
F-0.7702500547451874
sg81
F1.0
sg15
I513
sg82
g83
sbsI299
g0
(g74
g2
Ntp99
Rp100
(dp101
g78
g79
sg80
F-1.3854504628004922
sg81
F1.0
sg15
I299
sg82
g83
sbsI399
g0
(g74
g2
Ntp102
Rp103
(dp104
g78
g79
sg80
F-1.4846650192869233
sg81
F1.0
sg15
I399
sg82
g83
sbsI499
g0
(g74
g2
Ntp105
Rp106
(dp107
g78
g79
sg80
F-0.8253501703420865
sg81
F1.0
sg15
I499
sg82
g83
sbsI349
g0
(g74
g2
Ntp108
Rp109
(dp110
g78
g79
sg80
F-1.514920034991039
sg81
F1.0
sg15
I349
sg82
g83
sbssg15
I2214
sS'fitness'
p111
cnumpy.core.multiarray
scalar
p112
(cnumpy
dtype
p113
(S'f8'
p114
I0
I1
tp115
Rp116
(I3
S'<'
p117
NNNI-1
I-1
I0
tp118
bS'\xba\xeb\xf1EuR\xdb\xbf'
p119
tp120
Rp121
sb.