ccopy_reg
_reconstructor
p0
(cneat.genome
DefaultGenome
p1
c__builtin__
object
p2
Ntp3
Rp4
(dp5
S'connections'
p6
(dp7
(I-2
I3
tp8
g0
(cneat.genes
DefaultConnectionGene
p9
g2
Ntp10
Rp11
(dp12
S'enabled'
p13
I01
sS'weight'
p14
F-1.7493214148311407
sS'key'
p15
g8
sbs(I-1
I1
tp16
g0
(g9
g2
Ntp17
Rp18
(dp19
g13
I01
sg14
F-1.0574337106681106
sg15
g16
sbs(I-1
I2
tp20
g0
(g9
g2
Ntp21
Rp22
(dp23
g13
I01
sg14
F-1.6337266151970025
sg15
g20
sbs(I-2
I2
tp24
g0
(g9
g2
Ntp25
Rp26
(dp27
g13
I01
sg14
F-1.1047622259131205
sg15
g24
sbssS'nodes'
p28
(dp29
I0
g0
(cneat.genes
DefaultNodeGene
p30
g2
Ntp31
Rp32
(dp33
S'activation'
p34
S'sigmoid'
p35
sS'bias'
p36
F-0.9921230573186981
sS'response'
p37
F1.0
sg15
I0
sS'aggregation'
p38
S'sum'
p39
sbsI1
g0
(g30
g2
Ntp40
Rp41
(dp42
g34
g35
sg36
F1.0848794816541103
sg37
F1.0
sg15
I1
sg38
g39
sbsI2
g0
(g30
g2
Ntp43
Rp44
(dp45
g34
g35
sg36
F0.3560196089378567
sg37
F1.0
sg15
I2
sg38
g39
sbsI3
g0
(g30
g2
Ntp46
Rp47
(dp48
g34
g35
sg36
F1.857631260612456
sg37
F1.0
sg15
I3
sg38
g39
sbssg15
I1
sS'fitness'
p49
cnumpy.core.multiarray
scalar
p50
(cnumpy
dtype
p51
(S'f8'
p52
I0
I1
tp53
Rp54
(I3
S'<'
p55
NNNI-1
I-1
I0
tp56
bS'gL3 \x9e\xd5+\xc0'
p57
tp58
Rp59
sb.